TN:
SF:/usr/include/c++/7/bits/alloc_traits.h
FN:435,_ZNSt16allocator_traitsISaIcEE8allocateERS0_m
FN:435,_ZNSt16allocator_traitsISaIdEE8allocateERS0_m
FN:435,_ZNSt16allocator_traitsISaISt6vectorIN8nlohmann10basic_jsonISt3mapS0_NSt7__cxx1112basic_stringIcSt11char_traitsIcESaIcEEEblmdSaNS1_14adl_serializerEEESaISB_EEEE8allocateERSE_m
FN:435,_ZNSt16allocator_traitsISaINSt7__cxx1112basic_stringIcSt11char_traitsIcESaIcEEEEE8allocateERS6_m
FN:435,_ZNSt16allocator_traitsISaISt3mapINSt7__cxx1112basic_stringIcSt11char_traitsIcESaIcEEEN8nlohmann10basic_jsonIS0_St6vectorS6_blmdSaNS7_14adl_serializerEEESt4lessIvESaISt4pairIKS6_SB_EEEEE8allocateERSJ_m
FN:435,_ZNSt16allocator_traitsISaIP6SensorEE8allocateERS2_m
FN:435,_ZNSt16allocator_traitsISaIN8nlohmann10basic_jsonISt3mapSt6vectorNSt7__cxx1112basic_stringIcSt11char_traitsIcESaIcEEEblmdSaNS0_14adl_serializerEEEEE8allocateERSC_m
FN:435,_ZNSt16allocator_traitsISaISt13_Rb_tree_nodeISt4pairIKNSt7__cxx1112basic_stringIcSt11char_traitsIcESaIcEEEN8nlohmann10basic_jsonISt3mapSt6vectorS7_blmdSaNS9_14adl_serializerEEEEEEE8allocateERSH_m
FN:435,_ZNSt16allocator_traitsISaImEE8allocateERS0_m
FN:435,_ZNSt16allocator_traitsISaISt23_Sp_counted_ptr_inplaceIN8nlohmann6detail20input_stream_adapterESaIS3_ELN9__gnu_cxx12_Lock_policyE2EEEE8allocateERS8_m
FN:435,_ZNSt16allocator_traitsISaIPN8nlohmann10basic_jsonISt3mapSt6vectorNSt7__cxx1112basic_stringIcSt11char_traitsIcESaIcEEEblmdSaNS0_14adl_serializerEEEEE8allocateERSD_m
FN:461,_ZNSt16allocator_traitsISaISt3mapINSt7__cxx1112basic_stringIcSt11char_traitsIcESaIcEEEN8nlohmann10basic_jsonIS0_St6vectorS6_blmdSaNS7_14adl_serializerEEESt4lessIvESaISt4pairIKS6_SB_EEEEE10deallocateERSJ_PSI_m
FN:461,_ZNSt16allocator_traitsISaIP6SensorEE10deallocateERS2_PS1_m
FN:461,_ZNSt16allocator_traitsISaIcEE10deallocateERS0_Pcm
FN:461,_ZNSt16allocator_traitsISaISt23_Sp_counted_ptr_inplaceIN8nlohmann6detail20input_stream_adapterESaIS3_ELN9__gnu_cxx12_Lock_policyE2EEEE10deallocateERS8_PS7_m
FN:461,_ZNSt16allocator_traitsISaISt6vectorIN8nlohmann10basic_jsonISt3mapS0_NSt7__cxx1112basic_stringIcSt11char_traitsIcESaIcEEEblmdSaNS1_14adl_serializerEEESaISB_EEEE10deallocateERSE_PSD_m
FN:461,_ZNSt16allocator_traitsISaISt13_Rb_tree_nodeISt4pairIKNSt7__cxx1112basic_stringIcSt11char_traitsIcESaIcEEEN8nlohmann10basic_jsonISt3mapSt6vectorS7_blmdSaNS9_14adl_serializerEEEEEEE10deallocateERSH_PSG_m
FN:461,_ZNSt16allocator_traitsISaIN8nlohmann10basic_jsonISt3mapSt6vectorNSt7__cxx1112basic_stringIcSt11char_traitsIcESaIcEEEblmdSaNS0_14adl_serializerEEEEE10deallocateERSC_PSB_m
FN:461,_ZNSt16allocator_traitsISaINSt7__cxx1112basic_stringIcSt11char_traitsIcESaIcEEEEE10deallocateERS6_PS5_m
FN:461,_ZNSt16allocator_traitsISaIPN8nlohmann10basic_jsonISt3mapSt6vectorNSt7__cxx1112basic_stringIcSt11char_traitsIcESaIcEEEblmdSaNS0_14adl_serializerEEEEE10deallocateERSD_PSC_m
FN:461,_ZNSt16allocator_traitsISaIdEE10deallocateERS0_Pdm
FN:461,_ZNSt16allocator_traitsISaImEE10deallocateERS0_Pmm
FN:474,_ZNSt16allocator_traitsISaISt3mapINSt7__cxx1112basic_stringIcSt11char_traitsIcESaIcEEEN8nlohmann10basic_jsonIS0_St6vectorS6_blmdSaNS7_14adl_serializerEEESt4lessIvESaISt4pairIKS6_SB_EEEEE9constructISI_JRKSI_EEEvRSJ_PT_DpOT0_
FN:474,_ZNSt16allocator_traitsISaISt13_Rb_tree_nodeISt4pairIKNSt7__cxx1112basic_stringIcSt11char_traitsIcESaIcEEEN8nlohmann10basic_jsonISt3mapSt6vectorS7_blmdSaNS9_14adl_serializerEEEEEEE9constructISF_JRKSF_EEEvRSH_PT_DpOT0_
FN:474,_ZNSt16allocator_traitsISaIPN8nlohmann10basic_jsonISt3mapSt6vectorNSt7__cxx1112basic_stringIcSt11char_traitsIcESaIcEEEblmdSaNS0_14adl_serializerEEEEE9constructISC_JRKSC_EEEvRSD_PT_DpOT0_
FN:474,_ZNSt16allocator_traitsISaIdEE9constructIdJdEEEvRS0_PT_DpOT0_
FN:474,_ZNSt16allocator_traitsISaIN8nlohmann10basic_jsonISt3mapSt6vectorNSt7__cxx1112basic_stringIcSt11char_traitsIcESaIcEEEblmdSaNS0_14adl_serializerEEEEE9constructISB_JRbEEEvRSC_PT_DpOT0_
FN:474,_ZNSt16allocator_traitsISaIN8nlohmann10basic_jsonISt3mapSt6vectorNSt7__cxx1112basic_stringIcSt11char_traitsIcESaIcEEEblmdSaNS0_14adl_serializerEEEEE9constructISB_JSB_EEEvRSC_PT_DpOT0_
FN:474,_ZNSt16allocator_traitsISaISt6vectorIN8nlohmann10basic_jsonISt3mapS0_NSt7__cxx1112basic_stringIcSt11char_traitsIcESaIcEEEblmdSaNS1_14adl_serializerEEESaISB_EEEE9constructISD_JEEEvRSE_PT_DpOT0_
FN:474,_ZNSt16allocator_traitsISaISt3mapINSt7__cxx1112basic_stringIcSt11char_traitsIcESaIcEEEN8nlohmann10basic_jsonIS0_St6vectorS6_blmdSaNS7_14adl_serializerEEESt4lessIvESaISt4pairIKS6_SB_EEEEE9constructISI_JEEEvRSJ_PT_DpOT0_
FN:474,_ZNSt16allocator_traitsISaIN8nlohmann10basic_jsonISt3mapSt6vectorNSt7__cxx1112basic_stringIcSt11char_traitsIcESaIcEEEblmdSaNS0_14adl_serializerEEEEE9constructISB_JRS9_EEEvRSC_PT_DpOT0_
FN:474,_ZNSt16allocator_traitsISaIPN8nlohmann10basic_jsonISt3mapSt6vectorNSt7__cxx1112basic_stringIcSt11char_traitsIcESaIcEEEblmdSaNS0_14adl_serializerEEEEE9constructISC_JSC_EEEvRSD_PT_DpOT0_
FN:474,_ZNSt16allocator_traitsISaIcEE9constructIcJcEEEvRS0_PT_DpOT0_
FN:474,_ZNSt16allocator_traitsISaISt13_Rb_tree_nodeISt4pairIKNSt7__cxx1112basic_stringIcSt11char_traitsIcESaIcEEEN8nlohmann10basic_jsonISt3mapSt6vectorS7_blmdSaNS9_14adl_serializerEEEEEEE9constructISF_JRKSt21piecewise_construct_tSt5tupleIJRS8_EESN_IJEEEEEvRSH_PT_DpOT0_
FN:474,_ZNSt16allocator_traitsISaIN8nlohmann6detail20input_stream_adapterEEE9constructIS2_JRSiEEEvRS3_PT_DpOT0_
FN:474,_ZNSt16allocator_traitsISaIN8nlohmann10basic_jsonISt3mapSt6vectorNSt7__cxx1112basic_stringIcSt11char_traitsIcESaIcEEEblmdSaNS0_14adl_serializerEEEEE9constructISB_JRdEEEvRSC_PT_DpOT0_
FN:474,_ZNSt16allocator_traitsISaIN8nlohmann10basic_jsonISt3mapSt6vectorNSt7__cxx1112basic_stringIcSt11char_traitsIcESaIcEEEblmdSaNS0_14adl_serializerEEEEE9constructISB_JDnEEEvRSC_PT_DpOT0_
FN:474,_ZNSt16allocator_traitsISaISt6vectorIN8nlohmann10basic_jsonISt3mapS0_NSt7__cxx1112basic_stringIcSt11char_traitsIcESaIcEEEblmdSaNS1_14adl_serializerEEESaISB_EEEE9constructISD_JRKSD_EEEvRSE_PT_DpOT0_
FN:474,_ZNSt16allocator_traitsISaINSt7__cxx1112basic_stringIcSt11char_traitsIcESaIcEEEEE9constructIS5_JRKS5_EEEvRS6_PT_DpOT0_
FN:474,_ZNSt16allocator_traitsISaIP6SensorEE9constructIS1_JS1_EEEvRS2_PT_DpOT0_
FN:474,_ZNSt16allocator_traitsISaIN8nlohmann10basic_jsonISt3mapSt6vectorNSt7__cxx1112basic_stringIcSt11char_traitsIcESaIcEEEblmdSaNS0_14adl_serializerEEEEE9constructISB_JRmEEEvRSC_PT_DpOT0_
FN:474,_ZNSt16allocator_traitsISaINSt7__cxx1112basic_stringIcSt11char_traitsIcESaIcEEEEE9constructIS5_JRA1_KcEEEvRS6_PT_DpOT0_
FN:474,_ZNSt16allocator_traitsISaIN8nlohmann10basic_jsonISt3mapSt6vectorNSt7__cxx1112basic_stringIcSt11char_traitsIcESaIcEEEblmdSaNS0_14adl_serializerEEEEE9constructISB_JNS0_6detail7value_tEEEEvRSC_PT_DpOT0_
FN:474,_ZNSt16allocator_traitsISaIN8nlohmann10basic_jsonISt3mapSt6vectorNSt7__cxx1112basic_stringIcSt11char_traitsIcESaIcEEEblmdSaNS0_14adl_serializerEEEEE9constructISB_JRlEEEvRSC_PT_DpOT0_
FN:486,_ZNSt16allocator_traitsISaIcEE7destroyIcEEvRS0_PT_
FN:486,_ZNSt16allocator_traitsISaIN8nlohmann10basic_jsonISt3mapSt6vectorNSt7__cxx1112basic_stringIcSt11char_traitsIcESaIcEEEblmdSaNS0_14adl_serializerEEEEE7destroyISB_EEvRSC_PT_
FN:486,_ZNSt16allocator_traitsISaISt6vectorIN8nlohmann10basic_jsonISt3mapS0_NSt7__cxx1112basic_stringIcSt11char_traitsIcESaIcEEEblmdSaNS1_14adl_serializerEEESaISB_EEEE7destroyISD_EEvRSE_PT_
FN:486,_ZNSt16allocator_traitsISaIN8nlohmann6detail20input_stream_adapterEEE7destroyIS2_EEvRS3_PT_
FN:486,_ZNSt16allocator_traitsISaIPN8nlohmann10basic_jsonISt3mapSt6vectorNSt7__cxx1112basic_stringIcSt11char_traitsIcESaIcEEEblmdSaNS0_14adl_serializerEEEEE7destroyISC_EEvRSD_PT_
FN:486,_ZNSt16allocator_traitsISaIdEE7destroyIdEEvRS0_PT_
FN:486,_ZNSt16allocator_traitsISaIP6SensorEE7destroyIS1_EEvRS2_PT_
FN:486,_ZNSt16allocator_traitsISaISt13_Rb_tree_nodeISt4pairIKNSt7__cxx1112basic_stringIcSt11char_traitsIcESaIcEEEN8nlohmann10basic_jsonISt3mapSt6vectorS7_blmdSaNS9_14adl_serializerEEEEEEE7destroyISF_EEvRSH_PT_
FN:486,_ZNSt16allocator_traitsISaINSt7__cxx1112basic_stringIcSt11char_traitsIcESaIcEEEEE7destroyIS5_EEvRS6_PT_
FN:486,_ZNSt16allocator_traitsISaISt3mapINSt7__cxx1112basic_stringIcSt11char_traitsIcESaIcEEEN8nlohmann10basic_jsonIS0_St6vectorS6_blmdSaNS7_14adl_serializerEEESt4lessIvESaISt4pairIKS6_SB_EEEEE7destroyISI_EEvRSJ_PT_
FN:495,_ZNSt16allocator_traitsISaImEE8max_sizeERKS0_
FN:495,_ZNSt16allocator_traitsISaIN8nlohmann10basic_jsonISt3mapSt6vectorNSt7__cxx1112basic_stringIcSt11char_traitsIcESaIcEEEblmdSaNS0_14adl_serializerEEEEE8max_sizeERKSC_
FN:495,_ZNSt16allocator_traitsISaISt13_Rb_tree_nodeISt4pairIKNSt7__cxx1112basic_stringIcSt11char_traitsIcESaIcEEEN8nlohmann10basic_jsonISt3mapSt6vectorS7_blmdSaNS9_14adl_serializerEEEEEEE8max_sizeERKSH_
FN:495,_ZNSt16allocator_traitsISaIcEE8max_sizeERKS0_
FN:495,_ZNSt16allocator_traitsISaIP6SensorEE8max_sizeERKS2_
FN:495,_ZNSt16allocator_traitsISaIdEE8max_sizeERKS0_
FN:495,_ZNSt16allocator_traitsISaIPN8nlohmann10basic_jsonISt3mapSt6vectorNSt7__cxx1112basic_stringIcSt11char_traitsIcESaIcEEEblmdSaNS0_14adl_serializerEEEEE8max_sizeERKSD_
FN:504,_ZNSt16allocator_traitsISaIN8nlohmann10basic_jsonISt3mapSt6vectorNSt7__cxx1112basic_stringIcSt11char_traitsIcESaIcEEEblmdSaNS0_14adl_serializerEEEEE37select_on_container_copy_constructionERKSC_
FN:504,_ZNSt16allocator_traitsISaISt13_Rb_tree_nodeISt4pairIKNSt7__cxx1112basic_stringIcSt11char_traitsIcESaIcEEEN8nlohmann10basic_jsonISt3mapSt6vectorS7_blmdSaNS9_14adl_serializerEEEEEEE37select_on_container_copy_constructionERKSH_
FNDA:2,_ZNSt16allocator_traitsISaIPN8nlohmann10basic_jsonISt3mapSt6vectorNSt7__cxx1112basic_stringIcSt11char_traitsIcESaIcEEEblmdSaNS0_14adl_serializerEEEEE8allocateERSD_m
FNDA:41168,_ZNSt16allocator_traitsISaISt13_Rb_tree_nodeISt4pairIKNSt7__cxx1112basic_stringIcSt11char_traitsIcESaIcEEEN8nlohmann10basic_jsonISt3mapSt6vectorS7_blmdSaNS9_14adl_serializerEEEEEEE8allocateERSH_m
FNDA:11,_ZNSt16allocator_traitsISaIN8nlohmann10basic_jsonISt3mapSt6vectorNSt7__cxx1112basic_stringIcSt11char_traitsIcESaIcEEEblmdSaNS0_14adl_serializerEEEEE8allocateERSC_m
FNDA:7,_ZNSt16allocator_traitsISaIcEE8allocateERS0_m
FNDA:1,_ZNSt16allocator_traitsISaImEE8allocateERS0_m
FNDA:1,_ZNSt16allocator_traitsISaISt23_Sp_counted_ptr_inplaceIN8nlohmann6detail20input_stream_adapterESaIS3_ELN9__gnu_cxx12_Lock_policyE2EEEE8allocateERS8_m
FNDA:33,_ZNSt16allocator_traitsISaIdEE8allocateERS0_m
FNDA:22,_ZNSt16allocator_traitsISaIP6SensorEE8allocateERS2_m
FNDA:5312,_ZNSt16allocator_traitsISaINSt7__cxx1112basic_stringIcSt11char_traitsIcESaIcEEEEE8allocateERS6_m
FNDA:1,_ZNSt16allocator_traitsISaISt6vectorIN8nlohmann10basic_jsonISt3mapS0_NSt7__cxx1112basic_stringIcSt11char_traitsIcESaIcEEEblmdSaNS1_14adl_serializerEEESaISB_EEEE8allocateERSE_m
FNDA:1328,_ZNSt16allocator_traitsISaISt3mapINSt7__cxx1112basic_stringIcSt11char_traitsIcESaIcEEEN8nlohmann10basic_jsonIS0_St6vectorS6_blmdSaNS7_14adl_serializerEEESt4lessIvESaISt4pairIKS6_SB_EEEEE8allocateERSJ_m
FNDA:41168,_ZNSt16allocator_traitsISaISt13_Rb_tree_nodeISt4pairIKNSt7__cxx1112basic_stringIcSt11char_traitsIcESaIcEEEN8nlohmann10basic_jsonISt3mapSt6vectorS7_blmdSaNS9_14adl_serializerEEEEEEE10deallocateERSH_PSG_m
FNDA:11,_ZNSt16allocator_traitsISaIN8nlohmann10basic_jsonISt3mapSt6vectorNSt7__cxx1112basic_stringIcSt11char_traitsIcESaIcEEEblmdSaNS0_14adl_serializerEEEEE10deallocateERSC_PSB_m
FNDA:1,_ZNSt16allocator_traitsISaISt23_Sp_counted_ptr_inplaceIN8nlohmann6detail20input_stream_adapterESaIS3_ELN9__gnu_cxx12_Lock_policyE2EEEE10deallocateERS8_PS7_m
FNDA:1,_ZNSt16allocator_traitsISaImEE10deallocateERS0_Pmm
FNDA:2,_ZNSt16allocator_traitsISaIPN8nlohmann10basic_jsonISt3mapSt6vectorNSt7__cxx1112basic_stringIcSt11char_traitsIcESaIcEEEblmdSaNS0_14adl_serializerEEEEE10deallocateERSD_PSC_m
FNDA:33,_ZNSt16allocator_traitsISaIdEE10deallocateERS0_Pdm
FNDA:22,_ZNSt16allocator_traitsISaIP6SensorEE10deallocateERS2_PS1_m
FNDA:7,_ZNSt16allocator_traitsISaIcEE10deallocateERS0_Pcm
FNDA:5312,_ZNSt16allocator_traitsISaINSt7__cxx1112basic_stringIcSt11char_traitsIcESaIcEEEEE10deallocateERS6_PS5_m
FNDA:1,_ZNSt16allocator_traitsISaISt6vectorIN8nlohmann10basic_jsonISt3mapS0_NSt7__cxx1112basic_stringIcSt11char_traitsIcESaIcEEEblmdSaNS1_14adl_serializerEEESaISB_EEEE10deallocateERSE_PSD_m
FNDA:1328,_ZNSt16allocator_traitsISaISt3mapINSt7__cxx1112basic_stringIcSt11char_traitsIcESaIcEEEN8nlohmann10basic_jsonIS0_St6vectorS6_blmdSaNS7_14adl_serializerEEESt4lessIvESaISt4pairIKS6_SB_EEEEE10deallocateERSJ_PSI_m
FNDA:20584,_ZNSt16allocator_traitsISaISt13_Rb_tree_nodeISt4pairIKNSt7__cxx1112basic_stringIcSt11char_traitsIcESaIcEEEN8nlohmann10basic_jsonISt3mapSt6vectorS7_blmdSaNS9_14adl_serializerEEEEEEE9constructISF_JRKSt21piecewise_construct_tSt5tupleIJRS8_EESN_IJEEEEEvRSH_PT_DpOT0_
FNDA:0,_ZNSt16allocator_traitsISaIN8nlohmann10basic_jsonISt3mapSt6vectorNSt7__cxx1112basic_stringIcSt11char_traitsIcESaIcEEEblmdSaNS0_14adl_serializerEEEEE9constructISB_JSB_EEEvRSC_PT_DpOT0_
FNDA:665,_ZNSt16allocator_traitsISaIPN8nlohmann10basic_jsonISt3mapSt6vectorNSt7__cxx1112basic_stringIcSt11char_traitsIcESaIcEEEblmdSaNS0_14adl_serializerEEEEE9constructISC_JSC_EEEvRSD_PT_DpOT0_
FNDA:664,_ZNSt16allocator_traitsISaIN8nlohmann10basic_jsonISt3mapSt6vectorNSt7__cxx1112basic_stringIcSt11char_traitsIcESaIcEEEblmdSaNS0_14adl_serializerEEEEE9constructISB_JNS0_6detail7value_tEEEEvRSC_PT_DpOT0_
FNDA:0,_ZNSt16allocator_traitsISaIN8nlohmann10basic_jsonISt3mapSt6vectorNSt7__cxx1112basic_stringIcSt11char_traitsIcESaIcEEEblmdSaNS0_14adl_serializerEEEEE9constructISB_JRS9_EEEvRSC_PT_DpOT0_
FNDA:0,_ZNSt16allocator_traitsISaIN8nlohmann10basic_jsonISt3mapSt6vectorNSt7__cxx1112basic_stringIcSt11char_traitsIcESaIcEEEblmdSaNS0_14adl_serializerEEEEE9constructISB_JRdEEEvRSC_PT_DpOT0_
FNDA:0,_ZNSt16allocator_traitsISaIN8nlohmann10basic_jsonISt3mapSt6vectorNSt7__cxx1112basic_stringIcSt11char_traitsIcESaIcEEEblmdSaNS0_14adl_serializerEEEEE9constructISB_JRmEEEvRSC_PT_DpOT0_
FNDA:0,_ZNSt16allocator_traitsISaIN8nlohmann10basic_jsonISt3mapSt6vectorNSt7__cxx1112basic_stringIcSt11char_traitsIcESaIcEEEblmdSaNS0_14adl_serializerEEEEE9constructISB_JRlEEEvRSC_PT_DpOT0_
FNDA:0,_ZNSt16allocator_traitsISaIN8nlohmann10basic_jsonISt3mapSt6vectorNSt7__cxx1112basic_stringIcSt11char_traitsIcESaIcEEEblmdSaNS0_14adl_serializerEEEEE9constructISB_JRbEEEvRSC_PT_DpOT0_
FNDA:0,_ZNSt16allocator_traitsISaIN8nlohmann10basic_jsonISt3mapSt6vectorNSt7__cxx1112basic_stringIcSt11char_traitsIcESaIcEEEblmdSaNS0_14adl_serializerEEEEE9constructISB_JDnEEEvRSC_PT_DpOT0_
FNDA:0,_ZNSt16allocator_traitsISaIPN8nlohmann10basic_jsonISt3mapSt6vectorNSt7__cxx1112basic_stringIcSt11char_traitsIcESaIcEEEblmdSaNS0_14adl_serializerEEEEE9constructISC_JRKSC_EEEvRSD_PT_DpOT0_
FNDA:20584,_ZNSt16allocator_traitsISaISt13_Rb_tree_nodeISt4pairIKNSt7__cxx1112basic_stringIcSt11char_traitsIcESaIcEEEN8nlohmann10basic_jsonISt3mapSt6vectorS7_blmdSaNS9_14adl_serializerEEEEEEE9constructISF_JRKSF_EEEvRSH_PT_DpOT0_
FNDA:861394,_ZNSt16allocator_traitsISaIcEE9constructIcJcEEEvRS0_PT_DpOT0_
FNDA:1,_ZNSt16allocator_traitsISaIN8nlohmann6detail20input_stream_adapterEEE9constructIS2_JRSiEEEvRS3_PT_DpOT0_
FNDA:0,_ZNSt16allocator_traitsISaINSt7__cxx1112basic_stringIcSt11char_traitsIcESaIcEEEEE9constructIS5_JRA1_KcEEEvRS6_PT_DpOT0_
FNDA:1,_ZNSt16allocator_traitsISaISt6vectorIN8nlohmann10basic_jsonISt3mapS0_NSt7__cxx1112basic_stringIcSt11char_traitsIcESaIcEEEblmdSaNS1_14adl_serializerEEESaISB_EEEE9constructISD_JEEEvRSE_PT_DpOT0_
FNDA:664,_ZNSt16allocator_traitsISaISt3mapINSt7__cxx1112basic_stringIcSt11char_traitsIcESaIcEEEN8nlohmann10basic_jsonIS0_St6vectorS6_blmdSaNS7_14adl_serializerEEESt4lessIvESaISt4pairIKS6_SB_EEEEE9constructISI_JEEEvRSJ_PT_DpOT0_
FNDA:0,_ZNSt16allocator_traitsISaISt6vectorIN8nlohmann10basic_jsonISt3mapS0_NSt7__cxx1112basic_stringIcSt11char_traitsIcESaIcEEEblmdSaNS1_14adl_serializerEEESaISB_EEEE9constructISD_JRKSD_EEEvRSE_PT_DpOT0_
FNDA:664,_ZNSt16allocator_traitsISaISt3mapINSt7__cxx1112basic_stringIcSt11char_traitsIcESaIcEEEN8nlohmann10basic_jsonIS0_St6vectorS6_blmdSaNS7_14adl_serializerEEESt4lessIvESaISt4pairIKS6_SB_EEEEE9constructISI_JRKSI_EEEvRSJ_PT_DpOT0_
FNDA:5312,_ZNSt16allocator_traitsISaINSt7__cxx1112basic_stringIcSt11char_traitsIcESaIcEEEEE9constructIS5_JRKS5_EEEvRS6_PT_DpOT0_
FNDA:1992,_ZNSt16allocator_traitsISaIdEE9constructIdJdEEEvRS0_PT_DpOT0_
FNDA:1328,_ZNSt16allocator_traitsISaIP6SensorEE9constructIS1_JS1_EEEvRS2_PT_DpOT0_
FNDA:0,_ZNSt16allocator_traitsISaIN8nlohmann10basic_jsonISt3mapSt6vectorNSt7__cxx1112basic_stringIcSt11char_traitsIcESaIcEEEblmdSaNS0_14adl_serializerEEEEE7destroyISB_EEvRSC_PT_
FNDA:665,_ZNSt16allocator_traitsISaIPN8nlohmann10basic_jsonISt3mapSt6vectorNSt7__cxx1112basic_stringIcSt11char_traitsIcESaIcEEEblmdSaNS0_14adl_serializerEEEEE7destroyISC_EEvRSD_PT_
FNDA:1,_ZNSt16allocator_traitsISaIN8nlohmann6detail20input_stream_adapterEEE7destroyIS2_EEvRS3_PT_
FNDA:41168,_ZNSt16allocator_traitsISaISt13_Rb_tree_nodeISt4pairIKNSt7__cxx1112basic_stringIcSt11char_traitsIcESaIcEEEN8nlohmann10basic_jsonISt3mapSt6vectorS7_blmdSaNS9_14adl_serializerEEEEEEE7destroyISF_EEvRSH_PT_
FNDA:17929,_ZNSt16allocator_traitsISaIcEE7destroyIcEEvRS0_PT_
FNDA:0,_ZNSt16allocator_traitsISaIdEE7destroyIdEEvRS0_PT_
FNDA:0,_ZNSt16allocator_traitsISaIP6SensorEE7destroyIS1_EEvRS2_PT_
FNDA:5312,_ZNSt16allocator_traitsISaINSt7__cxx1112basic_stringIcSt11char_traitsIcESaIcEEEEE7destroyIS5_EEvRS6_PT_
FNDA:1,_ZNSt16allocator_traitsISaISt6vectorIN8nlohmann10basic_jsonISt3mapS0_NSt7__cxx1112basic_stringIcSt11char_traitsIcESaIcEEEblmdSaNS1_14adl_serializerEEESaISB_EEEE7destroyISD_EEvRSE_PT_
FNDA:1328,_ZNSt16allocator_traitsISaISt3mapINSt7__cxx1112basic_stringIcSt11char_traitsIcESaIcEEEN8nlohmann10basic_jsonIS0_St6vectorS6_blmdSaNS7_14adl_serializerEEESt4lessIvESaISt4pairIKS6_SB_EEEEE7destroyISI_EEvRSJ_PT_
FNDA:4,_ZNSt16allocator_traitsISaIPN8nlohmann10basic_jsonISt3mapSt6vectorNSt7__cxx1112basic_stringIcSt11char_traitsIcESaIcEEEblmdSaNS0_14adl_serializerEEEEE8max_sizeERKSD_
FNDA:0,_ZNSt16allocator_traitsISaISt13_Rb_tree_nodeISt4pairIKNSt7__cxx1112basic_stringIcSt11char_traitsIcESaIcEEEN8nlohmann10basic_jsonISt3mapSt6vectorS7_blmdSaNS9_14adl_serializerEEEEEEE8max_sizeERKSH_
FNDA:22,_ZNSt16allocator_traitsISaIN8nlohmann10basic_jsonISt3mapSt6vectorNSt7__cxx1112basic_stringIcSt11char_traitsIcESaIcEEEblmdSaNS0_14adl_serializerEEEEE8max_sizeERKSC_
FNDA:2,_ZNSt16allocator_traitsISaImEE8max_sizeERKS0_
FNDA:66,_ZNSt16allocator_traitsISaIdEE8max_sizeERKS0_
FNDA:44,_ZNSt16allocator_traitsISaIP6SensorEE8max_sizeERKS2_
FNDA:14,_ZNSt16allocator_traitsISaIcEE8max_sizeERKS0_
FNDA:664,_ZNSt16allocator_traitsISaISt13_Rb_tree_nodeISt4pairIKNSt7__cxx1112basic_stringIcSt11char_traitsIcESaIcEEEN8nlohmann10basic_jsonISt3mapSt6vectorS7_blmdSaNS9_14adl_serializerEEEEEEE37select_on_container_copy_constructionERKSH_
FNDA:0,_ZNSt16allocator_traitsISaIN8nlohmann10basic_jsonISt3mapSt6vectorNSt7__cxx1112basic_stringIcSt11char_traitsIcESaIcEEEblmdSaNS0_14adl_serializerEEEEE37select_on_container_copy_constructionERKSC_
FNF:63
FNH:48
DA:435,47886
DA:436,47886
DA:461,47886
DA:462,47886
DA:474,913853
DA:475,913853
DA:486,66404
DA:487,66404
DA:495,152
DA:496,152
DA:504,664
DA:505,664
LF:12
LH:12
end_of_record
SF:/usr/include/c++/7/bits/allocated_ptr.h
FN:52,_ZNSt15__allocated_ptrISaISt23_Sp_counted_ptr_inplaceIN8nlohmann6detail20input_stream_adapterESaIS3_ELN9__gnu_cxx12_Lock_policyE2EEEEC2ERS8_PS7_
FN:70,_ZNSt15__allocated_ptrISaISt23_Sp_counted_ptr_inplaceIN8nlohmann6detail20input_stream_adapterESaIS3_ELN9__gnu_cxx12_Lock_policyE2EEEED2Ev
FN:78,_ZNSt15__allocated_ptrISaISt23_Sp_counted_ptr_inplaceIN8nlohmann6detail20input_stream_adapterESaIS3_ELN9__gnu_cxx12_Lock_policyE2EEEEaSEDn
FN:85,_ZNSt15__allocated_ptrISaISt23_Sp_counted_ptr_inplaceIN8nlohmann6detail20input_stream_adapterESaIS3_ELN9__gnu_cxx12_Lock_policyE2EEEE3getEv
FN:88,_ZNSt15__allocated_ptrISaISt23_Sp_counted_ptr_inplaceIN8nlohmann6detail20input_stream_adapterESaIS3_ELN9__gnu_cxx12_Lock_policyE2EEEE10_S_raw_ptrEPS7_
FN:102,_ZSt18__allocate_guardedISaISt23_Sp_counted_ptr_inplaceIN8nlohmann6detail20input_stream_adapterESaIS3_ELN9__gnu_cxx12_Lock_policyE2EEEESt15__allocated_ptrIT_ERSA_
FNDA:2,_ZNSt15__allocated_ptrISaISt23_Sp_counted_ptr_inplaceIN8nlohmann6detail20input_stream_adapterESaIS3_ELN9__gnu_cxx12_Lock_policyE2EEEEC2ERS8_PS7_
FNDA:2,_ZNSt15__allocated_ptrISaISt23_Sp_counted_ptr_inplaceIN8nlohmann6detail20input_stream_adapterESaIS3_ELN9__gnu_cxx12_Lock_policyE2EEEED2Ev
FNDA:1,_ZNSt15__allocated_ptrISaISt23_Sp_counted_ptr_inplaceIN8nlohmann6detail20input_stream_adapterESaIS3_ELN9__gnu_cxx12_Lock_policyE2EEEEaSEDn
FNDA:1,_ZNSt15__allocated_ptrISaISt23_Sp_counted_ptr_inplaceIN8nlohmann6detail20input_stream_adapterESaIS3_ELN9__gnu_cxx12_Lock_policyE2EEEE3getEv
FNDA:1,_ZNSt15__allocated_ptrISaISt23_Sp_counted_ptr_inplaceIN8nlohmann6detail20input_stream_adapterESaIS3_ELN9__gnu_cxx12_Lock_policyE2EEEE10_S_raw_ptrEPS7_
FNDA:1,_ZSt18__allocate_guardedISaISt23_Sp_counted_ptr_inplaceIN8nlohmann6detail20input_stream_adapterESaIS3_ELN9__gnu_cxx12_Lock_policyE2EEEESt15__allocated_ptrIT_ERSA_
FNF:6
FNH:6
DA:52,2
DA:53,2
DA:54,2
DA:70,2
DA:72,2
DA:73,1
DA:74,2
DA:78,1
DA:80,1
DA:81,1
DA:85,1
DA:88,1
DA:102,1
DA:104,1
LF:14
LH:14
end_of_record
SF:/usr/include/c++/7/bits/allocator.h
FN:131,_ZNSaISt6vectorIN8nlohmann10basic_jsonISt3mapS_NSt7__cxx1112basic_stringIcSt11char_traitsIcESaIcEEEblmdSaNS0_14adl_serializerEEESaISA_EEEC2Ev
FN:131,_ZNSaIPN8nlohmann10basic_jsonISt3mapSt6vectorNSt7__cxx1112basic_stringIcSt11char_traitsIcESaIcEEEblmdSaNS_14adl_serializerEEEEC2Ev
FN:131,_ZNSaISt3mapINSt7__cxx1112basic_stringIcSt11char_traitsIcESaIcEEEN8nlohmann10basic_jsonIS_St6vectorS5_blmdSaNS6_14adl_serializerEEESt4lessIvESaISt4pairIKS5_SA_EEEEC2Ev
FN:131,_ZNSaIP6SensorEC2Ev
FN:131,_ZNSaImEC2Ev
FN:131,_ZNSaIN8nlohmann6detail20input_stream_adapterEEC2Ev
FN:131,_ZNSaIdEC2Ev
FN:131,_ZNSaISt13_Rb_tree_nodeISt4pairIKNSt7__cxx1112basic_stringIcSt11char_traitsIcESaIcEEEN8nlohmann10basic_jsonISt3mapSt6vectorS6_blmdSaNS8_14adl_serializerEEEEEEC2Ev
FN:131,_ZNSaINSt7__cxx1112basic_stringIcSt11char_traitsIcESaIcEEEEC2Ev
FN:131,_ZNSaIN8nlohmann10basic_jsonISt3mapSt6vectorNSt7__cxx1112basic_stringIcSt11char_traitsIcESaIcEEEblmdSaNS_14adl_serializerEEEEC2Ev
FN:133,_ZNSaISt13_Rb_tree_nodeISt4pairIKNSt7__cxx1112basic_stringIcSt11char_traitsIcESaIcEEEN8nlohmann10basic_jsonISt3mapSt6vectorS6_blmdSaNS8_14adl_serializerEEEEEEC2ERKSG_
FN:133,_ZNSaIN8nlohmann10basic_jsonISt3mapSt6vectorNSt7__cxx1112basic_stringIcSt11char_traitsIcESaIcEEEblmdSaNS_14adl_serializerEEEEC2ERKSB_
FN:133,_ZNSaIN8nlohmann6detail20input_stream_adapterEEC2ERKS2_
FN:137,_ZNSaISt23_Sp_counted_ptr_inplaceIN8nlohmann6detail20input_stream_adapterESaIS2_ELN9__gnu_cxx12_Lock_policyE2EEEC2IS2_EERKSaIT_E
FN:139,_ZNSaISt23_Sp_counted_ptr_inplaceIN8nlohmann6detail20input_stream_adapterESaIS2_ELN9__gnu_cxx12_Lock_policyE2EEED2Ev
FN:139,_ZNSaIN8nlohmann10basic_jsonISt3mapSt6vectorNSt7__cxx1112basic_stringIcSt11char_traitsIcESaIcEEEblmdSaNS_14adl_serializerEEEED2Ev
FN:139,_ZNSaIdED2Ev
FN:139,_ZNSaINSt7__cxx1112basic_stringIcSt11char_traitsIcESaIcEEEED2Ev
FN:139,_ZNSaIP6SensorED2Ev
FN:139,_ZNSaISt13_Rb_tree_nodeISt4pairIKNSt7__cxx1112basic_stringIcSt11char_traitsIcESaIcEEEN8nlohmann10basic_jsonISt3mapSt6vectorS6_blmdSaNS8_14adl_serializerEEEEEED2Ev
FN:139,_ZNSaISt3mapINSt7__cxx1112basic_stringIcSt11char_traitsIcESaIcEEEN8nlohmann10basic_jsonIS_St6vectorS5_blmdSaNS6_14adl_serializerEEESt4lessIvESaISt4pairIKS5_SA_EEEED2Ev
FN:139,_ZNSaISt6vectorIN8nlohmann10basic_jsonISt3mapS_NSt7__cxx1112basic_stringIcSt11char_traitsIcESaIcEEEblmdSaNS0_14adl_serializerEEESaISA_EEED2Ev
FN:139,_ZNSaIN8nlohmann6detail20input_stream_adapterEED2Ev
FN:139,_ZNSaIPN8nlohmann10basic_jsonISt3mapSt6vectorNSt7__cxx1112basic_stringIcSt11char_traitsIcESaIcEEEblmdSaNS_14adl_serializerEEEED2Ev
FN:139,_ZNSaImED2Ev
FNDA:1,_ZNSaIN8nlohmann10basic_jsonISt3mapSt6vectorNSt7__cxx1112basic_stringIcSt11char_traitsIcESaIcEEEblmdSaNS_14adl_serializerEEEEC2Ev
FNDA:664,_ZNSaISt13_Rb_tree_nodeISt4pairIKNSt7__cxx1112basic_stringIcSt11char_traitsIcESaIcEEEN8nlohmann10basic_jsonISt3mapSt6vectorS6_blmdSaNS8_14adl_serializerEEEEEEC2Ev
FNDA:1,_ZNSaImEC2Ev
FNDA:1,_ZNSaIPN8nlohmann10basic_jsonISt3mapSt6vectorNSt7__cxx1112basic_stringIcSt11char_traitsIcESaIcEEEblmdSaNS_14adl_serializerEEEEC2Ev
FNDA:3,_ZNSaIdEC2Ev
FNDA:2,_ZNSaIP6SensorEC2Ev
FNDA:10624,_ZNSaINSt7__cxx1112basic_stringIcSt11char_traitsIcESaIcEEEEC2Ev
FNDA:2,_ZNSaISt6vectorIN8nlohmann10basic_jsonISt3mapS_NSt7__cxx1112basic_stringIcSt11char_traitsIcESaIcEEEblmdSaNS0_14adl_serializerEEESaISA_EEEC2Ev
FNDA:2656,_ZNSaISt3mapINSt7__cxx1112basic_stringIcSt11char_traitsIcESaIcEEEN8nlohmann10basic_jsonIS_St6vectorS5_blmdSaNS6_14adl_serializerEEESt4lessIvESaISt4pairIKS5_SA_EEEEC2Ev
FNDA:1,_ZNSaIN8nlohmann6detail20input_stream_adapterEEC2Ev
FNDA:0,_ZNSaIN8nlohmann10basic_jsonISt3mapSt6vectorNSt7__cxx1112basic_stringIcSt11char_traitsIcESaIcEEEblmdSaNS_14adl_serializerEEEEC2ERKSB_
FNDA:664,_ZNSaISt13_Rb_tree_nodeISt4pairIKNSt7__cxx1112basic_stringIcSt11char_traitsIcESaIcEEEN8nlohmann10basic_jsonISt3mapSt6vectorS6_blmdSaNS8_14adl_serializerEEEEEEC2ERKSG_
FNDA:3,_ZNSaIN8nlohmann6detail20input_stream_adapterEEC2ERKS2_
FNDA:2,_ZNSaISt23_Sp_counted_ptr_inplaceIN8nlohmann6detail20input_stream_adapterESaIS2_ELN9__gnu_cxx12_Lock_policyE2EEEC2IS2_EERKSaIT_E
FNDA:1,_ZNSaIN8nlohmann10basic_jsonISt3mapSt6vectorNSt7__cxx1112basic_stringIcSt11char_traitsIcESaIcEEEblmdSaNS_14adl_serializerEEEED2Ev
FNDA:1328,_ZNSaISt13_Rb_tree_nodeISt4pairIKNSt7__cxx1112basic_stringIcSt11char_traitsIcESaIcEEEN8nlohmann10basic_jsonISt3mapSt6vectorS6_blmdSaNS8_14adl_serializerEEEEEED2Ev
FNDA:2,_ZNSaISt23_Sp_counted_ptr_inplaceIN8nlohmann6detail20input_stream_adapterESaIS2_ELN9__gnu_cxx12_Lock_policyE2EEED2Ev
FNDA:1,_ZNSaImED2Ev
FNDA:1,_ZNSaIPN8nlohmann10basic_jsonISt3mapSt6vectorNSt7__cxx1112basic_stringIcSt11char_traitsIcESaIcEEEblmdSaNS_14adl_serializerEEEED2Ev
FNDA:3,_ZNSaIdED2Ev
FNDA:2,_ZNSaIP6SensorED2Ev
FNDA:10624,_ZNSaINSt7__cxx1112basic_stringIcSt11char_traitsIcESaIcEEEED2Ev
FNDA:2,_ZNSaISt6vectorIN8nlohmann10basic_jsonISt3mapS_NSt7__cxx1112basic_stringIcSt11char_traitsIcESaIcEEEblmdSaNS0_14adl_serializerEEESaISA_EEED2Ev
FNDA:2656,_ZNSaISt3mapINSt7__cxx1112basic_stringIcSt11char_traitsIcESaIcEEEN8nlohmann10basic_jsonIS_St6vectorS5_blmdSaNS6_14adl_serializerEEESt4lessIvESaISt4pairIKS5_SA_EEEED2Ev
FNDA:4,_ZNSaIN8nlohmann6detail20input_stream_adapterEED2Ev
FNF:25
FNH:24
DA:131,13955
DA:133,667
DA:134,667
DA:137,2
DA:139,14624
LF:5
LH:5
end_of_record
SF:/usr/include/c++/7/bits/basic_string.h
FN:139,_ZNSt7__cxx1112basic_stringIcSt11char_traitsIcESaIcEE12_Alloc_hiderD2Ev
FN:232,_ZNSt7__cxx1112basic_stringIcSt11char_traitsIcESaIcEE16_M_construct_auxIPcEEvT_S7_St12__false_type
FN:252,_ZNSt7__cxx1112basic_stringIcSt11char_traitsIcESaIcEE12_M_constructIPcEEvT_S7_
FN:604,_ZNSt7__cxx1112basic_stringIcSt11char_traitsIcESaIcEEC2IPcvEET_S7_RKS3_
FN:5941,_ZStplIcSt11char_traitsIcESaIcEENSt7__cxx1112basic_stringIT_T0_T1_EEOS8_RKS8_
FN:5953,_ZStplIcSt11char_traitsIcESaIcEENSt7__cxx1112basic_stringIT_T0_T1_EEOS8_S9_
FN:5965,_ZStplIcSt11char_traitsIcESaIcEENSt7__cxx1112basic_stringIT_T0_T1_EEPKS5_OS8_
FN:5977,_ZStplIcSt11char_traitsIcESaIcEENSt7__cxx1112basic_stringIT_T0_T1_EEOS8_PKS5_
FN:6082,_ZStltIcSt11char_traitsIcESaIcEEbRKNSt7__cxx1112basic_stringIT_T0_T1_EESA_
FN:6402,_ZNSt7__cxx119to_stringEi
FN:6418,_ZNSt7__cxx119to_stringEm
FNDA:0,_ZNSt7__cxx1112basic_stringIcSt11char_traitsIcESaIcEE12_Alloc_hiderD2Ev
FNDA:0,_ZNSt7__cxx1112basic_stringIcSt11char_traitsIcESaIcEE16_M_construct_auxIPcEEvT_S7_St12__false_type
FNDA:0,_ZNSt7__cxx1112basic_stringIcSt11char_traitsIcESaIcEE12_M_constructIPcEEvT_S7_
FNDA:0,_ZNSt7__cxx1112basic_stringIcSt11char_traitsIcESaIcEEC2IPcvEET_S7_RKS3_
FNDA:0,_ZStplIcSt11char_traitsIcESaIcEENSt7__cxx1112basic_stringIT_T0_T1_EEOS8_RKS8_
FNDA:0,_ZStplIcSt11char_traitsIcESaIcEENSt7__cxx1112basic_stringIT_T0_T1_EEOS8_S9_
FNDA:0,_ZStplIcSt11char_traitsIcESaIcEENSt7__cxx1112basic_stringIT_T0_T1_EEPKS5_OS8_
FNDA:0,_ZStplIcSt11char_traitsIcESaIcEENSt7__cxx1112basic_stringIT_T0_T1_EEOS8_PKS5_
FNDA:173304,_ZStltIcSt11char_traitsIcESaIcEEbRKNSt7__cxx1112basic_stringIT_T0_T1_EESA_
FNDA:0,_ZNSt7__cxx119to_stringEi
FNDA:0,_ZNSt7__cxx119to_stringEm
FNF:11
FNH:1
DA:139,0
DA:232,0
DA:236,0
DA:237,0
DA:252,0
DA:255,0
DA:256,0
DA:604,0
DA:606,0
DA:607,0
DA:5941,0
DA:5943,0
DA:5953,0
DA:5956,0
DA:5957,0
DA:5958,0
DA:5959,0
DA:5960,0
DA:5965,0
DA:5967,0
DA:5977,0
DA:5979,0
DA:6082,173304
DA:6085,173304
DA:6402,0
DA:6404,0
DA:6418,0
DA:6421,0
LF:28
LH:2
end_of_record
SF:/usr/include/c++/7/bits/basic_string.tcc
FN:206,_ZNSt7__cxx1112basic_stringIcSt11char_traitsIcESaIcEE12_M_constructIPcEEvT_S7_St20forward_iterator_tag
FN:1157,_ZStplIcSt11char_traitsIcESaIcEENSt7__cxx1112basic_stringIT_T0_T1_EEPKS5_RKS8_
FNDA:49136,_ZNSt7__cxx1112basic_stringIcSt11char_traitsIcESaIcEE12_M_constructIPcEEvT_S7_St20forward_iterator_tag
FNDA:0,_ZStplIcSt11char_traitsIcESaIcEENSt7__cxx1112basic_stringIT_T0_T1_EEPKS5_RKS8_
FNF:2
FNH:1
DA:206,49136
DA:211,49136
DA:212,0
DA:215,49136
DA:217,49136
DA:219,41168
DA:220,41168
DA:225,49136
DA:226,0
DA:228,0
DA:229,0
DA:232,49136
DA:233,49136
DA:1157,0
DA:1163,0
DA:1164,0
DA:1165,0
DA:1166,0
DA:1167,0
DA:1168,0
LF:20
LH:9
end_of_record
SF:/usr/include/c++/7/bits/char_traits.h
FN:314,_ZNSt11char_traitsIcE6lengthEPKc
FN:362,_ZNSt11char_traitsIcE12to_char_typeERKi
FN:376,_ZNSt11char_traitsIcE3eofEv
FNDA:0,_ZNSt11char_traitsIcE6lengthEPKc
FNDA:1447225,_ZNSt11char_traitsIcE12to_char_typeERKi
FNDA:838157,_ZNSt11char_traitsIcE3eofEv
FNF:3
FNH:2
DA:314,0
DA:320,0
DA:362,1447225
DA:363,1447225
DA:376,838157
DA:377,838157
LF:6
LH:4
end_of_record
SF:/usr/include/c++/7/bits/cpp_type_traits.h
FN:408,_ZSt12__miter_baseIN9__gnu_cxx17__normal_iteratorIPN8nlohmann10basic_jsonISt3mapSt6vectorNSt7__cxx1112basic_stringIcSt11char_traitsIcESaIcEEEblmdSaNS2_14adl_serializerEEES5_ISD_SaISD_EEEEET_SI_
FN:408,_ZSt12__miter_baseIPdET_S1_
FN:408,_ZSt12__miter_baseISt13_Bit_iteratorET_S1_
FN:408,_ZSt12__miter_baseIPmET_S1_
FN:408,_ZSt12__miter_baseIPcET_S1_
FN:408,_ZSt12__miter_baseIPP6SensorET_S3_
FN:408,_ZSt12__miter_baseIPPN8nlohmann10basic_jsonISt3mapSt6vectorNSt7__cxx1112basic_stringIcSt11char_traitsIcESaIcEEEblmdSaNS0_14adl_serializerEEEET_SE_
FN:408,_ZSt12__miter_baseISt19_Bit_const_iteratorET_S1_
FNDA:8,_ZSt12__miter_baseIPPN8nlohmann10basic_jsonISt3mapSt6vectorNSt7__cxx1112basic_stringIcSt11char_traitsIcESaIcEEEblmdSaNS0_14adl_serializerEEEET_SE_
FNDA:0,_ZSt12__miter_baseIN9__gnu_cxx17__normal_iteratorIPN8nlohmann10basic_jsonISt3mapSt6vectorNSt7__cxx1112basic_stringIcSt11char_traitsIcESaIcEEEblmdSaNS2_14adl_serializerEEES5_ISD_SaISD_EEEEET_SI_
FNDA:28,_ZSt12__miter_baseIPcET_S1_
FNDA:132,_ZSt12__miter_baseIPdET_S1_
FNDA:88,_ZSt12__miter_baseIPP6SensorET_S3_
FNDA:2,_ZSt12__miter_baseISt19_Bit_const_iteratorET_S1_
FNDA:2,_ZSt12__miter_baseIPmET_S1_
FNDA:2,_ZSt12__miter_baseISt13_Bit_iteratorET_S1_
FNF:8
FNH:7
DA:408,262
DA:409,262
LF:2
LH:2
end_of_record
SF:/usr/include/c++/7/bits/exception.h
FN:60,_ZNSt9exceptionC2ERKS_
FN:63,_ZNSt9exceptionC2Ev
FNDA:0,_ZNSt9exceptionC2ERKS_
FNDA:0,_ZNSt9exceptionC2Ev
FNF:2
FNH:0
DA:60,0
DA:63,0
LF:2
LH:0
end_of_record
SF:/usr/include/c++/7/bits/move.h
FN:47,_ZSt11__addressofIN8nlohmann10basic_jsonISt3mapSt6vectorNSt7__cxx1112basic_stringIcSt11char_traitsIcESaIcEEEblmdSaNS0_14adl_serializerEEEEPT_RSC_
FN:47,_ZSt11__addressofISaISt23_Sp_counted_ptr_inplaceIN8nlohmann6detail20input_stream_adapterESaIS3_ELN9__gnu_cxx12_Lock_policyE2EEEEPT_RS9_
FN:47,_ZSt11__addressofImEPT_RS0_
FN:73,_ZSt7forwardIRPSt13_Rb_tree_nodeISt4pairIKNSt7__cxx1112basic_stringIcSt11char_traitsIcESaIcEEEN8nlohmann10basic_jsonISt3mapSt6vectorS7_blmdSaNS9_14adl_serializerEEEEEEOT_RNSt16remove_referenceISJ_E4typeE
FN:73,_ZSt7forwardIRA1_KcEOT_RNSt16remove_referenceIS3_E4typeE
FN:73,_ZSt7forwardIRPN8nlohmann10basic_jsonISt3mapSt6vectorNSt7__cxx1112basic_stringIcSt11char_traitsIcESaIcEEEblmdSaNS0_14adl_serializerEEEEOT_RNSt16remove_referenceISE_E4typeE
FN:73,_ZSt7forwardIRKZN8nlohmann10basic_jsonISt3mapSt6vectorNSt7__cxx1112basic_stringIcSt11char_traitsIcESaIcEEEblmdSaNS0_14adl_serializerEE6createIS2_IS9_SB_St4lessIvESaISt4pairIKS9_SB_EEEJEEEPT_DpOT0_EUlPSJ_E_EOSK_RNSt16remove_referenceISK_E4typeE
FN:73,_ZSt7forwardIRKNSt7__cxx1112basic_stringIcSt11char_traitsIcESaIcEEEEOT_RNSt16remove_referenceIS8_E4typeE
FN:73,_ZSt7forwardIRPSt6vectorIN8nlohmann10basic_jsonISt3mapS0_NSt7__cxx1112basic_stringIcSt11char_traitsIcESaIcEEEblmdSaNS1_14adl_serializerEEESaISB_EEEOT_RNSt16remove_referenceISG_E4typeE
FN:73,_ZSt7forwardIcEOT_RNSt16remove_referenceIS0_E4typeE
FN:73,_ZSt7forwardIiEOT_RNSt16remove_referenceIS0_E4typeE
FN:73,_ZSt7forwardIRlEOT_RNSt16remove_referenceIS1_E4typeE
FN:73,_ZSt7forwardIRbEOT_RNSt16remove_referenceIS1_E4typeE
FN:73,_ZSt7forwardIPN8nlohmann10basic_jsonISt3mapSt6vectorNSt7__cxx1112basic_stringIcSt11char_traitsIcESaIcEEEblmdSaNS0_14adl_serializerEEEEOT_RNSt16remove_referenceISD_E4typeE
FN:73,_ZSt7forwardIRmEOT_RNSt16remove_referenceIS1_E4typeE
FN:73,_ZSt7forwardIRPSt18_Rb_tree_node_baseEOT_RNSt16remove_referenceIS3_E4typeE
FN:73,_ZSt7forwardIRKN8nlohmann10basic_jsonISt3mapSt6vectorNSt7__cxx1112basic_stringIcSt11char_traitsIcESaIcEEEblmdSaNS0_14adl_serializerEEEEOT_RNSt16remove_referenceISE_E4typeE
FN:73,_ZSt7forwardIDnEOT_RNSt16remove_referenceIS0_E4typeE
FN:73,_ZSt7forwardIRKZN8nlohmann10basic_jsonISt3mapSt6vectorNSt7__cxx1112basic_stringIcSt11char_traitsIcESaIcEEEblmdSaNS0_14adl_serializerEE6createIS2_IS9_SB_St4lessIvESaISt4pairIKS9_SB_EEEJRKSJ_EEEPT_DpOT0_EUlPSJ_E_EOSM_RNSt16remove_referenceISM_E4typeE
FN:73,_ZSt7forwardIRKSt4pairIKNSt7__cxx1112basic_stringIcSt11char_traitsIcESaIcEEEN8nlohmann10basic_jsonISt3mapSt6vectorS6_blmdSaNS8_14adl_serializerEEEEEOT_RNSt16remove_referenceISH_E4typeE
FN:73,_ZSt7forwardIRKSt3mapINSt7__cxx1112basic_stringIcSt11char_traitsIcESaIcEEEN8nlohmann10basic_jsonIS0_St6vectorS6_blmdSaNS7_14adl_serializerEEESt4lessIvESaISt4pairIKS6_SB_EEEEOT_RNSt16remove_referenceISL_E4typeE
FN:73,_ZSt7forwardISt5tupleIJEEEOT_RNSt16remove_referenceIS2_E4typeE
FN:73,_ZSt7forwardIRKZN8nlohmann10basic_jsonISt3mapSt6vectorNSt7__cxx1112basic_stringIcSt11char_traitsIcESaIcEEEblmdSaNS0_14adl_serializerEE6createIS3_ISB_SaISB_EEJEEEPT_DpOT0_EUlPSE_E_EOSF_RNSt16remove_referenceISF_E4typeE
FN:73,_ZSt7forwardIbEOT_RNSt16remove_referenceIS0_E4typeE
FN:73,_ZSt7forwardIRKZN8nlohmann10basic_jsonISt3mapSt6vectorNSt7__cxx1112basic_stringIcSt11char_traitsIcESaIcEEEblmdSaNS0_14adl_serializerEE6createIS9_JRA1_KcEEEPT_DpOT0_EUlPS9_E_EOSG_RNSt16remove_referenceISG_E4typeE
FN:73,_ZSt7forwardIRKPN8nlohmann10basic_jsonISt3mapSt6vectorNSt7__cxx1112basic_stringIcSt11char_traitsIcESaIcEEEblmdSaNS0_14adl_serializerEEEEOT_RNSt16remove_referenceISF_E4typeE
FN:73,_ZSt7forwardIRSiEOT_RNSt16remove_referenceIS1_E4typeE
FN:73,_ZSt7forwardIP6SensorEOT_RNSt16remove_referenceIS2_E4typeE
FN:73,_ZSt7forwardIRdEOT_RNSt16remove_referenceIS1_E4typeE
FN:73,_ZSt7forwardIN8nlohmann10basic_jsonISt3mapSt6vectorNSt7__cxx1112basic_stringIcSt11char_traitsIcESaIcEEEblmdSaNS0_14adl_serializerEEEEOT_RNSt16remove_referenceISC_E4typeE
FN:73,_ZSt7forwardIRN8nlohmann10basic_jsonISt3mapSt6vectorNSt7__cxx1112basic_stringIcSt11char_traitsIcESaIcEEEblmdSaNS0_14adl_serializerEEEEOT_RNSt16remove_referenceISD_E4typeE
FN:73,_ZSt7forwardIN8nlohmann6detail7value_tEEOT_RNSt16remove_referenceIS3_E4typeE
FN:73,_ZSt7forwardIRNSt7__cxx1112basic_stringIcSt11char_traitsIcESaIcEEEEOT_RNSt16remove_referenceIS7_E4typeE
FN:73,_ZSt7forwardIdEOT_RNSt16remove_referenceIS0_E4typeE
FN:73,_ZSt7forwardIRPSt3mapINSt7__cxx1112basic_stringIcSt11char_traitsIcESaIcEEEN8nlohmann10basic_jsonIS0_St6vectorS6_blmdSaNS7_14adl_serializerEEESt4lessIvESaISt4pairIKS6_SB_EEEEOT_RNSt16remove_referenceISL_E4typeE
FN:73,_ZSt7forwardIRPNSt7__cxx1112basic_stringIcSt11char_traitsIcESaIcEEEEOT_RNSt16remove_referenceIS8_E4typeE
FN:73,_ZSt7forwardIRKSt6vectorIN8nlohmann10basic_jsonISt3mapS0_NSt7__cxx1112basic_stringIcSt11char_traitsIcESaIcEEEblmdSaNS1_14adl_serializerEEESaISB_EEEOT_RNSt16remove_referenceISG_E4typeE
FN:73,_ZSt7forwardIRKZN8nlohmann10basic_jsonISt3mapSt6vectorNSt7__cxx1112basic_stringIcSt11char_traitsIcESaIcEEEblmdSaNS0_14adl_serializerEE6createIS9_JRKS9_EEEPT_DpOT0_EUlPS9_E_EOSF_RNSt16remove_referenceISF_E4typeE
FN:73,_ZSt7forwardIRKZN8nlohmann10basic_jsonISt3mapSt6vectorNSt7__cxx1112basic_stringIcSt11char_traitsIcESaIcEEEblmdSaNS0_14adl_serializerEE6createIS3_ISB_SaISB_EEJRKSE_EEEPT_DpOT0_EUlPSE_E_EOSH_RNSt16remove_referenceISH_E4typeE
FN:73,_ZSt7forwardIRKSt21piecewise_construct_tEOT_RNSt16remove_referenceIS3_E4typeE
FN:73,_ZSt7forwardISt5tupleIJRKNSt7__cxx1112basic_stringIcSt11char_traitsIcESaIcEEEEEEOT_RNSt16remove_referenceISA_E4typeE
FN:73,_ZSt7forwardIN8nlohmann6detail6parserINS0_10basic_jsonISt3mapSt6vectorNSt7__cxx1112basic_stringIcSt11char_traitsIcESaIcEEEblmdSaNS0_14adl_serializerEEEE13parse_event_tEEOT_RNSt16remove_referenceISG_E4typeE
FN:98,_ZSt4moveIRSt10shared_ptrIN8nlohmann6detail20input_stream_adapterEEEONSt16remove_referenceIT_E4typeEOS7_
FN:98,_ZSt4moveIRdEONSt16remove_referenceIT_E4typeEOS2_
FN:98,_ZSt4moveIRSt10shared_ptrIN8nlohmann6detail22input_adapter_protocolEEEONSt16remove_referenceIT_E4typeEOS7_
FN:98,_ZSt4moveIRNSt7__cxx1112basic_stringIcSt11char_traitsIcESaIcEEEEONSt16remove_referenceIT_E4typeEOS8_
FN:98,_ZSt4moveIRP6SensorEONSt16remove_referenceIT_E4typeEOS4_
FN:98,_ZSt4moveIRcEONSt16remove_referenceIT_E4typeEOS2_
FN:98,_ZSt4moveIRN8nlohmann10basic_jsonISt3mapSt6vectorNSt7__cxx1112basic_stringIcSt11char_traitsIcESaIcEEEblmdSaNS0_14adl_serializerEEEEONSt16remove_referenceIT_E4typeEOSE_
FN:98,_ZSt4moveIRPN8nlohmann10basic_jsonISt3mapSt6vectorNSt7__cxx1112basic_stringIcSt11char_traitsIcESaIcEEEblmdSaNS0_14adl_serializerEEEEONSt16remove_referenceIT_E4typeEOSF_
FN:98,_ZSt4moveIRN8nlohmann10basic_jsonISt3mapSt6vectorNSt7__cxx1112basic_stringIcSt11char_traitsIcESaIcEEEblmdSaNS0_14adl_serializerEE10json_valueEEONSt16remove_referenceIT_E4typeEOSF_
FN:98,_ZSt4moveIRKSaIN8nlohmann6detail20input_stream_adapterEEEONSt16remove_referenceIT_E4typeEOS7_
FN:98,_ZSt4moveIRN8nlohmann6detail7value_tEEONSt16remove_referenceIT_E4typeEOS5_
FN:187,_ZSt4swapIN8nlohmann6detail7value_tEENSt9enable_ifIXsrSt6__and_IJSt6__not_ISt15__is_tuple_likeIT_EESt21is_move_constructibleIS7_ESt18is_move_assignableIS7_EEE5valueEvE4typeERS7_SH_
FN:187,_ZSt4swapIN8nlohmann10basic_jsonISt3mapSt6vectorNSt7__cxx1112basic_stringIcSt11char_traitsIcESaIcEEEblmdSaNS0_14adl_serializerEE10json_valueEENSt9enable_ifIXsrSt6__and_IJSt6__not_ISt15__is_tuple_likeIT_EESt21is_move_constructibleISH_ESt18is_move_assignableISH_EEE5valueEvE4typeERSH_SR_
FNDA:2710,_ZSt11__addressofIN8nlohmann10basic_jsonISt3mapSt6vectorNSt7__cxx1112basic_stringIcSt11char_traitsIcESaIcEEEblmdSaNS0_14adl_serializerEEEEPT_RSC_
FNDA:2,_ZSt11__addressofISaISt23_Sp_counted_ptr_inplaceIN8nlohmann6detail20input_stream_adapterESaIS3_ELN9__gnu_cxx12_Lock_policyE2EEEEPT_RS9_
FNDA:666,_ZSt11__addressofImEPT_RS0_
FNDA:664,_ZSt7forwardIRPSt13_Rb_tree_nodeISt4pairIKNSt7__cxx1112basic_stringIcSt11char_traitsIcESaIcEEEN8nlohmann10basic_jsonISt3mapSt6vectorS7_blmdSaNS9_14adl_serializerEEEEEEOT_RNSt16remove_referenceISJ_E4typeE
FNDA:0,_ZSt7forwardIRPN8nlohmann10basic_jsonISt3mapSt6vectorNSt7__cxx1112basic_stringIcSt11char_traitsIcESaIcEEEblmdSaNS0_14adl_serializerEEEEOT_RNSt16remove_referenceISE_E4typeE
FNDA:23246,_ZSt7forwardIRPSt18_Rb_tree_node_baseEOT_RNSt16remove_referenceIS3_E4typeE
FNDA:0,_ZSt7forwardIRKPN8nlohmann10basic_jsonISt3mapSt6vectorNSt7__cxx1112basic_stringIcSt11char_traitsIcESaIcEEEblmdSaNS0_14adl_serializerEEEEOT_RNSt16remove_referenceISF_E4typeE
FNDA:0,_ZSt7forwardIRN8nlohmann10basic_jsonISt3mapSt6vectorNSt7__cxx1112basic_stringIcSt11char_traitsIcESaIcEEEblmdSaNS0_14adl_serializerEEEEOT_RNSt16remove_referenceISD_E4typeE
FNDA:0,_ZSt7forwardIN8nlohmann6detail6parserINS0_10basic_jsonISt3mapSt6vectorNSt7__cxx1112basic_stringIcSt11char_traitsIcESaIcEEEblmdSaNS0_14adl_serializerEEEE13parse_event_tEEOT_RNSt16remove_referenceISG_E4typeE
FNDA:102950,_ZSt7forwardISt5tupleIJEEEOT_RNSt16remove_referenceIS2_E4typeE
FNDA:102920,_ZSt7forwardISt5tupleIJRKNSt7__cxx1112basic_stringIcSt11char_traitsIcESaIcEEEEEEOT_RNSt16remove_referenceISA_E4typeE
FNDA:102950,_ZSt7forwardIRKSt21piecewise_construct_tEOT_RNSt16remove_referenceIS3_E4typeE
FNDA:1997,_ZSt7forwardIPN8nlohmann10basic_jsonISt3mapSt6vectorNSt7__cxx1112basic_stringIcSt11char_traitsIcESaIcEEEblmdSaNS0_14adl_serializerEEEEOT_RNSt16remove_referenceISD_E4typeE
FNDA:82375,_ZSt7forwardIRdEOT_RNSt16remove_referenceIS1_E4typeE
FNDA:6900,_ZSt7forwardIRmEOT_RNSt16remove_referenceIS1_E4typeE
FNDA:365,_ZSt7forwardIRlEOT_RNSt16remove_referenceIS1_E4typeE
FNDA:0,_ZSt7forwardIRbEOT_RNSt16remove_referenceIS1_E4typeE
FNDA:102920,_ZSt7forwardIRKSt4pairIKNSt7__cxx1112basic_stringIcSt11char_traitsIcESaIcEEEN8nlohmann10basic_jsonISt3mapSt6vectorS6_blmdSaNS8_14adl_serializerEEEEEOT_RNSt16remove_referenceISH_E4typeE
FNDA:0,_ZSt7forwardIRKZN8nlohmann10basic_jsonISt3mapSt6vectorNSt7__cxx1112basic_stringIcSt11char_traitsIcESaIcEEEblmdSaNS0_14adl_serializerEE6createIS9_JRA1_KcEEEPT_DpOT0_EUlPS9_E_EOSG_RNSt16remove_referenceISG_E4typeE
FNDA:3,_ZSt7forwardIRKZN8nlohmann10basic_jsonISt3mapSt6vectorNSt7__cxx1112basic_stringIcSt11char_traitsIcESaIcEEEblmdSaNS0_14adl_serializerEE6createIS3_ISB_SaISB_EEJEEEPT_DpOT0_EUlPSE_E_EOSF_RNSt16remove_referenceISF_E4typeE
FNDA:1992,_ZSt7forwardIRKZN8nlohmann10basic_jsonISt3mapSt6vectorNSt7__cxx1112basic_stringIcSt11char_traitsIcESaIcEEEblmdSaNS0_14adl_serializerEE6createIS2_IS9_SB_St4lessIvESaISt4pairIKS9_SB_EEEJEEEPT_DpOT0_EUlPSJ_E_EOSK_RNSt16remove_referenceISK_E4typeE
FNDA:15936,_ZSt7forwardIRPNSt7__cxx1112basic_stringIcSt11char_traitsIcESaIcEEEEOT_RNSt16remove_referenceIS8_E4typeE
FNDA:3,_ZSt7forwardIRPSt6vectorIN8nlohmann10basic_jsonISt3mapS0_NSt7__cxx1112basic_stringIcSt11char_traitsIcESaIcEEEblmdSaNS1_14adl_serializerEEESaISB_EEEOT_RNSt16remove_referenceISG_E4typeE
FNDA:3984,_ZSt7forwardIRPSt3mapINSt7__cxx1112basic_stringIcSt11char_traitsIcESaIcEEEN8nlohmann10basic_jsonIS0_St6vectorS6_blmdSaNS7_14adl_serializerEEESt4lessIvESaISt4pairIKS6_SB_EEEEOT_RNSt16remove_referenceISL_E4typeE
FNDA:15936,_ZSt7forwardIRKZN8nlohmann10basic_jsonISt3mapSt6vectorNSt7__cxx1112basic_stringIcSt11char_traitsIcESaIcEEEblmdSaNS0_14adl_serializerEE6createIS9_JRKS9_EEEPT_DpOT0_EUlPS9_E_EOSF_RNSt16remove_referenceISF_E4typeE
FNDA:0,_ZSt7forwardIRKZN8nlohmann10basic_jsonISt3mapSt6vectorNSt7__cxx1112basic_stringIcSt11char_traitsIcESaIcEEEblmdSaNS0_14adl_serializerEE6createIS3_ISB_SaISB_EEJRKSE_EEEPT_DpOT0_EUlPSE_E_EOSH_RNSt16remove_referenceISH_E4typeE
FNDA:1992,_ZSt7forwardIRKZN8nlohmann10basic_jsonISt3mapSt6vectorNSt7__cxx1112basic_stringIcSt11char_traitsIcESaIcEEEblmdSaNS0_14adl_serializerEE6createIS2_IS9_SB_St4lessIvESaISt4pairIKS9_SB_EEEJRKSJ_EEEPT_DpOT0_EUlPSJ_E_EOSM_RNSt16remove_referenceISM_E4typeE
FNDA:0,_ZSt7forwardIRA1_KcEOT_RNSt16remove_referenceIS3_E4typeE
FNDA:2584189,_ZSt7forwardIcEOT_RNSt16remove_referenceIS0_E4typeE
FNDA:0,_ZSt7forwardIRKSt6vectorIN8nlohmann10basic_jsonISt3mapS0_NSt7__cxx1112basic_stringIcSt11char_traitsIcESaIcEEEblmdSaNS1_14adl_serializerEEESaISB_EEEOT_RNSt16remove_referenceISG_E4typeE
FNDA:1992,_ZSt7forwardIRKSt3mapINSt7__cxx1112basic_stringIcSt11char_traitsIcESaIcEEEN8nlohmann10basic_jsonIS0_St6vectorS6_blmdSaNS7_14adl_serializerEEESt4lessIvESaISt4pairIKS6_SB_EEEEOT_RNSt16remove_referenceISL_E4typeE
FNDA:13280,_ZSt7forwardIRNSt7__cxx1112basic_stringIcSt11char_traitsIcESaIcEEEEOT_RNSt16remove_referenceIS7_E4typeE
FNDA:6009,_ZSt7forwardIdEOT_RNSt16remove_referenceIS0_E4typeE
FNDA:4006,_ZSt7forwardIP6SensorEOT_RNSt16remove_referenceIS2_E4typeE
FNDA:3984,_ZSt7forwardIRKN8nlohmann10basic_jsonISt3mapSt6vectorNSt7__cxx1112basic_stringIcSt11char_traitsIcESaIcEEEblmdSaNS0_14adl_serializerEEEEOT_RNSt16remove_referenceISE_E4typeE
FNDA:407696,_ZSt7forwardIRKNSt7__cxx1112basic_stringIcSt11char_traitsIcESaIcEEEEOT_RNSt16remove_referenceIS8_E4typeE
FNDA:0,_ZSt7forwardIDnEOT_RNSt16remove_referenceIS0_E4typeE
FNDA:2668,_ZSt7forwardIN8nlohmann6detail7value_tEEOT_RNSt16remove_referenceIS3_E4typeE
FNDA:8,_ZSt7forwardIRSiEOT_RNSt16remove_referenceIS1_E4typeE
FNDA:1023,_ZSt7forwardIN8nlohmann10basic_jsonISt3mapSt6vectorNSt7__cxx1112basic_stringIcSt11char_traitsIcESaIcEEEblmdSaNS0_14adl_serializerEEEEOT_RNSt16remove_referenceISC_E4typeE
FNDA:30,_ZSt7forwardIiEOT_RNSt16remove_referenceIS0_E4typeE
FNDA:0,_ZSt7forwardIbEOT_RNSt16remove_referenceIS0_E4typeE
FNDA:0,_ZSt4moveIRN8nlohmann10basic_jsonISt3mapSt6vectorNSt7__cxx1112basic_stringIcSt11char_traitsIcESaIcEEEblmdSaNS0_14adl_serializerEEEEONSt16remove_referenceIT_E4typeEOSE_
FNDA:665,_ZSt4moveIRPN8nlohmann10basic_jsonISt3mapSt6vectorNSt7__cxx1112basic_stringIcSt11char_traitsIcESaIcEEEblmdSaNS0_14adl_serializerEEEEONSt16remove_referenceIT_E4typeEOSF_
FNDA:861394,_ZSt4moveIRcEONSt16remove_referenceIT_E4typeEOS2_
FNDA:1,_ZSt4moveIRKSaIN8nlohmann6detail20input_stream_adapterEEEONSt16remove_referenceIT_E4typeEOS7_
FNDA:62778,_ZSt4moveIRN8nlohmann6detail7value_tEEONSt16remove_referenceIT_E4typeEOS5_
FNDA:0,_ZSt4moveIRNSt7__cxx1112basic_stringIcSt11char_traitsIcESaIcEEEEONSt16remove_referenceIT_E4typeEOS8_
FNDA:1992,_ZSt4moveIRdEONSt16remove_referenceIT_E4typeEOS2_
FNDA:1328,_ZSt4moveIRP6SensorEONSt16remove_referenceIT_E4typeEOS4_
FNDA:62778,_ZSt4moveIRN8nlohmann10basic_jsonISt3mapSt6vectorNSt7__cxx1112basic_stringIcSt11char_traitsIcESaIcEEEblmdSaNS0_14adl_serializerEE10json_valueEEONSt16remove_referenceIT_E4typeEOSF_
FNDA:1,_ZSt4moveIRSt10shared_ptrIN8nlohmann6detail20input_stream_adapterEEEONSt16remove_referenceIT_E4typeEOS7_
FNDA:3,_ZSt4moveIRSt10shared_ptrIN8nlohmann6detail22input_adapter_protocolEEEONSt16remove_referenceIT_E4typeEOS7_
FNDA:20585,_ZSt4swapIN8nlohmann10basic_jsonISt3mapSt6vectorNSt7__cxx1112basic_stringIcSt11char_traitsIcESaIcEEEblmdSaNS0_14adl_serializerEE10json_valueEENSt9enable_ifIXsrSt6__and_IJSt6__not_ISt15__is_tuple_likeIT_EESt21is_move_constructibleISH_ESt18is_move_assignableISH_EEE5valueEvE4typeERSH_SR_
FNDA:20585,_ZSt4swapIN8nlohmann6detail7value_tEENSt9enable_ifIXsrSt6__and_IJSt6__not_ISt15__is_tuple_likeIT_EESt21is_move_constructibleIS7_ESt18is_move_assignableIS7_EEE5valueEvE4typeERS7_SH_
FNF:55
FNH:42
DA:47,3378
DA:48,3378
DA:73,3592018
DA:74,3592018
DA:98,990940
DA:99,990940
DA:187,41170
DA:198,41170
DA:199,41170
DA:200,41170
DA:201,41170
LF:11
LH:11
end_of_record
SF:/usr/include/c++/7/bits/shared_ptr.h
FN:93,_ZNSt10shared_ptrIN8nlohmann6detail20input_stream_adapterEED2Ev
FN:93,_ZNSt10shared_ptrIN8nlohmann6detail22input_adapter_protocolEED2Ev
FN:119,_ZNSt10shared_ptrIN8nlohmann6detail22input_adapter_protocolEEC2ERKS3_
FN:244,_ZNSt10shared_ptrIN8nlohmann6detail22input_adapter_protocolEEC2EOS3_
FN:253,_ZNSt10shared_ptrIN8nlohmann6detail22input_adapter_protocolEEC2INS1_20input_stream_adapterEvEEOS_IT_E
FN:342,_ZNSt10shared_ptrIN8nlohmann6detail20input_stream_adapterEEC2ISaIS2_EJRSiEEESt19_Sp_make_shared_tagRKT_DpOT0_
FN:688,_ZSt15allocate_sharedIN8nlohmann6detail20input_stream_adapterESaIS2_EJRSiEESt10shared_ptrIT_ERKT0_DpOT1_
FN:703,_ZSt11make_sharedIN8nlohmann6detail20input_stream_adapterEJRSiEESt10shared_ptrIT_EDpOT0_
FNDA:1,_ZNSt10shared_ptrIN8nlohmann6detail20input_stream_adapterEED2Ev
FNDA:3,_ZNSt10shared_ptrIN8nlohmann6detail22input_adapter_protocolEED2Ev
FNDA:1,_ZNSt10shared_ptrIN8nlohmann6detail22input_adapter_protocolEEC2ERKS3_
FNDA:1,_ZNSt10shared_ptrIN8nlohmann6detail22input_adapter_protocolEEC2EOS3_
FNDA:1,_ZNSt10shared_ptrIN8nlohmann6detail22input_adapter_protocolEEC2INS1_20input_stream_adapterEvEEOS_IT_E
FNDA:1,_ZNSt10shared_ptrIN8nlohmann6detail20input_stream_adapterEEC2ISaIS2_EJRSiEEESt19_Sp_make_shared_tagRKT_DpOT0_
FNDA:1,_ZSt15allocate_sharedIN8nlohmann6detail20input_stream_adapterESaIS2_EJRSiEESt10shared_ptrIT_ERKT0_DpOT1_
FNDA:1,_ZSt11make_sharedIN8nlohmann6detail20input_stream_adapterEJRSiEESt10shared_ptrIT_EDpOT0_
FNF:8
FNH:8
DA:93,4
DA:119,1
DA:244,1
DA:245,1
DA:253,1
DA:254,1
DA:342,1
DA:344,1
DA:345,1
DA:688,1
DA:691,1
DA:703,1
DA:707,1
LF:13
LH:13
end_of_record
SF:/usr/include/c++/7/bits/shared_ptr_base.h
FN:116,_ZNSt16_Sp_counted_baseILN9__gnu_cxx12_Lock_policyE2EEC2Ev
FN:120,_ZNSt16_Sp_counted_baseILN9__gnu_cxx12_Lock_policyE2EED0Ev
FN:120,_ZNSt16_Sp_counted_baseILN9__gnu_cxx12_Lock_policyE2EED2Ev
FN:130,_ZNSt16_Sp_counted_baseILN9__gnu_cxx12_Lock_policyE2EE10_M_destroyEv
FN:137,_ZNSt16_Sp_counted_baseILN9__gnu_cxx12_Lock_policyE2EE15_M_add_ref_copyEv
FN:147,_ZNSt16_Sp_counted_baseILN9__gnu_cxx12_Lock_policyE2EE10_M_releaseEv
FN:411,_ZNSt14_Sp_ebo_helperILi0ESaIN8nlohmann6detail20input_stream_adapterEELb1EED2Ev
FN:413,_ZNSt14_Sp_ebo_helperILi0ESaIN8nlohmann6detail20input_stream_adapterEELb1EEC2ERKS3_
FN:417,_ZNSt14_Sp_ebo_helperILi0ESaIN8nlohmann6detail20input_stream_adapterEELb1EE6_S_getERS4_
FN:505,_ZNSt23_Sp_counted_ptr_inplaceIN8nlohmann6detail20input_stream_adapterESaIS2_ELN9__gnu_cxx12_Lock_policyE2EE5_ImplD2Ev
FN:510,_ZNSt23_Sp_counted_ptr_inplaceIN8nlohmann6detail20input_stream_adapterESaIS2_ELN9__gnu_cxx12_Lock_policyE2EE5_ImplC2ES3_
FN:512,_ZNSt23_Sp_counted_ptr_inplaceIN8nlohmann6detail20input_stream_adapterESaIS2_ELN9__gnu_cxx12_Lock_policyE2EE5_Impl8_M_allocEv
FN:521,_ZNSt23_Sp_counted_ptr_inplaceIN8nlohmann6detail20input_stream_adapterESaIS2_ELN9__gnu_cxx12_Lock_policyE2EEC2IJRSiEEES3_DpOT_
FN:530,_ZNSt23_Sp_counted_ptr_inplaceIN8nlohmann6detail20input_stream_adapterESaIS2_ELN9__gnu_cxx12_Lock_policyE2EED0Ev
FN:530,_ZNSt23_Sp_counted_ptr_inplaceIN8nlohmann6detail20input_stream_adapterESaIS2_ELN9__gnu_cxx12_Lock_policyE2EED2Ev
FN:533,_ZNSt23_Sp_counted_ptr_inplaceIN8nlohmann6detail20input_stream_adapterESaIS2_ELN9__gnu_cxx12_Lock_policyE2EE10_M_disposeEv
FN:540,_ZNSt23_Sp_counted_ptr_inplaceIN8nlohmann6detail20input_stream_adapterESaIS2_ELN9__gnu_cxx12_Lock_policyE2EE10_M_destroyEv
FN:549,_ZNSt23_Sp_counted_ptr_inplaceIN8nlohmann6detail20input_stream_adapterESaIS2_ELN9__gnu_cxx12_Lock_policyE2EE14_M_get_deleterERKSt9type_info
FN:559,_ZNSt23_Sp_counted_ptr_inplaceIN8nlohmann6detail20input_stream_adapterESaIS2_ELN9__gnu_cxx12_Lock_policyE2EE6_M_ptrEv
FN:575,_ZNSt14__shared_countILN9__gnu_cxx12_Lock_policyE2EEC2Ev
FN:629,_ZNSt14__shared_countILN9__gnu_cxx12_Lock_policyE2EEC2IN8nlohmann6detail20input_stream_adapterESaIS6_EJRSiEEESt19_Sp_make_shared_tagPT_RKT0_DpOT1_
FN:681,_ZNSt14__shared_countILN9__gnu_cxx12_Lock_policyE2EED2Ev
FN:687,_ZNSt14__shared_countILN9__gnu_cxx12_Lock_policyE2EEC2ERKS2_
FN:710,_ZNSt14__shared_countILN9__gnu_cxx12_Lock_policyE2EE7_M_swapERS2_
FN:726,_ZNKSt14__shared_countILN9__gnu_cxx12_Lock_policyE2EE14_M_get_deleterERKSt9type_info
FN:966,_ZNKSt19__shared_ptr_accessIN8nlohmann6detail22input_adapter_protocolELN9__gnu_cxx12_Lock_policyE2ELb0ELb0EEptEv
FN:974,_ZNKSt19__shared_ptr_accessIN8nlohmann6detail22input_adapter_protocolELN9__gnu_cxx12_Lock_policyE2ELb0ELb0EE6_M_getEv
FN:1121,_ZNSt12__shared_ptrIN8nlohmann6detail22input_adapter_protocolELN9__gnu_cxx12_Lock_policyE2EEC2ERKS5_
FN:1123,_ZNSt12__shared_ptrIN8nlohmann6detail22input_adapter_protocolELN9__gnu_cxx12_Lock_policyE2EED2Ev
FN:1123,_ZNSt12__shared_ptrIN8nlohmann6detail20input_stream_adapterELN9__gnu_cxx12_Lock_policyE2EED2Ev
FN:1130,_ZNSt12__shared_ptrIN8nlohmann6detail22input_adapter_protocolELN9__gnu_cxx12_Lock_policyE2EEC2EOS5_
FN:1138,_ZNSt12__shared_ptrIN8nlohmann6detail22input_adapter_protocolELN9__gnu_cxx12_Lock_policyE2EEC2INS1_20input_stream_adapterEvEEOS_IT_LS4_2EE
FN:1257,_ZNKSt12__shared_ptrIN8nlohmann6detail22input_adapter_protocolELN9__gnu_cxx12_Lock_policyE2EE3getEv
FN:1292,_ZNSt12__shared_ptrIN8nlohmann6detail20input_stream_adapterELN9__gnu_cxx12_Lock_policyE2EEC2ISaIS2_EJRSiEEESt19_Sp_make_shared_tagRKT_DpOT0_
FN:1378,_ZNSt12__shared_ptrIN8nlohmann6detail20input_stream_adapterELN9__gnu_cxx12_Lock_policyE2EE31_M_enable_shared_from_this_withIS2_S2_EENSt9enable_ifIXntsrNS5_15__has_esft_baseIT0_vEE5valueEvE4typeEPT_
FNDA:1,_ZNSt16_Sp_counted_baseILN9__gnu_cxx12_Lock_policyE2EEC2Ev
FNDA:0,_ZNSt16_Sp_counted_baseILN9__gnu_cxx12_Lock_policyE2EED0Ev
FNDA:1,_ZNSt16_Sp_counted_baseILN9__gnu_cxx12_Lock_policyE2EED2Ev
FNDA:0,_ZNSt16_Sp_counted_baseILN9__gnu_cxx12_Lock_policyE2EE10_M_destroyEv
FNDA:1,_ZNSt16_Sp_counted_baseILN9__gnu_cxx12_Lock_policyE2EE15_M_add_ref_copyEv
FNDA:2,_ZNSt16_Sp_counted_baseILN9__gnu_cxx12_Lock_policyE2EE10_M_releaseEv
FNDA:1,_ZNSt14_Sp_ebo_helperILi0ESaIN8nlohmann6detail20input_stream_adapterEELb1EED2Ev
FNDA:1,_ZNSt14_Sp_ebo_helperILi0ESaIN8nlohmann6detail20input_stream_adapterEELb1EEC2ERKS3_
FNDA:2,_ZNSt14_Sp_ebo_helperILi0ESaIN8nlohmann6detail20input_stream_adapterEELb1EE6_S_getERS4_
FNDA:1,_ZNSt23_Sp_counted_ptr_inplaceIN8nlohmann6detail20input_stream_adapterESaIS2_ELN9__gnu_cxx12_Lock_policyE2EE5_ImplD2Ev
FNDA:1,_ZNSt23_Sp_counted_ptr_inplaceIN8nlohmann6detail20input_stream_adapterESaIS2_ELN9__gnu_cxx12_Lock_policyE2EE5_ImplC2ES3_
FNDA:2,_ZNSt23_Sp_counted_ptr_inplaceIN8nlohmann6detail20input_stream_adapterESaIS2_ELN9__gnu_cxx12_Lock_policyE2EE5_Impl8_M_allocEv
FNDA:1,_ZNSt23_Sp_counted_ptr_inplaceIN8nlohmann6detail20input_stream_adapterESaIS2_ELN9__gnu_cxx12_Lock_policyE2EEC2IJRSiEEES3_DpOT_
FNDA:0,_ZNSt23_Sp_counted_ptr_inplaceIN8nlohmann6detail20input_stream_adapterESaIS2_ELN9__gnu_cxx12_Lock_policyE2EED0Ev
FNDA:1,_ZNSt23_Sp_counted_ptr_inplaceIN8nlohmann6detail20input_stream_adapterESaIS2_ELN9__gnu_cxx12_Lock_policyE2EED2Ev
FNDA:1,_ZNSt23_Sp_counted_ptr_inplaceIN8nlohmann6detail20input_stream_adapterESaIS2_ELN9__gnu_cxx12_Lock_policyE2EE10_M_disposeEv
FNDA:1,_ZNSt23_Sp_counted_ptr_inplaceIN8nlohmann6detail20input_stream_adapterESaIS2_ELN9__gnu_cxx12_Lock_policyE2EE10_M_destroyEv
FNDA:1,_ZNSt23_Sp_counted_ptr_inplaceIN8nlohmann6detail20input_stream_adapterESaIS2_ELN9__gnu_cxx12_Lock_policyE2EE14_M_get_deleterERKSt9type_info
FNDA:3,_ZNSt23_Sp_counted_ptr_inplaceIN8nlohmann6detail20input_stream_adapterESaIS2_ELN9__gnu_cxx12_Lock_policyE2EE6_M_ptrEv
FNDA:2,_ZNSt14__shared_countILN9__gnu_cxx12_Lock_policyE2EEC2Ev
FNDA:1,_ZNSt14__shared_countILN9__gnu_cxx12_Lock_policyE2EEC2IN8nlohmann6detail20input_stream_adapterESaIS6_EJRSiEEESt19_Sp_make_shared_tagPT_RKT0_DpOT1_
FNDA:4,_ZNSt14__shared_countILN9__gnu_cxx12_Lock_policyE2EED2Ev
FNDA:1,_ZNSt14__shared_countILN9__gnu_cxx12_Lock_policyE2EEC2ERKS2_
FNDA:2,_ZNSt14__shared_countILN9__gnu_cxx12_Lock_policyE2EE7_M_swapERS2_
FNDA:1,_ZNKSt14__shared_countILN9__gnu_cxx12_Lock_policyE2EE14_M_get_deleterERKSt9type_info
FNDA:802298,_ZNKSt19__shared_ptr_accessIN8nlohmann6detail22input_adapter_protocolELN9__gnu_cxx12_Lock_policyE2ELb0ELb0EEptEv
FNDA:802298,_ZNKSt19__shared_ptr_accessIN8nlohmann6detail22input_adapter_protocolELN9__gnu_cxx12_Lock_policyE2ELb0ELb0EE6_M_getEv
FNDA:1,_ZNSt12__shared_ptrIN8nlohmann6detail22input_adapter_protocolELN9__gnu_cxx12_Lock_policyE2EEC2ERKS5_
FNDA:1,_ZNSt12__shared_ptrIN8nlohmann6detail20input_stream_adapterELN9__gnu_cxx12_Lock_policyE2EED2Ev
FNDA:3,_ZNSt12__shared_ptrIN8nlohmann6detail22input_adapter_protocolELN9__gnu_cxx12_Lock_policyE2EED2Ev
FNDA:1,_ZNSt12__shared_ptrIN8nlohmann6detail22input_adapter_protocolELN9__gnu_cxx12_Lock_policyE2EEC2EOS5_
FNDA:1,_ZNSt12__shared_ptrIN8nlohmann6detail22input_adapter_protocolELN9__gnu_cxx12_Lock_policyE2EEC2INS1_20input_stream_adapterEvEEOS_IT_LS4_2EE
FNDA:802298,_ZNKSt12__shared_ptrIN8nlohmann6detail22input_adapter_protocolELN9__gnu_cxx12_Lock_policyE2EE3getEv
FNDA:1,_ZNSt12__shared_ptrIN8nlohmann6detail20input_stream_adapterELN9__gnu_cxx12_Lock_policyE2EEC2ISaIS2_EJRSiEEESt19_Sp_make_shared_tagRKT_DpOT0_
FNDA:1,_ZNSt12__shared_ptrIN8nlohmann6detail20input_stream_adapterELN9__gnu_cxx12_Lock_policyE2EE31_M_enable_shared_from_this_withIS2_S2_EENSt9enable_ifIXntsrNS5_15__has_esft_baseIT0_vEE5valueEvE4typeEPT_
FNF:35
FNH:32
DA:116,1
DA:117,1
DA:120,1
DA:121,1
DA:130,0
DA:131,0
DA:137,1
DA:138,1
DA:147,2
DA:151,2
DA:154,1
DA:166,2
DA:167,1
DA:170,1
DA:173,2
DA:411,1
DA:413,1
DA:417,2
DA:505,1
DA:510,1
DA:512,2
DA:521,1
DA:522,1
DA:526,1
DA:528,1
DA:530,1
DA:533,1
DA:535,1
DA:536,1
DA:540,1
DA:542,2
DA:543,2
DA:544,1
DA:545,1
DA:549,1
DA:552,1
DA:553,1
DA:555,0
DA:559,3
DA:575,2
DA:576,2
DA:629,1
DA:631,1
DA:634,2
DA:635,2
DA:636,1
DA:637,1
DA:639,1
DA:640,1
DA:641,1
DA:681,4
DA:683,4
DA:684,2
DA:685,4
DA:687,1
DA:688,1
DA:690,1
DA:691,1
DA:692,1
DA:710,2
DA:712,2
DA:713,2
DA:714,2
DA:715,2
DA:726,1
DA:727,1
DA:966,802298
DA:969,802298
DA:974,802298
DA:975,802298
DA:1121,1
DA:1123,4
DA:1130,1
DA:1131,1
DA:1133,1
DA:1134,1
DA:1135,1
DA:1138,1
DA:1139,1
DA:1141,1
DA:1142,1
DA:1143,1
DA:1257,802298
DA:1258,802298
DA:1292,1
DA:1295,1
DA:1299,1
DA:1300,1
DA:1301,1
DA:1302,1
DA:1378,1
DA:1379,1
LF:92
LH:89
end_of_record
SF:/usr/include/c++/7/bits/std_function.h
FN:271,_ZNSt14_Function_baseC2Ev
FN:273,_ZNSt14_Function_baseD2Ev
FN:279,_ZNKSt14_Function_base8_M_emptyEv
FN:389,_ZNSt8functionIFbiN8nlohmann6detail6parserINS0_10basic_jsonISt3mapSt6vectorNSt7__cxx1112basic_stringIcSt11char_traitsIcESaIcEEEblmdSaNS0_14adl_serializerEEEE13parse_event_tERSD_EED2Ev
FN:421,_ZNSt8functionIFbiN8nlohmann6detail6parserINS0_10basic_jsonISt3mapSt6vectorNSt7__cxx1112basic_stringIcSt11char_traitsIcESaIcEEEblmdSaNS0_14adl_serializerEEEE13parse_event_tERSD_EEC2EDn
FN:582,_ZNKSt8functionIFbiN8nlohmann6detail6parserINS0_10basic_jsonISt3mapSt6vectorNSt7__cxx1112basic_stringIcSt11char_traitsIcESaIcEEEblmdSaNS0_14adl_serializerEEEE13parse_event_tERSD_EEcvbEv
FN:671,_ZNSt8functionIFbiN8nlohmann6detail6parserINS0_10basic_jsonISt3mapSt6vectorNSt7__cxx1112basic_stringIcSt11char_traitsIcESaIcEEEblmdSaNS0_14adl_serializerEEEE13parse_event_tERSD_EEC2ERKSI_
FN:701,_ZNKSt8functionIFbiN8nlohmann6detail6parserINS0_10basic_jsonISt3mapSt6vectorNSt7__cxx1112basic_stringIcSt11char_traitsIcESaIcEEEblmdSaNS0_14adl_serializerEEEE13parse_event_tERSD_EEclEiSF_SG_
FNDA:3,_ZNSt14_Function_baseC2Ev
FNDA:3,_ZNSt14_Function_baseD2Ev
FNDA:3,_ZNKSt14_Function_base8_M_emptyEv
FNDA:3,_ZNSt8functionIFbiN8nlohmann6detail6parserINS0_10basic_jsonISt3mapSt6vectorNSt7__cxx1112basic_stringIcSt11char_traitsIcESaIcEEEblmdSaNS0_14adl_serializerEEEE13parse_event_tERSD_EED2Ev
FNDA:1,_ZNSt8functionIFbiN8nlohmann6detail6parserINS0_10basic_jsonISt3mapSt6vectorNSt7__cxx1112basic_stringIcSt11char_traitsIcESaIcEEEblmdSaNS0_14adl_serializerEEEE13parse_event_tERSD_EEC2EDn
FNDA:3,_ZNKSt8functionIFbiN8nlohmann6detail6parserINS0_10basic_jsonISt3mapSt6vectorNSt7__cxx1112basic_stringIcSt11char_traitsIcESaIcEEEblmdSaNS0_14adl_serializerEEEE13parse_event_tERSD_EEcvbEv
FNDA:2,_ZNSt8functionIFbiN8nlohmann6detail6parserINS0_10basic_jsonISt3mapSt6vectorNSt7__cxx1112basic_stringIcSt11char_traitsIcESaIcEEEblmdSaNS0_14adl_serializerEEEE13parse_event_tERSD_EEC2ERKSI_
FNDA:0,_ZNKSt8functionIFbiN8nlohmann6detail6parserINS0_10basic_jsonISt3mapSt6vectorNSt7__cxx1112basic_stringIcSt11char_traitsIcESaIcEEEblmdSaNS0_14adl_serializerEEEE13parse_event_tERSD_EEclEiSF_SG_
FNF:8
FNH:7
DA:271,3
DA:273,3
DA:274,3
DA:275,3
DA:276,0
DA:277,3
DA:279,3
DA:389,3
DA:421,1
DA:422,1
DA:582,3
DA:583,3
DA:671,2
DA:673,2
DA:675,2
DA:677,0
DA:678,0
DA:679,0
DA:681,2
DA:701,0
DA:704,0
DA:705,0
DA:706,0
LF:23
LH:15
end_of_record
SF:/usr/include/c++/7/bits/stl_algobase.h
FN:219,_ZSt3maxImERKT_S2_S2_
FN:277,_ZSt12__niter_baseIPcET_S1_
FN:277,_ZSt12__niter_baseIPPN8nlohmann10basic_jsonISt3mapSt6vectorNSt7__cxx1112basic_stringIcSt11char_traitsIcESaIcEEEblmdSaNS0_14adl_serializerEEEET_SE_
FN:277,_ZSt12__niter_baseIPmET_S1_
FN:277,_ZSt12__niter_baseISt19_Bit_const_iteratorET_S1_
FN:277,_ZSt12__niter_baseISt13_Bit_iteratorET_S1_
FN:277,_ZSt12__niter_baseIPdET_S1_
FN:277,_ZSt12__niter_baseIPP6SensorET_S3_
FN:319,_ZNSt11__copy_moveILb0ELb0ESt26random_access_iterator_tagE8__copy_mISt19_Bit_const_iteratorSt13_Bit_iteratorEET0_T_S6_S5_
FN:319,_ZNSt11__copy_moveILb0ELb0ESt26random_access_iterator_tagE8__copy_mISt13_Bit_iteratorS3_EET0_T_S5_S4_
FN:338,_ZNSt11__copy_moveILb1ELb0ESt26random_access_iterator_tagE8__copy_mIPN8nlohmann10basic_jsonISt3mapSt6vectorNSt7__cxx1112basic_stringIcSt11char_traitsIcESaIcEEEblmdSaNS3_14adl_serializerEEESF_EET0_T_SH_SG_
FN:357,_ZNSt11__copy_moveILb1ELb1ESt26random_access_iterator_tagE8__copy_mIP6SensorEEPT_PKS5_S8_S6_
FN:357,_ZNSt11__copy_moveILb1ELb1ESt26random_access_iterator_tagE8__copy_mIPN8nlohmann10basic_jsonISt3mapSt6vectorNSt7__cxx1112basic_stringIcSt11char_traitsIcESaIcEEEblmdSaNS3_14adl_serializerEEEEEPT_PKSG_SJ_SH_
FN:357,_ZNSt11__copy_moveILb0ELb1ESt26random_access_iterator_tagE8__copy_mImEEPT_PKS3_S6_S4_
FN:357,_ZNSt11__copy_moveILb1ELb1ESt26random_access_iterator_tagE8__copy_mIdEEPT_PKS3_S6_S4_
FN:357,_ZNSt11__copy_moveILb1ELb1ESt26random_access_iterator_tagE8__copy_mIcEEPT_PKS3_S6_S4_
FN:375,_ZSt13__copy_move_aILb1EPN8nlohmann10basic_jsonISt3mapSt6vectorNSt7__cxx1112basic_stringIcSt11char_traitsIcESaIcEEEblmdSaNS0_14adl_serializerEEESC_ET1_T0_SE_SD_
FN:375,_ZSt13__copy_move_aILb0EPmS0_ET1_T0_S2_S1_
FN:375,_ZSt13__copy_move_aILb1EPPN8nlohmann10basic_jsonISt3mapSt6vectorNSt7__cxx1112basic_stringIcSt11char_traitsIcESaIcEEEblmdSaNS0_14adl_serializerEEESD_ET1_T0_SF_SE_
FN:375,_ZSt13__copy_move_aILb1EPdS0_ET1_T0_S2_S1_
FN:375,_ZSt13__copy_move_aILb1EPP6SensorS2_ET1_T0_S4_S3_
FN:375,_ZSt13__copy_move_aILb1EPcS0_ET1_T0_S2_S1_
FN:375,_ZSt13__copy_move_aILb0ESt19_Bit_const_iteratorSt13_Bit_iteratorET1_T0_S3_S2_
FN:375,_ZSt13__copy_move_aILb0ESt13_Bit_iteratorS0_ET1_T0_S2_S1_
FN:420,_ZSt14__copy_move_a2ILb1EN9__gnu_cxx17__normal_iteratorIPN8nlohmann10basic_jsonISt3mapSt6vectorNSt7__cxx1112basic_stringIcSt11char_traitsIcESaIcEEEblmdSaNS2_14adl_serializerEEES5_ISD_SaISD_EEEESH_ET1_T0_SJ_SI_
FN:420,_ZSt14__copy_move_a2ILb1EPP6SensorS2_ET1_T0_S4_S3_
FN:420,_ZSt14__copy_move_a2ILb1EPPN8nlohmann10basic_jsonISt3mapSt6vectorNSt7__cxx1112basic_stringIcSt11char_traitsIcESaIcEEEblmdSaNS0_14adl_serializerEEESD_ET1_T0_SF_SE_
FN:420,_ZSt14__copy_move_a2ILb1EPdS0_ET1_T0_S2_S1_
FN:420,_ZSt14__copy_move_a2ILb0ESt13_Bit_iteratorS0_ET1_T0_S2_S1_
FN:420,_ZSt14__copy_move_a2ILb1EPcS0_ET1_T0_S2_S1_
FN:420,_ZSt14__copy_move_a2ILb0EPmS0_ET1_T0_S2_S1_
FN:420,_ZSt14__copy_move_a2ILb0ESt19_Bit_const_iteratorSt13_Bit_iteratorET1_T0_S3_S2_
FN:446,_ZSt4copyISt13move_iteratorIPPN8nlohmann10basic_jsonISt3mapSt6vectorNSt7__cxx1112basic_stringIcSt11char_traitsIcESaIcEEEblmdSaNS1_14adl_serializerEEEESE_ET0_T_SH_SG_
FN:446,_ZSt4copyISt13move_iteratorIPcES1_ET0_T_S4_S3_
FN:446,_ZSt4copyIPmS0_ET0_T_S2_S1_
FN:446,_ZSt4copyISt13_Bit_iteratorS0_ET0_T_S2_S1_
FN:446,_ZSt4copyISt19_Bit_const_iteratorSt13_Bit_iteratorET0_T_S3_S2_
FN:446,_ZSt4copyISt13move_iteratorIPP6SensorES3_ET0_T_S6_S5_
FN:446,_ZSt4copyISt13move_iteratorIPdES1_ET0_T_S4_S3_
FN:479,_ZSt4moveIN9__gnu_cxx17__normal_iteratorIPN8nlohmann10basic_jsonISt3mapSt6vectorNSt7__cxx1112basic_stringIcSt11char_traitsIcESaIcEEEblmdSaNS2_14adl_serializerEEES5_ISD_SaISD_EEEESH_ET0_T_SJ_SI_
FN:529,_ZNSt20__copy_move_backwardILb0ELb0ESt26random_access_iterator_tagE13__copy_move_bISt13_Bit_iteratorS3_EET0_T_S5_S4_
FN:577,_ZSt22__copy_move_backward_aILb0ESt13_Bit_iteratorS0_ET1_T0_S2_S1_
FN:595,_ZSt23__copy_move_backward_a2ILb0ESt13_Bit_iteratorS0_ET1_T0_S2_S1_
FN:622,_ZSt13copy_backwardISt13_Bit_iteratorS0_ET0_T_S2_S1_
FNDA:76,_ZSt3maxImERKT_S2_S2_
FNDA:12,_ZSt12__niter_baseIPPN8nlohmann10basic_jsonISt3mapSt6vectorNSt7__cxx1112basic_stringIcSt11char_traitsIcESaIcEEEblmdSaNS0_14adl_serializerEEEET_SE_
FNDA:42,_ZSt12__niter_baseIPcET_S1_
FNDA:198,_ZSt12__niter_baseIPdET_S1_
FNDA:132,_ZSt12__niter_baseIPP6SensorET_S3_
FNDA:2,_ZSt12__niter_baseISt19_Bit_const_iteratorET_S1_
FNDA:4,_ZSt12__niter_baseISt13_Bit_iteratorET_S1_
FNDA:3,_ZSt12__niter_baseIPmET_S1_
FNDA:1,_ZNSt11__copy_moveILb0ELb0ESt26random_access_iterator_tagE8__copy_mISt19_Bit_const_iteratorSt13_Bit_iteratorEET0_T_S6_S5_
FNDA:1,_ZNSt11__copy_moveILb0ELb0ESt26random_access_iterator_tagE8__copy_mISt13_Bit_iteratorS3_EET0_T_S5_S4_
FNDA:0,_ZNSt11__copy_moveILb1ELb0ESt26random_access_iterator_tagE8__copy_mIPN8nlohmann10basic_jsonISt3mapSt6vectorNSt7__cxx1112basic_stringIcSt11char_traitsIcESaIcEEEblmdSaNS3_14adl_serializerEEESF_EET0_T_SH_SG_
FNDA:4,_ZNSt11__copy_moveILb1ELb1ESt26random_access_iterator_tagE8__copy_mIPN8nlohmann10basic_jsonISt3mapSt6vectorNSt7__cxx1112basic_stringIcSt11char_traitsIcESaIcEEEblmdSaNS3_14adl_serializerEEEEEPT_PKSG_SJ_SH_
FNDA:14,_ZNSt11__copy_moveILb1ELb1ESt26random_access_iterator_tagE8__copy_mIcEEPT_PKS3_S6_S4_
FNDA:66,_ZNSt11__copy_moveILb1ELb1ESt26random_access_iterator_tagE8__copy_mIdEEPT_PKS3_S6_S4_
FNDA:44,_ZNSt11__copy_moveILb1ELb1ESt26random_access_iterator_tagE8__copy_mIP6SensorEEPT_PKS5_S8_S6_
FNDA:1,_ZNSt11__copy_moveILb0ELb1ESt26random_access_iterator_tagE8__copy_mImEEPT_PKS3_S6_S4_
FNDA:4,_ZSt13__copy_move_aILb1EPPN8nlohmann10basic_jsonISt3mapSt6vectorNSt7__cxx1112basic_stringIcSt11char_traitsIcESaIcEEEblmdSaNS0_14adl_serializerEEESD_ET1_T0_SF_SE_
FNDA:0,_ZSt13__copy_move_aILb1EPN8nlohmann10basic_jsonISt3mapSt6vectorNSt7__cxx1112basic_stringIcSt11char_traitsIcESaIcEEEblmdSaNS0_14adl_serializerEEESC_ET1_T0_SE_SD_
FNDA:14,_ZSt13__copy_move_aILb1EPcS0_ET1_T0_S2_S1_
FNDA:66,_ZSt13__copy_move_aILb1EPdS0_ET1_T0_S2_S1_
FNDA:44,_ZSt13__copy_move_aILb1EPP6SensorS2_ET1_T0_S4_S3_
FNDA:1,_ZSt13__copy_move_aILb0ESt19_Bit_const_iteratorSt13_Bit_iteratorET1_T0_S3_S2_
FNDA:1,_ZSt13__copy_move_aILb0EPmS0_ET1_T0_S2_S1_
FNDA:1,_ZSt13__copy_move_aILb0ESt13_Bit_iteratorS0_ET1_T0_S2_S1_
FNDA:4,_ZSt14__copy_move_a2ILb1EPPN8nlohmann10basic_jsonISt3mapSt6vectorNSt7__cxx1112basic_stringIcSt11char_traitsIcESaIcEEEblmdSaNS0_14adl_serializerEEESD_ET1_T0_SF_SE_
FNDA:0,_ZSt14__copy_move_a2ILb1EN9__gnu_cxx17__normal_iteratorIPN8nlohmann10basic_jsonISt3mapSt6vectorNSt7__cxx1112basic_stringIcSt11char_traitsIcESaIcEEEblmdSaNS2_14adl_serializerEEES5_ISD_SaISD_EEEESH_ET1_T0_SJ_SI_
FNDA:14,_ZSt14__copy_move_a2ILb1EPcS0_ET1_T0_S2_S1_
FNDA:66,_ZSt14__copy_move_a2ILb1EPdS0_ET1_T0_S2_S1_
FNDA:44,_ZSt14__copy_move_a2ILb1EPP6SensorS2_ET1_T0_S4_S3_
FNDA:1,_ZSt14__copy_move_a2ILb0ESt19_Bit_const_iteratorSt13_Bit_iteratorET1_T0_S3_S2_
FNDA:1,_ZSt14__copy_move_a2ILb0EPmS0_ET1_T0_S2_S1_
FNDA:1,_ZSt14__copy_move_a2ILb0ESt13_Bit_iteratorS0_ET1_T0_S2_S1_
FNDA:4,_ZSt4copyISt13move_iteratorIPPN8nlohmann10basic_jsonISt3mapSt6vectorNSt7__cxx1112basic_stringIcSt11char_traitsIcESaIcEEEblmdSaNS1_14adl_serializerEEEESE_ET0_T_SH_SG_
FNDA:14,_ZSt4copyISt13move_iteratorIPcES1_ET0_T_S4_S3_
FNDA:66,_ZSt4copyISt13move_iteratorIPdES1_ET0_T_S4_S3_
FNDA:44,_ZSt4copyISt13move_iteratorIPP6SensorES3_ET0_T_S6_S5_
FNDA:1,_ZSt4copyISt19_Bit_const_iteratorSt13_Bit_iteratorET0_T_S3_S2_
FNDA:1,_ZSt4copyIPmS0_ET0_T_S2_S1_
FNDA:1,_ZSt4copyISt13_Bit_iteratorS0_ET0_T_S2_S1_
FNDA:0,_ZSt4moveIN9__gnu_cxx17__normal_iteratorIPN8nlohmann10basic_jsonISt3mapSt6vectorNSt7__cxx1112basic_stringIcSt11char_traitsIcESaIcEEEblmdSaNS2_14adl_serializerEEES5_ISD_SaISD_EEEESH_ET0_T_SJ_SI_
FNDA:0,_ZNSt20__copy_move_backwardILb0ELb0ESt26random_access_iterator_tagE13__copy_move_bISt13_Bit_iteratorS3_EET0_T_S5_S4_
FNDA:0,_ZSt22__copy_move_backward_aILb0ESt13_Bit_iteratorS0_ET1_T0_S2_S1_
FNDA:0,_ZSt23__copy_move_backward_a2ILb0ESt13_Bit_iteratorS0_ET1_T0_S2_S1_
FNDA:0,_ZSt13copy_backwardISt13_Bit_iteratorS0_ET0_T_S2_S1_
FNF:44
FNH:36
DA:219,76
DA:224,76
DA:225,9
DA:226,67
DA:277,393
DA:278,393
DA:319,2
DA:322,2
DA:324,0
DA:325,0
DA:326,0
DA:328,2
DA:338,0
DA:341,0
DA:343,0
DA:344,0
DA:345,0
DA:347,0
DA:357,129
DA:366,129
DA:367,129
DA:368,57
DA:369,129
DA:375,131
DA:380,131
DA:386,131
DA:420,131
DA:422,131
DA:424,131
DA:446,131
DA:455,131
DA:456,131
DA:479,0
DA:487,0
DA:488,0
DA:529,0
DA:532,0
DA:533,0
DA:534,0
DA:577,0
DA:582,0
DA:590,0
DA:595,0
DA:598,0
DA:599,0
DA:622,0
DA:633,0
DA:634,0
LF:48
LH:23
end_of_record
SF:/usr/include/c++/7/bits/stl_bvector.h
FN:75,_ZNSt14_Bit_referenceC2EPmm
FN:80,_ZNKSt14_Bit_referencecvbEv
FN:84,_ZNSt14_Bit_referenceaSEb
FN:94,_ZNSt14_Bit_referenceaSERKS_
FN:142,_ZNSt18_Bit_iterator_baseC2EPmj
FN:146,_ZNSt18_Bit_iterator_base10_M_bump_upEv
FN:156,_ZNSt18_Bit_iterator_base12_M_bump_downEv
FN:166,_ZNSt18_Bit_iterator_base7_M_incrEl
FN:180,_ZNKSt18_Bit_iterator_baseeqERKS_
FN:208,_ZStmiRKSt18_Bit_iterator_baseS1_
FN:220,_ZNSt13_Bit_iteratorC2Ev
FN:222,_ZNSt13_Bit_iteratorC2EPmj
FN:230,_ZNKSt13_Bit_iteratordeEv
FN:234,_ZNSt13_Bit_iteratorppEv
FN:241,_ZNSt13_Bit_iteratorppEi
FN:249,_ZNSt13_Bit_iteratormmEv
FN:264,_ZNSt13_Bit_iteratorpLEl
FN:271,_ZNSt13_Bit_iteratormIEl
FN:278,_ZNKSt13_Bit_iteratorplEl
FN:285,_ZNKSt13_Bit_iteratormiEl
FN:309,_ZNSt19_Bit_const_iteratorC2EPmj
FN:312,_ZNSt19_Bit_const_iteratorC2ERKSt13_Bit_iterator
FN:320,_ZNKSt19_Bit_const_iteratordeEv
FN:324,_ZNSt19_Bit_const_iteratorppEv
FN:419,_ZNSt13_Bvector_baseISaIbEE13_Bvector_implD2Ev
FN:426,_ZNSt13_Bvector_baseISaIbEE13_Bvector_implC2Ev
FN:442,_ZNKSt13_Bvector_baseISaIbEE13_Bvector_impl11_M_end_addrEv
FN:458,_ZNKSt13_Bvector_baseISaIbEE20_M_get_Bit_allocatorEv
FN:465,_ZNSt13_Bvector_baseISaIbEEC2Ev
FN:484,_ZNSt13_Bvector_baseISaIbEED2Ev
FN:491,_ZNSt13_Bvector_baseISaIbEE11_M_allocateEm
FN:495,_ZNSt13_Bvector_baseISaIbEE13_M_deallocateEv
FN:509,_ZNSt13_Bvector_baseISaIbEE8_S_nwordEm
FN:577,_ZNSt6vectorIbSaIbEEC2Ev
FN:679,_ZNSt6vectorIbSaIbEED2Ev
FN:781,_ZNSt6vectorIbSaIbEE5beginEv
FN:785,_ZNKSt6vectorIbSaIbEE5beginEv
FN:789,_ZNSt6vectorIbSaIbEE3endEv
FN:793,_ZNKSt6vectorIbSaIbEE3endEv
FN:831,_ZNKSt6vectorIbSaIbEE4sizeEv
FN:835,_ZNKSt6vectorIbSaIbEE8max_sizeEv
FN:852,_ZNKSt6vectorIbSaIbEE5emptyEv
FN:907,_ZNSt6vectorIbSaIbEE4backEv
FN:923,_ZNSt6vectorIbSaIbEE9push_backEb
FN:1011,_ZNSt6vectorIbSaIbEE8pop_backEv
FN:1081,_ZNSt6vectorIbSaIbEE15_M_copy_alignedESt19_Bit_const_iteratorS2_St13_Bit_iterator
FN:1248,_ZNKSt6vectorIbSaIbEE12_M_check_lenEmPKc
FNDA:21913,_ZNSt14_Bit_referenceC2EPmm
FNDA:21248,_ZNKSt14_Bit_referencecvbEv
FNDA:665,_ZNSt14_Bit_referenceaSEb
FNDA:0,_ZNSt14_Bit_referenceaSERKS_
FNDA:43844,_ZNSt18_Bit_iterator_baseC2EPmj
FNDA:665,_ZNSt18_Bit_iterator_base10_M_bump_upEv
FNDA:665,_ZNSt18_Bit_iterator_base12_M_bump_downEv
FNDA:21248,_ZNSt18_Bit_iterator_base7_M_incrEl
FNDA:21914,_ZNKSt18_Bit_iterator_baseeqERKS_
FNDA:6,_ZStmiRKSt18_Bit_iterator_baseS1_
FNDA:3,_ZNSt13_Bit_iteratorC2Ev
FNDA:2,_ZNSt13_Bit_iteratorC2EPmj
FNDA:21913,_ZNKSt13_Bit_iteratordeEv
FNDA:0,_ZNSt13_Bit_iteratorppEv
FNDA:665,_ZNSt13_Bit_iteratorppEi
FNDA:665,_ZNSt13_Bit_iteratormmEv
FNDA:21248,_ZNSt13_Bit_iteratorpLEl
FNDA:21248,_ZNSt13_Bit_iteratormIEl
FNDA:0,_ZNKSt13_Bit_iteratorplEl
FNDA:21248,_ZNKSt13_Bit_iteratormiEl
FNDA:1,_ZNSt19_Bit_const_iteratorC2EPmj
FNDA:43838,_ZNSt19_Bit_const_iteratorC2ERKSt13_Bit_iterator
FNDA:0,_ZNKSt19_Bit_const_iteratordeEv
FNDA:0,_ZNSt19_Bit_const_iteratorppEv
FNDA:1,_ZNSt13_Bvector_baseISaIbEE13_Bvector_implD2Ev
FNDA:1,_ZNSt13_Bvector_baseISaIbEE13_Bvector_implC2Ev
FNDA:667,_ZNKSt13_Bvector_baseISaIbEE13_Bvector_impl11_M_end_addrEv
FNDA:2,_ZNKSt13_Bvector_baseISaIbEE20_M_get_Bit_allocatorEv
FNDA:1,_ZNSt13_Bvector_baseISaIbEEC2Ev
FNDA:1,_ZNSt13_Bvector_baseISaIbEED2Ev
FNDA:1,_ZNSt13_Bvector_baseISaIbEE11_M_allocateEm
FNDA:2,_ZNSt13_Bvector_baseISaIbEE13_M_deallocateEv
FNDA:2,_ZNSt13_Bvector_baseISaIbEE8_S_nwordEm
FNDA:1,_ZNSt6vectorIbSaIbEEC2Ev
FNDA:1,_ZNSt6vectorIbSaIbEED2Ev
FNDA:1,_ZNSt6vectorIbSaIbEE5beginEv
FNDA:21918,_ZNKSt6vectorIbSaIbEE5beginEv
FNDA:21250,_ZNSt6vectorIbSaIbEE3endEv
FNDA:21918,_ZNKSt6vectorIbSaIbEE3endEv
FNDA:4,_ZNKSt6vectorIbSaIbEE4sizeEv
FNDA:2,_ZNKSt6vectorIbSaIbEE8max_sizeEv
FNDA:21914,_ZNKSt6vectorIbSaIbEE5emptyEv
FNDA:21248,_ZNSt6vectorIbSaIbEE4backEv
FNDA:665,_ZNSt6vectorIbSaIbEE9push_backEb
FNDA:665,_ZNSt6vectorIbSaIbEE8pop_backEv
FNDA:1,_ZNSt6vectorIbSaIbEE15_M_copy_alignedESt19_Bit_const_iteratorS2_St13_Bit_iterator
FNDA:1,_ZNKSt6vectorIbSaIbEE12_M_check_lenEmPKc
FNF:47
FNH:42
DA:75,21913
DA:76,21913
DA:80,21248
DA:81,21248
DA:84,665
DA:86,665
DA:87,1
DA:89,664
DA:90,665
DA:94,0
DA:95,0
DA:142,43844
DA:143,43844
DA:146,665
DA:148,665
DA:150,0
DA:151,0
DA:153,665
DA:156,665
DA:158,665
DA:160,0
DA:161,0
DA:163,665
DA:166,21248
DA:168,21248
DA:169,21248
DA:170,21248
DA:171,21248
DA:173,0
DA:174,0
DA:176,21248
DA:177,21248
DA:180,21914
DA:181,21914
DA:208,6
DA:210,6
DA:211,6
DA:220,3
DA:222,2
DA:223,2
DA:230,21913
DA:231,21913
DA:234,0
DA:236,0
DA:237,0
DA:241,665
DA:243,665
DA:244,665
DA:245,665
DA:249,665
DA:251,665
DA:252,665
DA:264,21248
DA:266,21248
DA:267,21248
DA:271,21248
DA:273,21248
DA:274,21248
DA:278,0
DA:280,0
DA:281,0
DA:285,21248
DA:287,21248
DA:288,21248
DA:309,1
DA:310,1
DA:312,43838
DA:313,43838
DA:320,0
DA:321,0
DA:324,0
DA:326,0
DA:327,0
DA:419,1
DA:426,1
DA:427,1
DA:428,1
DA:442,667
DA:444,667
DA:445,665
DA:446,2
DA:458,2
DA:459,2
DA:465,1
DA:466,1
DA:484,1
DA:485,1
DA:491,1
DA:492,1
DA:495,2
DA:497,2
DA:499,1
DA:500,1
DA:501,1
DA:503,1
DA:504,1
DA:506,2
DA:509,2
DA:510,2
DA:577,1
DA:581,1
DA:679,1
DA:781,1
DA:782,1
DA:785,21918
DA:786,21918
DA:789,21250
DA:790,21250
DA:793,21918
DA:794,21918
DA:831,4
DA:832,4
DA:835,2
DA:837,2
DA:840,2
DA:841,2
DA:843,2
DA:852,21914
DA:853,21914
DA:907,21248
DA:908,21248
DA:923,665
DA:925,665
DA:926,664
DA:928,1
DA:929,665
DA:1011,665
DA:1012,665
DA:1081,1
DA:1084,1
DA:1085,2
DA:1086,2
DA:1248,1
DA:1250,1
DA:1251,0
DA:1253,1
DA:1254,1
LF:137
LH:117
end_of_record
SF:/usr/include/c++/7/bits/stl_construct.h
FN:74,_ZSt10_ConstructIN8nlohmann10basic_jsonISt3mapSt6vectorNSt7__cxx1112basic_stringIcSt11char_traitsIcESaIcEEEblmdSaNS0_14adl_serializerEEEJSB_EEvPT_DpOT0_
FN:74,_ZSt10_ConstructIN8nlohmann10basic_jsonISt3mapSt6vectorNSt7__cxx1112basic_stringIcSt11char_traitsIcESaIcEEEblmdSaNS0_14adl_serializerEEEJRKSB_EEvPT_DpOT0_
FN:97,_ZSt8_DestroyIN8nlohmann10basic_jsonISt3mapSt6vectorNSt7__cxx1112basic_stringIcSt11char_traitsIcESaIcEEEblmdSaNS0_14adl_serializerEEEEvPT_
FN:105,_ZNSt12_Destroy_auxILb0EE9__destroyIPN8nlohmann10basic_jsonISt3mapSt6vectorNSt7__cxx1112basic_stringIcSt11char_traitsIcESaIcEEEblmdSaNS2_14adl_serializerEEEEEvT_SF_
FN:117,_ZNSt12_Destroy_auxILb1EE9__destroyIPcEEvT_S3_
FN:117,_ZNSt12_Destroy_auxILb1EE9__destroyIPdEEvT_S3_
FN:117,_ZNSt12_Destroy_auxILb1EE9__destroyIPP6SensorEEvT_S5_
FN:117,_ZNSt12_Destroy_auxILb1EE9__destroyIPPN8nlohmann10basic_jsonISt3mapSt6vectorNSt7__cxx1112basic_stringIcSt11char_traitsIcESaIcEEEblmdSaNS2_14adl_serializerEEEEEvT_SG_
FN:127,_ZSt8_DestroyIPcEvT_S1_
FN:127,_ZSt8_DestroyIPPN8nlohmann10basic_jsonISt3mapSt6vectorNSt7__cxx1112basic_stringIcSt11char_traitsIcESaIcEEEblmdSaNS0_14adl_serializerEEEEvT_SE_
FN:127,_ZSt8_DestroyIPP6SensorEvT_S3_
FN:127,_ZSt8_DestroyIPdEvT_S1_
FN:127,_ZSt8_DestroyIPN8nlohmann10basic_jsonISt3mapSt6vectorNSt7__cxx1112basic_stringIcSt11char_traitsIcESaIcEEEblmdSaNS0_14adl_serializerEEEEvT_SD_
FN:203,_ZSt8_DestroyIPddEvT_S1_RSaIT0_E
FN:203,_ZSt8_DestroyIPN8nlohmann10basic_jsonISt3mapSt6vectorNSt7__cxx1112basic_stringIcSt11char_traitsIcESaIcEEEblmdSaNS0_14adl_serializerEEESB_EvT_SD_RSaIT0_E
FN:203,_ZSt8_DestroyIPP6SensorS1_EvT_S3_RSaIT0_E
FN:203,_ZSt8_DestroyIPccEvT_S1_RSaIT0_E
FN:203,_ZSt8_DestroyIPPN8nlohmann10basic_jsonISt3mapSt6vectorNSt7__cxx1112basic_stringIcSt11char_traitsIcESaIcEEEblmdSaNS0_14adl_serializerEEESC_EvT_SE_RSaIT0_E
FNDA:1023,_ZSt10_ConstructIN8nlohmann10basic_jsonISt3mapSt6vectorNSt7__cxx1112basic_stringIcSt11char_traitsIcESaIcEEEblmdSaNS0_14adl_serializerEEEJSB_EEvPT_DpOT0_
FNDA:0,_ZSt10_ConstructIN8nlohmann10basic_jsonISt3mapSt6vectorNSt7__cxx1112basic_stringIcSt11char_traitsIcESaIcEEEblmdSaNS0_14adl_serializerEEEJRKSB_EEvPT_DpOT0_
FNDA:1687,_ZSt8_DestroyIN8nlohmann10basic_jsonISt3mapSt6vectorNSt7__cxx1112basic_stringIcSt11char_traitsIcESaIcEEEblmdSaNS0_14adl_serializerEEEEvPT_
FNDA:12,_ZNSt12_Destroy_auxILb0EE9__destroyIPN8nlohmann10basic_jsonISt3mapSt6vectorNSt7__cxx1112basic_stringIcSt11char_traitsIcESaIcEEEblmdSaNS2_14adl_serializerEEEEEvT_SF_
FNDA:3,_ZNSt12_Destroy_auxILb1EE9__destroyIPPN8nlohmann10basic_jsonISt3mapSt6vectorNSt7__cxx1112basic_stringIcSt11char_traitsIcESaIcEEEblmdSaNS2_14adl_serializerEEEEEvT_SG_
FNDA:41176,_ZNSt12_Destroy_auxILb1EE9__destroyIPcEEvT_S3_
FNDA:36,_ZNSt12_Destroy_auxILb1EE9__destroyIPdEEvT_S3_
FNDA:24,_ZNSt12_Destroy_auxILb1EE9__destroyIPP6SensorEEvT_S5_
FNDA:12,_ZSt8_DestroyIPN8nlohmann10basic_jsonISt3mapSt6vectorNSt7__cxx1112basic_stringIcSt11char_traitsIcESaIcEEEblmdSaNS0_14adl_serializerEEEEvT_SD_
FNDA:3,_ZSt8_DestroyIPPN8nlohmann10basic_jsonISt3mapSt6vectorNSt7__cxx1112basic_stringIcSt11char_traitsIcESaIcEEEblmdSaNS0_14adl_serializerEEEEvT_SE_
FNDA:41176,_ZSt8_DestroyIPcEvT_S1_
FNDA:36,_ZSt8_DestroyIPdEvT_S1_
FNDA:24,_ZSt8_DestroyIPP6SensorEvT_S3_
FNDA:12,_ZSt8_DestroyIPN8nlohmann10basic_jsonISt3mapSt6vectorNSt7__cxx1112basic_stringIcSt11char_traitsIcESaIcEEEblmdSaNS0_14adl_serializerEEESB_EvT_SD_RSaIT0_E
FNDA:3,_ZSt8_DestroyIPPN8nlohmann10basic_jsonISt3mapSt6vectorNSt7__cxx1112basic_stringIcSt11char_traitsIcESaIcEEEblmdSaNS0_14adl_serializerEEESC_EvT_SE_RSaIT0_E
FNDA:41176,_ZSt8_DestroyIPccEvT_S1_RSaIT0_E
FNDA:36,_ZSt8_DestroyIPddEvT_S1_RSaIT0_E
FNDA:24,_ZSt8_DestroyIPP6SensorS1_EvT_S3_RSaIT0_E
FNF:18
FNH:17
DA:74,1023
DA:75,1023
DA:97,1687
DA:98,1687
DA:105,1699
DA:107,3386
DA:108,1687
DA:109,12
DA:117,41239
DA:127,41251
DA:137,41251
DA:138,41251
DA:203,41251
DA:206,41251
DA:207,41251
LF:15
LH:15
end_of_record
SF:/usr/include/c++/7/bits/stl_function.h
FN:462,_ZNKSt4lessIvEclIRKNSt7__cxx1112basic_stringIcSt11char_traitsIcESaIcEEES9_EEDTltcl7forwardIT_Efp_Ecl7forwardIT0_Efp0_EEOSA_OSB_
FN:890,_ZNKSt10_Select1stISt4pairIKNSt7__cxx1112basic_stringIcSt11char_traitsIcESaIcEEEN8nlohmann10basic_jsonISt3mapSt6vectorS6_blmdSaNS8_14adl_serializerEEEEEclERKSE_
FNDA:173304,_ZNKSt4lessIvEclIRKNSt7__cxx1112basic_stringIcSt11char_traitsIcESaIcEEES9_EEDTltcl7forwardIT_Efp_Ecl7forwardIT0_Efp0_EEOSA_OSB_
FNDA:202520,_ZNKSt10_Select1stISt4pairIKNSt7__cxx1112basic_stringIcSt11char_traitsIcESaIcEEEN8nlohmann10basic_jsonISt3mapSt6vectorS6_blmdSaNS8_14adl_serializerEEEEEclERKSE_
FNF:2
FNH:2
DA:462,173304
DA:465,173304
DA:890,202520
DA:891,202520
LF:4
LH:4
end_of_record
SF:/usr/include/c++/7/bits/stl_iterator.h
FN:775,_ZN9__gnu_cxx17__normal_iteratorIPN8nlohmann10basic_jsonISt3mapSt6vectorNSt7__cxx1112basic_stringIcSt11char_traitsIcESaIcEEEblmdSaNS1_14adl_serializerEEES4_ISC_SaISC_EEEC2Ev
FN:779,_ZN9__gnu_cxx17__normal_iteratorIPP6SensorSt6vectorIS2_SaIS2_EEEC2ERKS3_
FN:779,_ZN9__gnu_cxx17__normal_iteratorIPKN8nlohmann10basic_jsonISt3mapSt6vectorNSt7__cxx1112basic_stringIcSt11char_traitsIcESaIcEEEblmdSaNS1_14adl_serializerEEES4_ISC_SaISC_EEEC2ERKSE_
FN:779,_ZN9__gnu_cxx17__normal_iteratorIPKPN8nlohmann10basic_jsonISt3mapSt6vectorNSt7__cxx1112basic_stringIcSt11char_traitsIcESaIcEEEblmdSaNS1_14adl_serializerEEES4_ISD_SaISD_EEEC2ERKSF_
FN:779,_ZN9__gnu_cxx17__normal_iteratorIPKcSt6vectorIcSaIcEEEC2ERKS2_
FN:779,_ZN9__gnu_cxx17__normal_iteratorIPPN8nlohmann10basic_jsonISt3mapSt6vectorNSt7__cxx1112basic_stringIcSt11char_traitsIcESaIcEEEblmdSaNS1_14adl_serializerEEES4_ISD_SaISD_EEEC2ERKSE_
FN:779,_ZN9__gnu_cxx17__normal_iteratorIPN8nlohmann10basic_jsonISt3mapSt6vectorNSt7__cxx1112basic_stringIcSt11char_traitsIcESaIcEEEblmdSaNS1_14adl_serializerEEES4_ISC_SaISC_EEEC2ERKSD_
FN:779,_ZN9__gnu_cxx17__normal_iteratorIPdSt6vectorIdSaIdEEEC2ERKS1_
FN:779,_ZN9__gnu_cxx17__normal_iteratorIPcSt6vectorIcSaIcEEEC2ERKS1_
FN:784,_ZN9__gnu_cxx17__normal_iteratorIPKN8nlohmann10basic_jsonISt3mapSt6vectorNSt7__cxx1112basic_stringIcSt11char_traitsIcESaIcEEEblmdSaNS1_14adl_serializerEEES4_ISC_SaISC_EEEC2IPSC_EERKNS0_IT_NS_11__enable_ifIXsrSt10__are_sameISK_SJ_E7__valueESG_E6__typeEEE
FN:792,_ZNK9__gnu_cxx17__normal_iteratorIPKN8nlohmann10basic_jsonISt3mapSt6vectorNSt7__cxx1112basic_stringIcSt11char_traitsIcESaIcEEEblmdSaNS1_14adl_serializerEEES4_ISC_SaISC_EEEdeEv
FN:792,_ZNK9__gnu_cxx17__normal_iteratorIPPN8nlohmann10basic_jsonISt3mapSt6vectorNSt7__cxx1112basic_stringIcSt11char_traitsIcESaIcEEEblmdSaNS1_14adl_serializerEEES4_ISD_SaISD_EEEdeEv
FN:792,_ZNK9__gnu_cxx17__normal_iteratorIPN8nlohmann10basic_jsonISt3mapSt6vectorNSt7__cxx1112basic_stringIcSt11char_traitsIcESaIcEEEblmdSaNS1_14adl_serializerEEES4_ISC_SaISC_EEEdeEv
FN:792,_ZNK9__gnu_cxx17__normal_iteratorIPP6SensorSt6vectorIS2_SaIS2_EEEdeEv
FN:792,_ZNK9__gnu_cxx17__normal_iteratorIPKcSt6vectorIcSaIcEEEdeEv
FN:800,_ZN9__gnu_cxx17__normal_iteratorIPP6SensorSt6vectorIS2_SaIS2_EEEppEv
FN:800,_ZN9__gnu_cxx17__normal_iteratorIPKcSt6vectorIcSaIcEEEppEv
FN:800,_ZN9__gnu_cxx17__normal_iteratorIPKN8nlohmann10basic_jsonISt3mapSt6vectorNSt7__cxx1112basic_stringIcSt11char_traitsIcESaIcEEEblmdSaNS1_14adl_serializerEEES4_ISC_SaISC_EEEppEv
FN:807,_ZN9__gnu_cxx17__normal_iteratorIPP6SensorSt6vectorIS2_SaIS2_EEEppEi
FN:828,_ZN9__gnu_cxx17__normal_iteratorIPN8nlohmann10basic_jsonISt3mapSt6vectorNSt7__cxx1112basic_stringIcSt11char_traitsIcESaIcEEEblmdSaNS1_14adl_serializerEEES4_ISC_SaISC_EEEpLEl
FN:832,_ZNK9__gnu_cxx17__normal_iteratorIPN8nlohmann10basic_jsonISt3mapSt6vectorNSt7__cxx1112basic_stringIcSt11char_traitsIcESaIcEEEblmdSaNS1_14adl_serializerEEES4_ISC_SaISC_EEEplEl
FN:840,_ZNK9__gnu_cxx17__normal_iteratorIPN8nlohmann10basic_jsonISt3mapSt6vectorNSt7__cxx1112basic_stringIcSt11char_traitsIcESaIcEEEblmdSaNS1_14adl_serializerEEES4_ISC_SaISC_EEEmiEl
FN:840,_ZNK9__gnu_cxx17__normal_iteratorIPPN8nlohmann10basic_jsonISt3mapSt6vectorNSt7__cxx1112basic_stringIcSt11char_traitsIcESaIcEEEblmdSaNS1_14adl_serializerEEES4_ISD_SaISD_EEEmiEl
FN:844,_ZNK9__gnu_cxx17__normal_iteratorIPPN8nlohmann10basic_jsonISt3mapSt6vectorNSt7__cxx1112basic_stringIcSt11char_traitsIcESaIcEEEblmdSaNS1_14adl_serializerEEES4_ISD_SaISD_EEE4baseEv
FN:844,_ZNK9__gnu_cxx17__normal_iteratorIPP6SensorSt6vectorIS2_SaIS2_EEE4baseEv
FN:844,_ZNK9__gnu_cxx17__normal_iteratorIPN8nlohmann10basic_jsonISt3mapSt6vectorNSt7__cxx1112basic_stringIcSt11char_traitsIcESaIcEEEblmdSaNS1_14adl_serializerEEES4_ISC_SaISC_EEE4baseEv
FN:844,_ZNK9__gnu_cxx17__normal_iteratorIPdSt6vectorIdSaIdEEE4baseEv
FN:844,_ZNK9__gnu_cxx17__normal_iteratorIPKN8nlohmann10basic_jsonISt3mapSt6vectorNSt7__cxx1112basic_stringIcSt11char_traitsIcESaIcEEEblmdSaNS1_14adl_serializerEEES4_ISC_SaISC_EEE4baseEv
FN:844,_ZNK9__gnu_cxx17__normal_iteratorIPcSt6vectorIcSaIcEEE4baseEv
FN:844,_ZNK9__gnu_cxx17__normal_iteratorIPKPN8nlohmann10basic_jsonISt3mapSt6vectorNSt7__cxx1112basic_stringIcSt11char_traitsIcESaIcEEEblmdSaNS1_14adl_serializerEEES4_ISD_SaISD_EEE4baseEv
FN:844,_ZNK9__gnu_cxx17__normal_iteratorIPKcSt6vectorIcSaIcEEE4baseEv
FN:866,_ZN9__gnu_cxxeqIPKPN8nlohmann10basic_jsonISt3mapSt6vectorNSt7__cxx1112basic_stringIcSt11char_traitsIcESaIcEEEblmdSaNS1_14adl_serializerEEES4_ISD_SaISD_EEEEbRKNS_17__normal_iteratorIT_T0_EESN_
FN:866,_ZN9__gnu_cxxeqIPN8nlohmann10basic_jsonISt3mapSt6vectorNSt7__cxx1112basic_stringIcSt11char_traitsIcESaIcEEEblmdSaNS1_14adl_serializerEEES4_ISC_SaISC_EEEEbRKNS_17__normal_iteratorIT_T0_EESL_
FN:880,_ZN9__gnu_cxxneIPP6SensorSt6vectorIS2_SaIS2_EEEEbRKNS_17__normal_iteratorIT_T0_EESC_
FN:880,_ZN9__gnu_cxxneIPKN8nlohmann10basic_jsonISt3mapSt6vectorNSt7__cxx1112basic_stringIcSt11char_traitsIcESaIcEEEblmdSaNS1_14adl_serializerEEES4_ISC_SaISC_EEEEbRKNS_17__normal_iteratorIT_T0_EESM_
FN:880,_ZN9__gnu_cxxneIPN8nlohmann10basic_jsonISt3mapSt6vectorNSt7__cxx1112basic_stringIcSt11char_traitsIcESaIcEEEblmdSaNS1_14adl_serializerEEES4_ISC_SaISC_EEEEbRKNS_17__normal_iteratorIT_T0_EESL_
FN:880,_ZN9__gnu_cxxneIPKcSt6vectorIcSaIcEEEEbRKNS_17__normal_iteratorIT_T0_EESB_
FN:962,_ZN9__gnu_cxxmiIPP6SensorSt6vectorIS2_SaIS2_EEEENS_17__normal_iteratorIT_T0_E15difference_typeERKSA_SD_
FN:962,_ZN9__gnu_cxxmiIPKN8nlohmann10basic_jsonISt3mapSt6vectorNSt7__cxx1112basic_stringIcSt11char_traitsIcESaIcEEEblmdSaNS1_14adl_serializerEEES4_ISC_SaISC_EEEENS_17__normal_iteratorIT_T0_E15difference_typeERKSK_SN_
FN:962,_ZN9__gnu_cxxmiIPdSt6vectorIdSaIdEEEENS_17__normal_iteratorIT_T0_E15difference_typeERKS8_SB_
FN:962,_ZN9__gnu_cxxmiIPN8nlohmann10basic_jsonISt3mapSt6vectorNSt7__cxx1112basic_stringIcSt11char_traitsIcESaIcEEEblmdSaNS1_14adl_serializerEEES4_ISC_SaISC_EEEENS_17__normal_iteratorIT_T0_E15difference_typeERKSJ_SM_
FN:962,_ZN9__gnu_cxxmiIPcSt6vectorIcSaIcEEEENS_17__normal_iteratorIT_T0_E15difference_typeERKS8_SB_
FN:962,_ZN9__gnu_cxxmiIPPN8nlohmann10basic_jsonISt3mapSt6vectorNSt7__cxx1112basic_stringIcSt11char_traitsIcESaIcEEEblmdSaNS1_14adl_serializerEEES4_ISD_SaISD_EEEENS_17__normal_iteratorIT_T0_E15difference_typeERKSK_SN_
FN:983,_ZSt12__niter_baseIPN8nlohmann10basic_jsonISt3mapSt6vectorNSt7__cxx1112basic_stringIcSt11char_traitsIcESaIcEEEblmdSaNS0_14adl_serializerEEES3_ISB_SaISB_EEET_N9__gnu_cxx17__normal_iteratorISF_T0_EE
FN:1036,_ZNSt13move_iteratorIPPN8nlohmann10basic_jsonISt3mapSt6vectorNSt7__cxx1112basic_stringIcSt11char_traitsIcESaIcEEEblmdSaNS0_14adl_serializerEEEEC2ESD_
FN:1036,_ZNSt13move_iteratorIPcEC2ES0_
FN:1036,_ZNSt13move_iteratorIPP6SensorEC2ES2_
FN:1036,_ZNSt13move_iteratorIPdEC2ES0_
FN:1036,_ZNSt13move_iteratorIPN8nlohmann10basic_jsonISt3mapSt6vectorNSt7__cxx1112basic_stringIcSt11char_traitsIcESaIcEEEblmdSaNS0_14adl_serializerEEEEC2ESC_
FN:1045,_ZNKSt13move_iteratorIPP6SensorE4baseEv
FN:1045,_ZNKSt13move_iteratorIPcE4baseEv
FN:1045,_ZNKSt13move_iteratorIPdE4baseEv
FN:1045,_ZNKSt13move_iteratorIPPN8nlohmann10basic_jsonISt3mapSt6vectorNSt7__cxx1112basic_stringIcSt11char_traitsIcESaIcEEEblmdSaNS0_14adl_serializerEEEE4baseEv
FN:1045,_ZNKSt13move_iteratorIPN8nlohmann10basic_jsonISt3mapSt6vectorNSt7__cxx1112basic_stringIcSt11char_traitsIcESaIcEEEblmdSaNS0_14adl_serializerEEEE4baseEv
FN:1049,_ZNKSt13move_iteratorIPN8nlohmann10basic_jsonISt3mapSt6vectorNSt7__cxx1112basic_stringIcSt11char_traitsIcESaIcEEEblmdSaNS0_14adl_serializerEEEEdeEv
FN:1057,_ZNSt13move_iteratorIPN8nlohmann10basic_jsonISt3mapSt6vectorNSt7__cxx1112basic_stringIcSt11char_traitsIcESaIcEEEblmdSaNS0_14adl_serializerEEEEppEv
FN:1124,_ZSteqIPN8nlohmann10basic_jsonISt3mapSt6vectorNSt7__cxx1112basic_stringIcSt11char_traitsIcESaIcEEEblmdSaNS0_14adl_serializerEEEEbRKSt13move_iteratorIT_ESH_
FN:1136,_ZStneIPN8nlohmann10basic_jsonISt3mapSt6vectorNSt7__cxx1112basic_stringIcSt11char_traitsIcESaIcEEEblmdSaNS0_14adl_serializerEEEEbRKSt13move_iteratorIT_ESH_
FN:1221,_ZSt32__make_move_if_noexcept_iteratorIN8nlohmann10basic_jsonISt3mapSt6vectorNSt7__cxx1112basic_stringIcSt11char_traitsIcESaIcEEEblmdSaNS0_14adl_serializerEEESt13move_iteratorIPSB_EET0_PT_
FN:1221,_ZSt32__make_move_if_noexcept_iteratorIPN8nlohmann10basic_jsonISt3mapSt6vectorNSt7__cxx1112basic_stringIcSt11char_traitsIcESaIcEEEblmdSaNS0_14adl_serializerEEESt13move_iteratorIPSC_EET0_PT_
FN:1221,_ZSt32__make_move_if_noexcept_iteratorIcSt13move_iteratorIPcEET0_PT_
FN:1221,_ZSt32__make_move_if_noexcept_iteratorIP6SensorSt13move_iteratorIPS1_EET0_PT_
FN:1221,_ZSt32__make_move_if_noexcept_iteratorIdSt13move_iteratorIPdEET0_PT_
FN:1241,_ZSt12__miter_baseIPcEDTcl12__miter_basecldtfp_4baseEEESt13move_iteratorIT_E
FN:1241,_ZSt12__miter_baseIPP6SensorEDTcl12__miter_basecldtfp_4baseEEESt13move_iteratorIT_E
FN:1241,_ZSt12__miter_baseIPdEDTcl12__miter_basecldtfp_4baseEEESt13move_iteratorIT_E
FN:1241,_ZSt12__miter_baseIPPN8nlohmann10basic_jsonISt3mapSt6vectorNSt7__cxx1112basic_stringIcSt11char_traitsIcESaIcEEEblmdSaNS0_14adl_serializerEEEEDTcl12__miter_basecldtfp_4baseEEESt13move_iteratorIT_E
FNDA:7972,_ZN9__gnu_cxx17__normal_iteratorIPN8nlohmann10basic_jsonISt3mapSt6vectorNSt7__cxx1112basic_stringIcSt11char_traitsIcESaIcEEEblmdSaNS1_14adl_serializerEEES4_ISC_SaISC_EEEC2Ev
FNDA:42498,_ZN9__gnu_cxx17__normal_iteratorIPKPN8nlohmann10basic_jsonISt3mapSt6vectorNSt7__cxx1112basic_stringIcSt11char_traitsIcESaIcEEEblmdSaNS1_14adl_serializerEEES4_ISD_SaISD_EEEC2ERKSF_
FNDA:169988,_ZN9__gnu_cxx17__normal_iteratorIPPN8nlohmann10basic_jsonISt3mapSt6vectorNSt7__cxx1112basic_stringIcSt11char_traitsIcESaIcEEEblmdSaNS1_14adl_serializerEEES4_ISD_SaISD_EEEC2ERKSE_
FNDA:14,_ZN9__gnu_cxx17__normal_iteratorIPcSt6vectorIcSaIcEEEC2ERKS1_
FNDA:0,_ZN9__gnu_cxx17__normal_iteratorIPKcSt6vectorIcSaIcEEEC2ERKS2_
FNDA:68,_ZN9__gnu_cxx17__normal_iteratorIPdSt6vectorIdSaIdEEEC2ERKS1_
FNDA:0,_ZN9__gnu_cxx17__normal_iteratorIPKN8nlohmann10basic_jsonISt3mapSt6vectorNSt7__cxx1112basic_stringIcSt11char_traitsIcESaIcEEEblmdSaNS1_14adl_serializerEEES4_ISC_SaISC_EEEC2ERKSE_
FNDA:2016,_ZN9__gnu_cxx17__normal_iteratorIPN8nlohmann10basic_jsonISt3mapSt6vectorNSt7__cxx1112basic_stringIcSt11char_traitsIcESaIcEEEblmdSaNS1_14adl_serializerEEES4_ISC_SaISC_EEEC2ERKSD_
FNDA:2708,_ZN9__gnu_cxx17__normal_iteratorIPP6SensorSt6vectorIS2_SaIS2_EEEC2ERKS3_
FNDA:0,_ZN9__gnu_cxx17__normal_iteratorIPKN8nlohmann10basic_jsonISt3mapSt6vectorNSt7__cxx1112basic_stringIcSt11char_traitsIcESaIcEEEblmdSaNS1_14adl_serializerEEES4_ISC_SaISC_EEEC2IPSC_EERKNS0_IT_NS_11__enable_ifIXsrSt10__are_sameISK_SJ_E7__valueESG_E6__typeEEE
FNDA:84992,_ZNK9__gnu_cxx17__normal_iteratorIPPN8nlohmann10basic_jsonISt3mapSt6vectorNSt7__cxx1112basic_stringIcSt11char_traitsIcESaIcEEEblmdSaNS1_14adl_serializerEEES4_ISD_SaISD_EEEdeEv
FNDA:0,_ZNK9__gnu_cxx17__normal_iteratorIPKcSt6vectorIcSaIcEEEdeEv
FNDA:0,_ZNK9__gnu_cxx17__normal_iteratorIPKN8nlohmann10basic_jsonISt3mapSt6vectorNSt7__cxx1112basic_stringIcSt11char_traitsIcESaIcEEEblmdSaNS1_14adl_serializerEEES4_ISC_SaISC_EEEdeEv
FNDA:1328,_ZNK9__gnu_cxx17__normal_iteratorIPN8nlohmann10basic_jsonISt3mapSt6vectorNSt7__cxx1112basic_stringIcSt11char_traitsIcESaIcEEEblmdSaNS1_14adl_serializerEEES4_ISC_SaISC_EEEdeEv
FNDA:2656,_ZNK9__gnu_cxx17__normal_iteratorIPP6SensorSt6vectorIS2_SaIS2_EEEdeEv
FNDA:0,_ZN9__gnu_cxx17__normal_iteratorIPKcSt6vectorIcSaIcEEEppEv
FNDA:0,_ZN9__gnu_cxx17__normal_iteratorIPKN8nlohmann10basic_jsonISt3mapSt6vectorNSt7__cxx1112basic_stringIcSt11char_traitsIcESaIcEEEblmdSaNS1_14adl_serializerEEES4_ISC_SaISC_EEEppEv
FNDA:1328,_ZN9__gnu_cxx17__normal_iteratorIPP6SensorSt6vectorIS2_SaIS2_EEEppEv
FNDA:1328,_ZN9__gnu_cxx17__normal_iteratorIPP6SensorSt6vectorIS2_SaIS2_EEEppEi
FNDA:664,_ZN9__gnu_cxx17__normal_iteratorIPN8nlohmann10basic_jsonISt3mapSt6vectorNSt7__cxx1112basic_stringIcSt11char_traitsIcESaIcEEEblmdSaNS1_14adl_serializerEEES4_ISC_SaISC_EEEpLEl
FNDA:0,_ZNK9__gnu_cxx17__normal_iteratorIPN8nlohmann10basic_jsonISt3mapSt6vectorNSt7__cxx1112basic_stringIcSt11char_traitsIcESaIcEEEblmdSaNS1_14adl_serializerEEES4_ISC_SaISC_EEEplEl
FNDA:84992,_ZNK9__gnu_cxx17__normal_iteratorIPPN8nlohmann10basic_jsonISt3mapSt6vectorNSt7__cxx1112basic_stringIcSt11char_traitsIcESaIcEEEblmdSaNS1_14adl_serializerEEES4_ISD_SaISD_EEEmiEl
FNDA:664,_ZNK9__gnu_cxx17__normal_iteratorIPN8nlohmann10basic_jsonISt3mapSt6vectorNSt7__cxx1112basic_stringIcSt11char_traitsIcESaIcEEEblmdSaNS1_14adl_serializerEEES4_ISC_SaISC_EEEmiEl
FNDA:42498,_ZNK9__gnu_cxx17__normal_iteratorIPKPN8nlohmann10basic_jsonISt3mapSt6vectorNSt7__cxx1112basic_stringIcSt11char_traitsIcESaIcEEEblmdSaNS1_14adl_serializerEEES4_ISD_SaISD_EEE4baseEv
FNDA:8,_ZNK9__gnu_cxx17__normal_iteratorIPPN8nlohmann10basic_jsonISt3mapSt6vectorNSt7__cxx1112basic_stringIcSt11char_traitsIcESaIcEEEblmdSaNS1_14adl_serializerEEES4_ISD_SaISD_EEE4baseEv
FNDA:28,_ZNK9__gnu_cxx17__normal_iteratorIPcSt6vectorIcSaIcEEE4baseEv
FNDA:0,_ZNK9__gnu_cxx17__normal_iteratorIPKcSt6vectorIcSaIcEEE4baseEv
FNDA:1462,_ZNK9__gnu_cxx17__normal_iteratorIPdSt6vectorIdSaIdEEE4baseEv
FNDA:0,_ZNK9__gnu_cxx17__normal_iteratorIPKN8nlohmann10basic_jsonISt3mapSt6vectorNSt7__cxx1112basic_stringIcSt11char_traitsIcESaIcEEEblmdSaNS1_14adl_serializerEEES4_ISC_SaISC_EEE4baseEv
FNDA:2702,_ZNK9__gnu_cxx17__normal_iteratorIPN8nlohmann10basic_jsonISt3mapSt6vectorNSt7__cxx1112basic_stringIcSt11char_traitsIcESaIcEEEblmdSaNS1_14adl_serializerEEES4_ISC_SaISC_EEE4baseEv
FNDA:5408,_ZNK9__gnu_cxx17__normal_iteratorIPP6SensorSt6vectorIS2_SaIS2_EEE4baseEv
FNDA:21249,_ZN9__gnu_cxxeqIPKPN8nlohmann10basic_jsonISt3mapSt6vectorNSt7__cxx1112basic_stringIcSt11char_traitsIcESaIcEEEblmdSaNS1_14adl_serializerEEES4_ISD_SaISD_EEEEbRKNS_17__normal_iteratorIT_T0_EESN_
FNDA:665,_ZN9__gnu_cxxeqIPN8nlohmann10basic_jsonISt3mapSt6vectorNSt7__cxx1112basic_stringIcSt11char_traitsIcESaIcEEEblmdSaNS1_14adl_serializerEEES4_ISC_SaISC_EEEEbRKNS_17__normal_iteratorIT_T0_EESL_
FNDA:0,_ZN9__gnu_cxxneIPKcSt6vectorIcSaIcEEEEbRKNS_17__normal_iteratorIT_T0_EESB_
FNDA:0,_ZN9__gnu_cxxneIPKN8nlohmann10basic_jsonISt3mapSt6vectorNSt7__cxx1112basic_stringIcSt11char_traitsIcESaIcEEEblmdSaNS1_14adl_serializerEEES4_ISC_SaISC_EEEEbRKNS_17__normal_iteratorIT_T0_EESM_
FNDA:664,_ZN9__gnu_cxxneIPN8nlohmann10basic_jsonISt3mapSt6vectorNSt7__cxx1112basic_stringIcSt11char_traitsIcESaIcEEEblmdSaNS1_14adl_serializerEEES4_ISC_SaISC_EEEEbRKNS_17__normal_iteratorIT_T0_EESL_
FNDA:2660,_ZN9__gnu_cxxneIPP6SensorSt6vectorIS2_SaIS2_EEEEbRKNS_17__normal_iteratorIT_T0_EESC_
FNDA:11,_ZN9__gnu_cxxmiIPN8nlohmann10basic_jsonISt3mapSt6vectorNSt7__cxx1112basic_stringIcSt11char_traitsIcESaIcEEEblmdSaNS1_14adl_serializerEEES4_ISC_SaISC_EEEENS_17__normal_iteratorIT_T0_E15difference_typeERKSJ_SM_
FNDA:0,_ZN9__gnu_cxxmiIPKN8nlohmann10basic_jsonISt3mapSt6vectorNSt7__cxx1112basic_stringIcSt11char_traitsIcESaIcEEEblmdSaNS1_14adl_serializerEEES4_ISC_SaISC_EEEENS_17__normal_iteratorIT_T0_E15difference_typeERKSK_SN_
FNDA:2,_ZN9__gnu_cxxmiIPPN8nlohmann10basic_jsonISt3mapSt6vectorNSt7__cxx1112basic_stringIcSt11char_traitsIcESaIcEEEblmdSaNS1_14adl_serializerEEES4_ISD_SaISD_EEEENS_17__normal_iteratorIT_T0_E15difference_typeERKSK_SN_
FNDA:7,_ZN9__gnu_cxxmiIPcSt6vectorIcSaIcEEEENS_17__normal_iteratorIT_T0_E15difference_typeERKS8_SB_
FNDA:33,_ZN9__gnu_cxxmiIPdSt6vectorIdSaIdEEEENS_17__normal_iteratorIT_T0_E15difference_typeERKS8_SB_
FNDA:22,_ZN9__gnu_cxxmiIPP6SensorSt6vectorIS2_SaIS2_EEEENS_17__normal_iteratorIT_T0_E15difference_typeERKSA_SD_
FNDA:0,_ZSt12__niter_baseIPN8nlohmann10basic_jsonISt3mapSt6vectorNSt7__cxx1112basic_stringIcSt11char_traitsIcESaIcEEEblmdSaNS0_14adl_serializerEEES3_ISB_SaISB_EEET_N9__gnu_cxx17__normal_iteratorISF_T0_EE
FNDA:44,_ZNSt13move_iteratorIPN8nlohmann10basic_jsonISt3mapSt6vectorNSt7__cxx1112basic_stringIcSt11char_traitsIcESaIcEEEblmdSaNS0_14adl_serializerEEEEC2ESC_
FNDA:8,_ZNSt13move_iteratorIPPN8nlohmann10basic_jsonISt3mapSt6vectorNSt7__cxx1112basic_stringIcSt11char_traitsIcESaIcEEEblmdSaNS0_14adl_serializerEEEEC2ESD_
FNDA:28,_ZNSt13move_iteratorIPcEC2ES0_
FNDA:132,_ZNSt13move_iteratorIPdEC2ES0_
FNDA:88,_ZNSt13move_iteratorIPP6SensorEC2ES2_
FNDA:2090,_ZNKSt13move_iteratorIPN8nlohmann10basic_jsonISt3mapSt6vectorNSt7__cxx1112basic_stringIcSt11char_traitsIcESaIcEEEblmdSaNS0_14adl_serializerEEEE4baseEv
FNDA:8,_ZNKSt13move_iteratorIPPN8nlohmann10basic_jsonISt3mapSt6vectorNSt7__cxx1112basic_stringIcSt11char_traitsIcESaIcEEEblmdSaNS0_14adl_serializerEEEE4baseEv
FNDA:28,_ZNKSt13move_iteratorIPcE4baseEv
FNDA:132,_ZNKSt13move_iteratorIPdE4baseEv
FNDA:88,_ZNKSt13move_iteratorIPP6SensorE4baseEv
FNDA:1023,_ZNKSt13move_iteratorIPN8nlohmann10basic_jsonISt3mapSt6vectorNSt7__cxx1112basic_stringIcSt11char_traitsIcESaIcEEEblmdSaNS0_14adl_serializerEEEEdeEv
FNDA:1023,_ZNSt13move_iteratorIPN8nlohmann10basic_jsonISt3mapSt6vectorNSt7__cxx1112basic_stringIcSt11char_traitsIcESaIcEEEblmdSaNS0_14adl_serializerEEEEppEv
FNDA:1045,_ZSteqIPN8nlohmann10basic_jsonISt3mapSt6vectorNSt7__cxx1112basic_stringIcSt11char_traitsIcESaIcEEEblmdSaNS0_14adl_serializerEEEEbRKSt13move_iteratorIT_ESH_
FNDA:1045,_ZStneIPN8nlohmann10basic_jsonISt3mapSt6vectorNSt7__cxx1112basic_stringIcSt11char_traitsIcESaIcEEEblmdSaNS0_14adl_serializerEEEEbRKSt13move_iteratorIT_ESH_
FNDA:44,_ZSt32__make_move_if_noexcept_iteratorIN8nlohmann10basic_jsonISt3mapSt6vectorNSt7__cxx1112basic_stringIcSt11char_traitsIcESaIcEEEblmdSaNS0_14adl_serializerEEESt13move_iteratorIPSB_EET0_PT_
FNDA:8,_ZSt32__make_move_if_noexcept_iteratorIPN8nlohmann10basic_jsonISt3mapSt6vectorNSt7__cxx1112basic_stringIcSt11char_traitsIcESaIcEEEblmdSaNS0_14adl_serializerEEESt13move_iteratorIPSC_EET0_PT_
FNDA:28,_ZSt32__make_move_if_noexcept_iteratorIcSt13move_iteratorIPcEET0_PT_
FNDA:132,_ZSt32__make_move_if_noexcept_iteratorIdSt13move_iteratorIPdEET0_PT_
FNDA:88,_ZSt32__make_move_if_noexcept_iteratorIP6SensorSt13move_iteratorIPS1_EET0_PT_
FNDA:8,_ZSt12__miter_baseIPPN8nlohmann10basic_jsonISt3mapSt6vectorNSt7__cxx1112basic_stringIcSt11char_traitsIcESaIcEEEblmdSaNS0_14adl_serializerEEEEDTcl12__miter_basecldtfp_4baseEEESt13move_iteratorIT_E
FNDA:28,_ZSt12__miter_baseIPcEDTcl12__miter_basecldtfp_4baseEEESt13move_iteratorIT_E
FNDA:132,_ZSt12__miter_baseIPdEDTcl12__miter_basecldtfp_4baseEEESt13move_iteratorIT_E
FNDA:88,_ZSt12__miter_baseIPP6SensorEDTcl12__miter_basecldtfp_4baseEEESt13move_iteratorIT_E
FNF:67
FNH:53
DA:775,7972
DA:776,7972
DA:779,217292
DA:780,217292
DA:784,0
DA:788,0
DA:792,88976
DA:793,88976
DA:800,1328
DA:802,1328
DA:803,1328
DA:807,1328
DA:808,1328
DA:828,664
DA:829,664
DA:832,0
DA:833,0
DA:840,85656
DA:841,85656
DA:844,52106
DA:845,52106
DA:866,21914
DA:869,21914
DA:880,3324
DA:883,3324
DA:962,75
DA:965,75
DA:983,0
DA:984,0
DA:1036,300
DA:1037,300
DA:1045,2346
DA:1046,2346
DA:1049,1023
DA:1050,1023
DA:1057,1023
DA:1059,1023
DA:1060,1023
DA:1124,1045
DA:1126,1045
DA:1136,1045
DA:1138,1045
DA:1221,300
DA:1222,300
DA:1241,256
DA:1243,256
LF:46
LH:40
end_of_record
SF:/usr/include/c++/7/bits/stl_iterator_base_funcs.h
FN:98,_ZSt10__distanceIPcENSt15iterator_traitsIT_E15difference_typeES2_S2_St26random_access_iterator_tag
FN:138,_ZSt8distanceIPcENSt15iterator_traitsIT_E15difference_typeES2_S2_
FN:158,_ZSt9__advanceISt17_Rb_tree_iteratorISt4pairIKNSt7__cxx1112basic_stringIcSt11char_traitsIcESaIcEEEN8nlohmann10basic_jsonISt3mapSt6vectorS7_blmdSaNS9_14adl_serializerEEEEElEvRT_T0_St26bidirectional_iterator_tag
FN:174,_ZSt9__advanceIN9__gnu_cxx17__normal_iteratorIPN8nlohmann10basic_jsonISt3mapSt6vectorNSt7__cxx1112basic_stringIcSt11char_traitsIcESaIcEEEblmdSaNS2_14adl_serializerEEES5_ISD_SaISD_EEEElEvRT_T0_St26random_access_iterator_tag
FN:197,_ZSt7advanceISt17_Rb_tree_iteratorISt4pairIKNSt7__cxx1112basic_stringIcSt11char_traitsIcESaIcEEEN8nlohmann10basic_jsonISt3mapSt6vectorS7_blmdSaNS9_14adl_serializerEEEEEiEvRT_T0_
FN:197,_ZSt7advanceIN9__gnu_cxx17__normal_iteratorIPN8nlohmann10basic_jsonISt3mapSt6vectorNSt7__cxx1112basic_stringIcSt11char_traitsIcESaIcEEEblmdSaNS2_14adl_serializerEEES5_ISD_SaISD_EEEEiEvRT_T0_
FNDA:49136,_ZSt10__distanceIPcENSt15iterator_traitsIT_E15difference_typeES2_S2_St26random_access_iterator_tag
FNDA:49136,_ZSt8distanceIPcENSt15iterator_traitsIT_E15difference_typeES2_S2_
FNDA:0,_ZSt9__advanceISt17_Rb_tree_iteratorISt4pairIKNSt7__cxx1112basic_stringIcSt11char_traitsIcESaIcEEEN8nlohmann10basic_jsonISt3mapSt6vectorS7_blmdSaNS9_14adl_serializerEEEEElEvRT_T0_St26bidirectional_iterator_tag
FNDA:664,_ZSt9__advanceIN9__gnu_cxx17__normal_iteratorIPN8nlohmann10basic_jsonISt3mapSt6vectorNSt7__cxx1112basic_stringIcSt11char_traitsIcESaIcEEEblmdSaNS2_14adl_serializerEEES5_ISD_SaISD_EEEElEvRT_T0_St26random_access_iterator_tag
FNDA:664,_ZSt7advanceIN9__gnu_cxx17__normal_iteratorIPN8nlohmann10basic_jsonISt3mapSt6vectorNSt7__cxx1112basic_stringIcSt11char_traitsIcESaIcEEEblmdSaNS2_14adl_serializerEEES5_ISD_SaISD_EEEEiEvRT_T0_
FNDA:0,_ZSt7advanceISt17_Rb_tree_iteratorISt4pairIKNSt7__cxx1112basic_stringIcSt11char_traitsIcESaIcEEEN8nlohmann10basic_jsonISt3mapSt6vectorS7_blmdSaNS9_14adl_serializerEEEEEiEvRT_T0_
FNF:6
FNH:4
DA:98,49136
DA:104,49136
DA:138,49136
DA:141,49136
DA:142,98272
DA:158,0
DA:164,0
DA:165,0
DA:166,0
DA:168,0
DA:169,0
DA:170,0
DA:174,664
DA:180,664
DA:181,664
DA:197,664
DA:200,664
DA:201,664
DA:202,664
LF:19
LH:12
end_of_record
SF:/usr/include/c++/7/bits/stl_iterator_base_types.h
FN:205,_ZSt19__iterator_categoryISt17_Rb_tree_iteratorISt4pairIKNSt7__cxx1112basic_stringIcSt11char_traitsIcESaIcEEEN8nlohmann10basic_jsonISt3mapSt6vectorS7_blmdSaNS9_14adl_serializerEEEEEENSt15iterator_traitsIT_E17iterator_categoryERKSI_
FN:205,_ZSt19__iterator_categoryIN9__gnu_cxx17__normal_iteratorIPN8nlohmann10basic_jsonISt3mapSt6vectorNSt7__cxx1112basic_stringIcSt11char_traitsIcESaIcEEEblmdSaNS2_14adl_serializerEEES5_ISD_SaISD_EEEEENSt15iterator_traitsIT_E17iterator_categoryERKSJ_
FN:205,_ZSt19__iterator_categoryIPcENSt15iterator_traitsIT_E17iterator_categoryERKS2_
FNDA:49136,_ZSt19__iterator_categoryIPcENSt15iterator_traitsIT_E17iterator_categoryERKS2_
FNDA:664,_ZSt19__iterator_categoryIN9__gnu_cxx17__normal_iteratorIPN8nlohmann10basic_jsonISt3mapSt6vectorNSt7__cxx1112basic_stringIcSt11char_traitsIcESaIcEEEblmdSaNS2_14adl_serializerEEES5_ISD_SaISD_EEEEENSt15iterator_traitsIT_E17iterator_categoryERKSJ_
FNDA:0,_ZSt19__iterator_categoryISt17_Rb_tree_iteratorISt4pairIKNSt7__cxx1112basic_stringIcSt11char_traitsIcESaIcEEEN8nlohmann10basic_jsonISt3mapSt6vectorS7_blmdSaNS9_14adl_serializerEEEEEENSt15iterator_traitsIT_E17iterator_categoryERKSI_
FNF:3
FNH:2
DA:205,49800
DA:206,49800
LF:2
LH:2
end_of_record
SF:/usr/include/c++/7/bits/stl_map.h
FN:177,_ZNSt3mapINSt7__cxx1112basic_stringIcSt11char_traitsIcESaIcEEEN8nlohmann10basic_jsonIS_St6vectorS5_blmdSaNS6_14adl_serializerEEESt4lessIvESaISt4pairIKS5_SA_EEEC2Ev
FN:199,_ZNSt3mapINSt7__cxx1112basic_stringIcSt11char_traitsIcESaIcEEEN8nlohmann10basic_jsonIS_St6vectorS5_blmdSaNS6_14adl_serializerEEESt4lessIvESaISt4pairIKS5_SA_EEEC2ERKSH_
FN:294,_ZNSt3mapINSt7__cxx1112basic_stringIcSt11char_traitsIcESaIcEEEN8nlohmann10basic_jsonIS_St6vectorS5_blmdSaNS6_14adl_serializerEEESt4lessIvESaISt4pairIKS5_SA_EEED2Ev
FN:348,_ZNSt3mapINSt7__cxx1112basic_stringIcSt11char_traitsIcESaIcEEEN8nlohmann10basic_jsonIS_St6vectorS5_blmdSaNS6_14adl_serializerEEESt4lessIvESaISt4pairIKS5_SA_EEE5beginEv
FN:366,_ZNSt3mapINSt7__cxx1112basic_stringIcSt11char_traitsIcESaIcEEEN8nlohmann10basic_jsonIS_St6vectorS5_blmdSaNS6_14adl_serializerEEESt4lessIvESaISt4pairIKS5_SA_EEE3endEv
FN:462,_ZNKSt3mapINSt7__cxx1112basic_stringIcSt11char_traitsIcESaIcEEEN8nlohmann10basic_jsonIS_St6vectorS5_blmdSaNS6_14adl_serializerEEESt4lessIvESaISt4pairIKS5_SA_EEE4sizeEv
FN:467,_ZNKSt3mapINSt7__cxx1112basic_stringIcSt11char_traitsIcESaIcEEEN8nlohmann10basic_jsonIS_St6vectorS5_blmdSaNS6_14adl_serializerEEESt4lessIvESaISt4pairIKS5_SA_EEE8max_sizeEv
FN:484,_ZNSt3mapINSt7__cxx1112basic_stringIcSt11char_traitsIcESaIcEEEN8nlohmann10basic_jsonIS_St6vectorS5_blmdSaNS6_14adl_serializerEEESt4lessIvESaISt4pairIKS5_SA_EEEixERSE_
FN:1031,_ZNSt3mapINSt7__cxx1112basic_stringIcSt11char_traitsIcESaIcEEEN8nlohmann10basic_jsonIS_St6vectorS5_blmdSaNS6_14adl_serializerEEESt4lessIvESaISt4pairIKS5_SA_EEE5eraseB5cxx11ESt17_Rb_tree_iteratorISF_E
FN:1136,_ZNKSt3mapINSt7__cxx1112basic_stringIcSt11char_traitsIcESaIcEEEN8nlohmann10basic_jsonIS_St6vectorS5_blmdSaNS6_14adl_serializerEEESt4lessIvESaISt4pairIKS5_SA_EEE8key_compEv
FN:1163,_ZNSt3mapINSt7__cxx1112basic_stringIcSt11char_traitsIcESaIcEEEN8nlohmann10basic_jsonIS_St6vectorS5_blmdSaNS6_14adl_serializerEEESt4lessIvESaISt4pairIKS5_SA_EEE4findERSE_
FN:1233,_ZNSt3mapINSt7__cxx1112basic_stringIcSt11char_traitsIcESaIcEEEN8nlohmann10basic_jsonIS_St6vectorS5_blmdSaNS6_14adl_serializerEEESt4lessIvESaISt4pairIKS5_SA_EEE11lower_boundERSE_
FNDA:664,_ZNSt3mapINSt7__cxx1112basic_stringIcSt11char_traitsIcESaIcEEEN8nlohmann10basic_jsonIS_St6vectorS5_blmdSaNS6_14adl_serializerEEESt4lessIvESaISt4pairIKS5_SA_EEEC2Ev
FNDA:664,_ZNSt3mapINSt7__cxx1112basic_stringIcSt11char_traitsIcESaIcEEEN8nlohmann10basic_jsonIS_St6vectorS5_blmdSaNS6_14adl_serializerEEESt4lessIvESaISt4pairIKS5_SA_EEEC2ERKSH_
FNDA:1328,_ZNSt3mapINSt7__cxx1112basic_stringIcSt11char_traitsIcESaIcEEEN8nlohmann10basic_jsonIS_St6vectorS5_blmdSaNS6_14adl_serializerEEESt4lessIvESaISt4pairIKS5_SA_EEED2Ev
FNDA:0,_ZNSt3mapINSt7__cxx1112basic_stringIcSt11char_traitsIcESaIcEEEN8nlohmann10basic_jsonIS_St6vectorS5_blmdSaNS6_14adl_serializerEEESt4lessIvESaISt4pairIKS5_SA_EEE5beginEv
FNDA:32536,_ZNSt3mapINSt7__cxx1112basic_stringIcSt11char_traitsIcESaIcEEEN8nlohmann10basic_jsonIS_St6vectorS5_blmdSaNS6_14adl_serializerEEESt4lessIvESaISt4pairIKS5_SA_EEE3endEv
FNDA:0,_ZNKSt3mapINSt7__cxx1112basic_stringIcSt11char_traitsIcESaIcEEEN8nlohmann10basic_jsonIS_St6vectorS5_blmdSaNS6_14adl_serializerEEESt4lessIvESaISt4pairIKS5_SA_EEE4sizeEv
FNDA:0,_ZNKSt3mapINSt7__cxx1112basic_stringIcSt11char_traitsIcESaIcEEEN8nlohmann10basic_jsonIS_St6vectorS5_blmdSaNS6_14adl_serializerEEESt4lessIvESaISt4pairIKS5_SA_EEE8max_sizeEv
FNDA:20584,_ZNSt3mapINSt7__cxx1112basic_stringIcSt11char_traitsIcESaIcEEEN8nlohmann10basic_jsonIS_St6vectorS5_blmdSaNS6_14adl_serializerEEESt4lessIvESaISt4pairIKS5_SA_EEEixERSE_
FNDA:0,_ZNSt3mapINSt7__cxx1112basic_stringIcSt11char_traitsIcESaIcEEEN8nlohmann10basic_jsonIS_St6vectorS5_blmdSaNS6_14adl_serializerEEESt4lessIvESaISt4pairIKS5_SA_EEE5eraseB5cxx11ESt17_Rb_tree_iteratorISF_E
FNDA:8632,_ZNKSt3mapINSt7__cxx1112basic_stringIcSt11char_traitsIcESaIcEEEN8nlohmann10basic_jsonIS_St6vectorS5_blmdSaNS6_14adl_serializerEEESt4lessIvESaISt4pairIKS5_SA_EEE8key_compEv
FNDA:3984,_ZNSt3mapINSt7__cxx1112basic_stringIcSt11char_traitsIcESaIcEEEN8nlohmann10basic_jsonIS_St6vectorS5_blmdSaNS6_14adl_serializerEEESt4lessIvESaISt4pairIKS5_SA_EEE4findERSE_
FNDA:20584,_ZNSt3mapINSt7__cxx1112basic_stringIcSt11char_traitsIcESaIcEEEN8nlohmann10basic_jsonIS_St6vectorS5_blmdSaNS6_14adl_serializerEEESt4lessIvESaISt4pairIKS5_SA_EEE11lower_boundERSE_
FNF:12
FNH:8
DA:177,664
DA:199,664
DA:294,1328
DA:348,0
DA:349,0
DA:366,32536
DA:367,32536
DA:462,0
DA:463,0
DA:467,0
DA:468,0
DA:484,20584
DA:489,20584
DA:491,20584
DA:493,20584
DA:499,20584
DA:1031,0
DA:1032,0
DA:1136,8632
DA:1137,8632
DA:1163,3984
DA:1164,3984
DA:1233,20584
DA:1234,20584
LF:24
LH:16
end_of_record
SF:/usr/include/c++/7/bits/stl_pair.h
FN:198,_ZNSt4pairIKNSt7__cxx1112basic_stringIcSt11char_traitsIcESaIcEEEN8nlohmann10basic_jsonISt3mapSt6vectorS5_blmdSaNS7_14adl_serializerEEEED2Ev
FN:292,_ZNSt4pairIKNSt7__cxx1112basic_stringIcSt11char_traitsIcESaIcEEEN8nlohmann10basic_jsonISt3mapSt6vectorS5_blmdSaNS7_14adl_serializerEEEEC2ERKSD_
FN:300,_ZNSt4pairIPSt18_Rb_tree_node_baseS1_EC2IRS1_Lb1EEEOT_RKS1_
FN:314,_ZNSt4pairIPSt18_Rb_tree_node_baseS1_EC2IRS1_Lb1EEERKS1_OT_
FN:330,_ZNSt4pairIbPN8nlohmann10basic_jsonISt3mapSt6vectorNSt7__cxx1112basic_stringIcSt11char_traitsIcESaIcEEEblmdSaNS0_14adl_serializerEEEEC2IbSC_Lb1EEEOT_OT0_
FN:330,_ZNSt4pairIbPN8nlohmann10basic_jsonISt3mapSt6vectorNSt7__cxx1112basic_stringIcSt11char_traitsIcESaIcEEEblmdSaNS0_14adl_serializerEEEEC2IbDnLb1EEEOT_OT0_
FN:330,_ZNSt4pairIPSt18_Rb_tree_node_baseS1_EC2IRPSt13_Rb_tree_nodeIS_IKNSt7__cxx1112basic_stringIcSt11char_traitsIcESaIcEEEN8nlohmann10basic_jsonISt3mapSt6vectorSA_blmdSaNSC_14adl_serializerEEEEERS1_Lb1EEEOT_OT0_
FN:330,_ZNSt4pairIbPN8nlohmann10basic_jsonISt3mapSt6vectorNSt7__cxx1112basic_stringIcSt11char_traitsIcESaIcEEEblmdSaNS0_14adl_serializerEEEEC2IbRSC_Lb1EEEOT_OT0_
FN:330,_ZNSt4pairIPSt18_Rb_tree_node_baseS1_EC2IRS1_S4_Lb1EEEOT_OT0_
FNDA:41168,_ZNSt4pairIKNSt7__cxx1112basic_stringIcSt11char_traitsIcESaIcEEEN8nlohmann10basic_jsonISt3mapSt6vectorS5_blmdSaNS7_14adl_serializerEEEED2Ev
FNDA:20584,_ZNSt4pairIKNSt7__cxx1112basic_stringIcSt11char_traitsIcESaIcEEEN8nlohmann10basic_jsonISt3mapSt6vectorS5_blmdSaNS7_14adl_serializerEEEEC2ERKSD_
FNDA:0,_ZNSt4pairIPSt18_Rb_tree_node_baseS1_EC2IRS1_Lb1EEEOT_RKS1_
FNDA:17269,_ZNSt4pairIPSt18_Rb_tree_node_baseS1_EC2IRS1_Lb1EEERKS1_OT_
FNDA:664,_ZNSt4pairIPSt18_Rb_tree_node_baseS1_EC2IRPSt13_Rb_tree_nodeIS_IKNSt7__cxx1112basic_stringIcSt11char_traitsIcESaIcEEEN8nlohmann10basic_jsonISt3mapSt6vectorSA_blmdSaNSC_14adl_serializerEEEEERS1_Lb1EEEOT_OT0_
FNDA:2656,_ZNSt4pairIPSt18_Rb_tree_node_baseS1_EC2IRS1_S4_Lb1EEEOT_OT0_
FNDA:0,_ZNSt4pairIbPN8nlohmann10basic_jsonISt3mapSt6vectorNSt7__cxx1112basic_stringIcSt11char_traitsIcESaIcEEEblmdSaNS0_14adl_serializerEEEEC2IbRSC_Lb1EEEOT_OT0_
FNDA:0,_ZNSt4pairIbPN8nlohmann10basic_jsonISt3mapSt6vectorNSt7__cxx1112basic_stringIcSt11char_traitsIcESaIcEEEblmdSaNS0_14adl_serializerEEEEC2IbSC_Lb1EEEOT_OT0_
FNDA:0,_ZNSt4pairIbPN8nlohmann10basic_jsonISt3mapSt6vectorNSt7__cxx1112basic_stringIcSt11char_traitsIcESaIcEEEblmdSaNS0_14adl_serializerEEEEC2IbDnLb1EEEOT_OT0_
FNF:9
FNH:5
DA:198,41168
DA:292,20584
DA:300,0
DA:301,0
DA:314,17269
DA:315,17269
DA:330,3320
DA:331,3320
LF:8
LH:6
end_of_record
SF:/usr/include/c++/7/bits/stl_tree.h
FN:112,_ZNSt18_Rb_tree_node_base10_S_minimumEPS_
FN:126,_ZNSt18_Rb_tree_node_base10_S_maximumEPS_
FN:146,_ZNSt20_Rb_tree_key_compareISt4lessIvEEC2Ev
FN:152,_ZNSt20_Rb_tree_key_compareISt4lessIvEEC2ERKS1_
FN:173,_ZNSt15_Rb_tree_headerC2Ev
FN:206,_ZNSt15_Rb_tree_header8_M_resetEv
FN:234,_ZNSt13_Rb_tree_nodeISt4pairIKNSt7__cxx1112basic_stringIcSt11char_traitsIcESaIcEEEN8nlohmann10basic_jsonISt3mapSt6vectorS6_blmdSaNS8_14adl_serializerEEEEE9_M_valptrEv
FN:238,_ZNKSt13_Rb_tree_nodeISt4pairIKNSt7__cxx1112basic_stringIcSt11char_traitsIcESaIcEEEN8nlohmann10basic_jsonISt3mapSt6vectorS6_blmdSaNS8_14adl_serializerEEEEE9_M_valptrEv
FN:269,_ZNSt17_Rb_tree_iteratorISt4pairIKNSt7__cxx1112basic_stringIcSt11char_traitsIcESaIcEEEN8nlohmann10basic_jsonISt3mapSt6vectorS6_blmdSaNS8_14adl_serializerEEEEEC2Ev
FN:273,_ZNSt17_Rb_tree_iteratorISt4pairIKNSt7__cxx1112basic_stringIcSt11char_traitsIcESaIcEEEN8nlohmann10basic_jsonISt3mapSt6vectorS6_blmdSaNS8_14adl_serializerEEEEEC2EPSt18_Rb_tree_node_base
FN:277,_ZNKSt17_Rb_tree_iteratorISt4pairIKNSt7__cxx1112basic_stringIcSt11char_traitsIcESaIcEEEN8nlohmann10basic_jsonISt3mapSt6vectorS6_blmdSaNS8_14adl_serializerEEEEEdeEv
FN:281,_ZNKSt17_Rb_tree_iteratorISt4pairIKNSt7__cxx1112basic_stringIcSt11char_traitsIcESaIcEEEN8nlohmann10basic_jsonISt3mapSt6vectorS6_blmdSaNS8_14adl_serializerEEEEEptEv
FN:285,_ZNSt17_Rb_tree_iteratorISt4pairIKNSt7__cxx1112basic_stringIcSt11char_traitsIcESaIcEEEN8nlohmann10basic_jsonISt3mapSt6vectorS6_blmdSaNS8_14adl_serializerEEEEEppEv
FN:300,_ZNSt17_Rb_tree_iteratorISt4pairIKNSt7__cxx1112basic_stringIcSt11char_traitsIcESaIcEEEN8nlohmann10basic_jsonISt3mapSt6vectorS6_blmdSaNS8_14adl_serializerEEEEEmmEv
FN:315,_ZNKSt17_Rb_tree_iteratorISt4pairIKNSt7__cxx1112basic_stringIcSt11char_traitsIcESaIcEEEN8nlohmann10basic_jsonISt3mapSt6vectorS6_blmdSaNS8_14adl_serializerEEEEEeqERKSF_
FN:319,_ZNKSt17_Rb_tree_iteratorISt4pairIKNSt7__cxx1112basic_stringIcSt11char_traitsIcESaIcEEEN8nlohmann10basic_jsonISt3mapSt6vectorS6_blmdSaNS8_14adl_serializerEEEEEneERKSF_
FN:348,_ZNSt23_Rb_tree_const_iteratorISt4pairIKNSt7__cxx1112basic_stringIcSt11char_traitsIcESaIcEEEN8nlohmann10basic_jsonISt3mapSt6vectorS6_blmdSaNS8_14adl_serializerEEEEEC2ERKSt17_Rb_tree_iteratorISE_E
FN:352,_ZNKSt23_Rb_tree_const_iteratorISt4pairIKNSt7__cxx1112basic_stringIcSt11char_traitsIcESaIcEEEN8nlohmann10basic_jsonISt3mapSt6vectorS6_blmdSaNS8_14adl_serializerEEEEE13_M_const_castEv
FN:546,_ZNSt8_Rb_treeINSt7__cxx1112basic_stringIcSt11char_traitsIcESaIcEEESt4pairIKS5_N8nlohmann10basic_jsonISt3mapSt6vectorS5_blmdSaNS8_14adl_serializerEEEESt10_Select1stISE_ESt4lessIvESaISE_EE11_Alloc_nodeC2ERSK_
FN:554,_ZNKSt8_Rb_treeINSt7__cxx1112basic_stringIcSt11char_traitsIcESaIcEEESt4pairIKS5_N8nlohmann10basic_jsonISt3mapSt6vectorS5_blmdSaNS8_14adl_serializerEEEESt10_Select1stISE_ESt4lessIvESaISE_EE11_Alloc_nodeclIRKSE_EEPSt13_Rb_tree_nodeISE_EOT_
FN:574,_ZNSt8_Rb_treeINSt7__cxx1112basic_stringIcSt11char_traitsIcESaIcEEESt4pairIKS5_N8nlohmann10basic_jsonISt3mapSt6vectorS5_blmdSaNS8_14adl_serializerEEEESt10_Select1stISE_ESt4lessIvESaISE_EE21_M_get_Node_allocatorEv
FN:578,_ZNKSt8_Rb_treeINSt7__cxx1112basic_stringIcSt11char_traitsIcESaIcEEESt4pairIKS5_N8nlohmann10basic_jsonISt3mapSt6vectorS5_blmdSaNS8_14adl_serializerEEEESt10_Select1stISE_ESt4lessIvESaISE_EE21_M_get_Node_allocatorEv
FN:587,_ZNSt8_Rb_treeINSt7__cxx1112basic_stringIcSt11char_traitsIcESaIcEEESt4pairIKS5_N8nlohmann10basic_jsonISt3mapSt6vectorS5_blmdSaNS8_14adl_serializerEEEESt10_Select1stISE_ESt4lessIvESaISE_EE11_M_get_nodeEv
FN:591,_ZNSt8_Rb_treeINSt7__cxx1112basic_stringIcSt11char_traitsIcESaIcEEESt4pairIKS5_N8nlohmann10basic_jsonISt3mapSt6vectorS5_blmdSaNS8_14adl_serializerEEEESt10_Select1stISE_ESt4lessIvESaISE_EE11_M_put_nodeEPSt13_Rb_tree_nodeISE_E
FN:621,_ZNSt8_Rb_treeINSt7__cxx1112basic_stringIcSt11char_traitsIcESaIcEEESt4pairIKS5_N8nlohmann10basic_jsonISt3mapSt6vectorS5_blmdSaNS8_14adl_serializerEEEESt10_Select1stISE_ESt4lessIvESaISE_EE17_M_construct_nodeIJRKSt21piecewise_construct_tSt5tupleIJRS7_EESP_IJEEEEEvPSt13_Rb_tree_nodeISE_EDpOT_
FN:621,_ZNSt8_Rb_treeINSt7__cxx1112basic_stringIcSt11char_traitsIcESaIcEEESt4pairIKS5_N8nlohmann10basic_jsonISt3mapSt6vectorS5_blmdSaNS8_14adl_serializerEEEESt10_Select1stISE_ESt4lessIvESaISE_EE17_M_construct_nodeIJRKSE_EEEvPSt13_Rb_tree_nodeISE_EDpOT_
FN:640,_ZNSt8_Rb_treeINSt7__cxx1112basic_stringIcSt11char_traitsIcESaIcEEESt4pairIKS5_N8nlohmann10basic_jsonISt3mapSt6vectorS5_blmdSaNS8_14adl_serializerEEEESt10_Select1stISE_ESt4lessIvESaISE_EE14_M_create_nodeIJRKSE_EEEPSt13_Rb_tree_nodeISE_EDpOT_
FN:640,_ZNSt8_Rb_treeINSt7__cxx1112basic_stringIcSt11char_traitsIcESaIcEEESt4pairIKS5_N8nlohmann10basic_jsonISt3mapSt6vectorS5_blmdSaNS8_14adl_serializerEEEESt10_Select1stISE_ESt4lessIvESaISE_EE14_M_create_nodeIJRKSt21piecewise_construct_tSt5tupleIJRS7_EESP_IJEEEEEPSt13_Rb_tree_nodeISE_EDpOT_
FN:648,_ZNSt8_Rb_treeINSt7__cxx1112basic_stringIcSt11char_traitsIcESaIcEEESt4pairIKS5_N8nlohmann10basic_jsonISt3mapSt6vectorS5_blmdSaNS8_14adl_serializerEEEESt10_Select1stISE_ESt4lessIvESaISE_EE15_M_destroy_nodeEPSt13_Rb_tree_nodeISE_E
FN:656,_ZNSt8_Rb_treeINSt7__cxx1112basic_stringIcSt11char_traitsIcESaIcEEESt4pairIKS5_N8nlohmann10basic_jsonISt3mapSt6vectorS5_blmdSaNS8_14adl_serializerEEEESt10_Select1stISE_ESt4lessIvESaISE_EE12_M_drop_nodeEPSt13_Rb_tree_nodeISE_E
FN:664,_ZNSt8_Rb_treeINSt7__cxx1112basic_stringIcSt11char_traitsIcESaIcEEESt4pairIKS5_N8nlohmann10basic_jsonISt3mapSt6vectorS5_blmdSaNS8_14adl_serializerEEEESt10_Select1stISE_ESt4lessIvESaISE_EE13_M_clone_nodeINSK_11_Alloc_nodeEEEPSt13_Rb_tree_nodeISE_EPKSO_RT_
FN:677,_ZNSt8_Rb_treeINSt7__cxx1112basic_stringIcSt11char_traitsIcESaIcEEESt4pairIKS5_N8nlohmann10basic_jsonISt3mapSt6vectorS5_blmdSaNS8_14adl_serializerEEEESt10_Select1stISE_ESt4lessIvESaISE_EE13_Rb_tree_implISI_Lb1EED2Ev
FN:688,_ZNSt8_Rb_treeINSt7__cxx1112basic_stringIcSt11char_traitsIcESaIcEEESt4pairIKS5_N8nlohmann10basic_jsonISt3mapSt6vectorS5_blmdSaNS8_14adl_serializerEEEESt10_Select1stISE_ESt4lessIvESaISE_EE13_Rb_tree_implISI_Lb1EEC2Ev
FN:692,_ZNSt8_Rb_treeINSt7__cxx1112basic_stringIcSt11char_traitsIcESaIcEEESt4pairIKS5_N8nlohmann10basic_jsonISt3mapSt6vectorS5_blmdSaNS8_14adl_serializerEEEESt10_Select1stISE_ESt4lessIvESaISE_EE13_Rb_tree_implISI_Lb1EEC2ERKSM_
FN:712,_ZNSt8_Rb_treeINSt7__cxx1112basic_stringIcSt11char_traitsIcESaIcEEESt4pairIKS5_N8nlohmann10basic_jsonISt3mapSt6vectorS5_blmdSaNS8_14adl_serializerEEEESt10_Select1stISE_ESt4lessIvESaISE_EE7_M_rootEv
FN:716,_ZNKSt8_Rb_treeINSt7__cxx1112basic_stringIcSt11char_traitsIcESaIcEEESt4pairIKS5_N8nlohmann10basic_jsonISt3mapSt6vectorS5_blmdSaNS8_14adl_serializerEEEESt10_Select1stISE_ESt4lessIvESaISE_EE7_M_rootEv
FN:720,_ZNSt8_Rb_treeINSt7__cxx1112basic_stringIcSt11char_traitsIcESaIcEEESt4pairIKS5_N8nlohmann10basic_jsonISt3mapSt6vectorS5_blmdSaNS8_14adl_serializerEEEESt10_Select1stISE_ESt4lessIvESaISE_EE11_M_leftmostEv
FN:728,_ZNSt8_Rb_treeINSt7__cxx1112basic_stringIcSt11char_traitsIcESaIcEEESt4pairIKS5_N8nlohmann10basic_jsonISt3mapSt6vectorS5_blmdSaNS8_14adl_serializerEEEESt10_Select1stISE_ESt4lessIvESaISE_EE12_M_rightmostEv
FN:736,_ZNSt8_Rb_treeINSt7__cxx1112basic_stringIcSt11char_traitsIcESaIcEEESt4pairIKS5_N8nlohmann10basic_jsonISt3mapSt6vectorS5_blmdSaNS8_14adl_serializerEEEESt10_Select1stISE_ESt4lessIvESaISE_EE8_M_beginEv
FN:740,_ZNKSt8_Rb_treeINSt7__cxx1112basic_stringIcSt11char_traitsIcESaIcEEESt4pairIKS5_N8nlohmann10basic_jsonISt3mapSt6vectorS5_blmdSaNS8_14adl_serializerEEEESt10_Select1stISE_ESt4lessIvESaISE_EE8_M_beginEv
FN:747,_ZNSt8_Rb_treeINSt7__cxx1112basic_stringIcSt11char_traitsIcESaIcEEESt4pairIKS5_N8nlohmann10basic_jsonISt3mapSt6vectorS5_blmdSaNS8_14adl_serializerEEEESt10_Select1stISE_ESt4lessIvESaISE_EE6_M_endEv
FN:755,_ZNSt8_Rb_treeINSt7__cxx1112basic_stringIcSt11char_traitsIcESaIcEEESt4pairIKS5_N8nlohmann10basic_jsonISt3mapSt6vectorS5_blmdSaNS8_14adl_serializerEEEESt10_Select1stISE_ESt4lessIvESaISE_EE8_S_valueEPKSt13_Rb_tree_nodeISE_E
FN:759,_ZNSt8_Rb_treeINSt7__cxx1112basic_stringIcSt11char_traitsIcESaIcEEESt4pairIKS5_N8nlohmann10basic_jsonISt3mapSt6vectorS5_blmdSaNS8_14adl_serializerEEEESt10_Select1stISE_ESt4lessIvESaISE_EE6_S_keyEPKSt13_Rb_tree_nodeISE_E
FN:763,_ZNSt8_Rb_treeINSt7__cxx1112basic_stringIcSt11char_traitsIcESaIcEEESt4pairIKS5_N8nlohmann10basic_jsonISt3mapSt6vectorS5_blmdSaNS8_14adl_serializerEEEESt10_Select1stISE_ESt4lessIvESaISE_EE7_S_leftEPSt18_Rb_tree_node_base
FN:767,_ZNSt8_Rb_treeINSt7__cxx1112basic_stringIcSt11char_traitsIcESaIcEEESt4pairIKS5_N8nlohmann10basic_jsonISt3mapSt6vectorS5_blmdSaNS8_14adl_serializerEEEESt10_Select1stISE_ESt4lessIvESaISE_EE7_S_leftEPKSt18_Rb_tree_node_base
FN:771,_ZNSt8_Rb_treeINSt7__cxx1112basic_stringIcSt11char_traitsIcESaIcEEESt4pairIKS5_N8nlohmann10basic_jsonISt3mapSt6vectorS5_blmdSaNS8_14adl_serializerEEEESt10_Select1stISE_ESt4lessIvESaISE_EE8_S_rightEPSt18_Rb_tree_node_base
FN:775,_ZNSt8_Rb_treeINSt7__cxx1112basic_stringIcSt11char_traitsIcESaIcEEESt4pairIKS5_N8nlohmann10basic_jsonISt3mapSt6vectorS5_blmdSaNS8_14adl_serializerEEEESt10_Select1stISE_ESt4lessIvESaISE_EE8_S_rightEPKSt18_Rb_tree_node_base
FN:779,_ZNSt8_Rb_treeINSt7__cxx1112basic_stringIcSt11char_traitsIcESaIcEEESt4pairIKS5_N8nlohmann10basic_jsonISt3mapSt6vectorS5_blmdSaNS8_14adl_serializerEEEESt10_Select1stISE_ESt4lessIvESaISE_EE8_S_valueEPKSt18_Rb_tree_node_base
FN:783,_ZNSt8_Rb_treeINSt7__cxx1112basic_stringIcSt11char_traitsIcESaIcEEESt4pairIKS5_N8nlohmann10basic_jsonISt3mapSt6vectorS5_blmdSaNS8_14adl_serializerEEEESt10_Select1stISE_ESt4lessIvESaISE_EE6_S_keyEPKSt18_Rb_tree_node_base
FN:787,_ZNSt8_Rb_treeINSt7__cxx1112basic_stringIcSt11char_traitsIcESaIcEEESt4pairIKS5_N8nlohmann10basic_jsonISt3mapSt6vectorS5_blmdSaNS8_14adl_serializerEEEESt10_Select1stISE_ESt4lessIvESaISE_EE10_S_minimumEPSt18_Rb_tree_node_base
FN:795,_ZNSt8_Rb_treeINSt7__cxx1112basic_stringIcSt11char_traitsIcESaIcEEESt4pairIKS5_N8nlohmann10basic_jsonISt3mapSt6vectorS5_blmdSaNS8_14adl_serializerEEEESt10_Select1stISE_ESt4lessIvESaISE_EE10_S_maximumEPSt18_Rb_tree_node_base
FN:873,_ZNSt8_Rb_treeINSt7__cxx1112basic_stringIcSt11char_traitsIcESaIcEEESt4pairIKS5_N8nlohmann10basic_jsonISt3mapSt6vectorS5_blmdSaNS8_14adl_serializerEEEESt10_Select1stISE_ESt4lessIvESaISE_EE7_M_copyINSK_11_Alloc_nodeEEEPSt13_Rb_tree_nodeISE_ERKSK_RT_
FN:883,_ZNSt8_Rb_treeINSt7__cxx1112basic_stringIcSt11char_traitsIcESaIcEEESt4pairIKS5_N8nlohmann10basic_jsonISt3mapSt6vectorS5_blmdSaNS8_14adl_serializerEEEESt10_Select1stISE_ESt4lessIvESaISE_EE7_M_copyERKSK_
FN:913,_ZNSt8_Rb_treeINSt7__cxx1112basic_stringIcSt11char_traitsIcESaIcEEESt4pairIKS5_N8nlohmann10basic_jsonISt3mapSt6vectorS5_blmdSaNS8_14adl_serializerEEEESt10_Select1stISE_ESt4lessIvESaISE_EEC2Ev
FN:920,_ZNSt8_Rb_treeINSt7__cxx1112basic_stringIcSt11char_traitsIcESaIcEEESt4pairIKS5_N8nlohmann10basic_jsonISt3mapSt6vectorS5_blmdSaNS8_14adl_serializerEEEESt10_Select1stISE_ESt4lessIvESaISE_EEC2ERKSK_
FN:948,_ZNSt8_Rb_treeINSt7__cxx1112basic_stringIcSt11char_traitsIcESaIcEEESt4pairIKS5_N8nlohmann10basic_jsonISt3mapSt6vectorS5_blmdSaNS8_14adl_serializerEEEESt10_Select1stISE_ESt4lessIvESaISE_EED2Ev
FN:956,_ZNKSt8_Rb_treeINSt7__cxx1112basic_stringIcSt11char_traitsIcESaIcEEESt4pairIKS5_N8nlohmann10basic_jsonISt3mapSt6vectorS5_blmdSaNS8_14adl_serializerEEEESt10_Select1stISE_ESt4lessIvESaISE_EE8key_compEv
FN:960,_ZNSt8_Rb_treeINSt7__cxx1112basic_stringIcSt11char_traitsIcESaIcEEESt4pairIKS5_N8nlohmann10basic_jsonISt3mapSt6vectorS5_blmdSaNS8_14adl_serializerEEEESt10_Select1stISE_ESt4lessIvESaISE_EE5beginEv
FN:968,_ZNSt8_Rb_treeINSt7__cxx1112basic_stringIcSt11char_traitsIcESaIcEEESt4pairIKS5_N8nlohmann10basic_jsonISt3mapSt6vectorS5_blmdSaNS8_14adl_serializerEEEESt10_Select1stISE_ESt4lessIvESaISE_EE3endEv
FN:996,_ZNKSt8_Rb_treeINSt7__cxx1112basic_stringIcSt11char_traitsIcESaIcEEESt4pairIKS5_N8nlohmann10basic_jsonISt3mapSt6vectorS5_blmdSaNS8_14adl_serializerEEEESt10_Select1stISE_ESt4lessIvESaISE_EE4sizeEv
FN:1000,_ZNKSt8_Rb_treeINSt7__cxx1112basic_stringIcSt11char_traitsIcESaIcEEESt4pairIKS5_N8nlohmann10basic_jsonISt3mapSt6vectorS5_blmdSaNS8_14adl_serializerEEEESt10_Select1stISE_ESt4lessIvESaISE_EE8max_sizeEv
FN:1120,_ZNSt8_Rb_treeINSt7__cxx1112basic_stringIcSt11char_traitsIcESaIcEEESt4pairIKS5_N8nlohmann10basic_jsonISt3mapSt6vectorS5_blmdSaNS8_14adl_serializerEEEESt10_Select1stISE_ESt4lessIvESaISE_EE5eraseB5cxx11ESt17_Rb_tree_iteratorISE_E
FN:1186,_ZNSt8_Rb_treeINSt7__cxx1112basic_stringIcSt11char_traitsIcESaIcEEESt4pairIKS5_N8nlohmann10basic_jsonISt3mapSt6vectorS5_blmdSaNS8_14adl_serializerEEEESt10_Select1stISE_ESt4lessIvESaISE_EE11lower_boundERS7_
FN:1814,_ZNSt8_Rb_treeINSt7__cxx1112basic_stringIcSt11char_traitsIcESaIcEEESt4pairIKS5_N8nlohmann10basic_jsonISt3mapSt6vectorS5_blmdSaNS8_14adl_serializerEEEESt10_Select1stISE_ESt4lessIvESaISE_EE7_M_copyINSK_11_Alloc_nodeEEEPSt13_Rb_tree_nodeISE_EPKSO_PSt18_Rb_tree_node_baseRT_
FN:1850,_ZNSt8_Rb_treeINSt7__cxx1112basic_stringIcSt11char_traitsIcESaIcEEESt4pairIKS5_N8nlohmann10basic_jsonISt3mapSt6vectorS5_blmdSaNS8_14adl_serializerEEEESt10_Select1stISE_ESt4lessIvESaISE_EE8_M_eraseEPSt13_Rb_tree_nodeISE_E
FN:1867,_ZNSt8_Rb_treeINSt7__cxx1112basic_stringIcSt11char_traitsIcESaIcEEESt4pairIKS5_N8nlohmann10basic_jsonISt3mapSt6vectorS5_blmdSaNS8_14adl_serializerEEEESt10_Select1stISE_ESt4lessIvESaISE_EE14_M_lower_boundEPSt13_Rb_tree_nodeISE_EPSt18_Rb_tree_node_baseRS7_
FN:2028,_ZNSt8_Rb_treeINSt7__cxx1112basic_stringIcSt11char_traitsIcESaIcEEESt4pairIKS5_N8nlohmann10basic_jsonISt3mapSt6vectorS5_blmdSaNS8_14adl_serializerEEEESt10_Select1stISE_ESt4lessIvESaISE_EE24_M_get_insert_unique_posERS7_
FN:2130,_ZNSt8_Rb_treeINSt7__cxx1112basic_stringIcSt11char_traitsIcESaIcEEESt4pairIKS5_N8nlohmann10basic_jsonISt3mapSt6vectorS5_blmdSaNS8_14adl_serializerEEEESt10_Select1stISE_ESt4lessIvESaISE_EE29_M_get_insert_hint_unique_posESt23_Rb_tree_const_iteratorISE_ERS7_
FN:2297,_ZNSt8_Rb_treeINSt7__cxx1112basic_stringIcSt11char_traitsIcESaIcEEESt4pairIKS5_N8nlohmann10basic_jsonISt3mapSt6vectorS5_blmdSaNS8_14adl_serializerEEEESt10_Select1stISE_ESt4lessIvESaISE_EE14_M_insert_nodeEPSt18_Rb_tree_node_baseSM_PSt13_Rb_tree_nodeISE_E
FN:2395,_ZNSt8_Rb_treeINSt7__cxx1112basic_stringIcSt11char_traitsIcESaIcEEESt4pairIKS5_N8nlohmann10basic_jsonISt3mapSt6vectorS5_blmdSaNS8_14adl_serializerEEEESt10_Select1stISE_ESt4lessIvESaISE_EE22_M_emplace_hint_uniqueIJRKSt21piecewise_construct_tSt5tupleIJRS7_EESP_IJEEEEESt17_Rb_tree_iteratorISE_ESt23_Rb_tree_const_iteratorISE_EDpOT_
FN:2470,_ZNSt8_Rb_treeINSt7__cxx1112basic_stringIcSt11char_traitsIcESaIcEEESt4pairIKS5_N8nlohmann10basic_jsonISt3mapSt6vectorS5_blmdSaNS8_14adl_serializerEEEESt10_Select1stISE_ESt4lessIvESaISE_EE12_M_erase_auxESt23_Rb_tree_const_iteratorISE_E
FN:2520,_ZNSt8_Rb_treeINSt7__cxx1112basic_stringIcSt11char_traitsIcESaIcEEESt4pairIKS5_N8nlohmann10basic_jsonISt3mapSt6vectorS5_blmdSaNS8_14adl_serializerEEEESt10_Select1stISE_ESt4lessIvESaISE_EE4findERS7_
FNDA:664,_ZNSt18_Rb_tree_node_base10_S_minimumEPS_
FNDA:664,_ZNSt18_Rb_tree_node_base10_S_maximumEPS_
FNDA:664,_ZNSt20_Rb_tree_key_compareISt4lessIvEEC2Ev
FNDA:664,_ZNSt20_Rb_tree_key_compareISt4lessIvEEC2ERKS1_
FNDA:1329,_ZNSt15_Rb_tree_headerC2Ev
FNDA:1329,_ZNSt15_Rb_tree_header8_M_resetEv
FNDA:115536,_ZNSt13_Rb_tree_nodeISt4pairIKNSt7__cxx1112basic_stringIcSt11char_traitsIcESaIcEEEN8nlohmann10basic_jsonISt3mapSt6vectorS6_blmdSaNS8_14adl_serializerEEEEE9_M_valptrEv
FNDA:223104,_ZNKSt13_Rb_tree_nodeISt4pairIKNSt7__cxx1112basic_stringIcSt11char_traitsIcESaIcEEEN8nlohmann10basic_jsonISt3mapSt6vectorS6_blmdSaNS8_14adl_serializerEEEEE9_M_valptrEv
FNDA:15938,_ZNSt17_Rb_tree_iteratorISt4pairIKNSt7__cxx1112basic_stringIcSt11char_traitsIcESaIcEEEN8nlohmann10basic_jsonISt3mapSt6vectorS6_blmdSaNS8_14adl_serializerEEEEEC2Ev
FNDA:103584,_ZNSt17_Rb_tree_iteratorISt4pairIKNSt7__cxx1112basic_stringIcSt11char_traitsIcESaIcEEEN8nlohmann10basic_jsonISt3mapSt6vectorS6_blmdSaNS8_14adl_serializerEEEEEC2EPSt18_Rb_tree_node_base
FNDA:29216,_ZNKSt17_Rb_tree_iteratorISt4pairIKNSt7__cxx1112basic_stringIcSt11char_traitsIcESaIcEEEN8nlohmann10basic_jsonISt3mapSt6vectorS6_blmdSaNS8_14adl_serializerEEEEEdeEv
FNDA:3984,_ZNKSt17_Rb_tree_iteratorISt4pairIKNSt7__cxx1112basic_stringIcSt11char_traitsIcESaIcEEEN8nlohmann10basic_jsonISt3mapSt6vectorS6_blmdSaNS8_14adl_serializerEEEEEptEv
FNDA:0,_ZNSt17_Rb_tree_iteratorISt4pairIKNSt7__cxx1112basic_stringIcSt11char_traitsIcESaIcEEEN8nlohmann10basic_jsonISt3mapSt6vectorS6_blmdSaNS8_14adl_serializerEEEEEppEv
FNDA:8632,_ZNSt17_Rb_tree_iteratorISt4pairIKNSt7__cxx1112basic_stringIcSt11char_traitsIcESaIcEEEN8nlohmann10basic_jsonISt3mapSt6vectorS6_blmdSaNS8_14adl_serializerEEEEEmmEv
FNDA:29216,_ZNKSt17_Rb_tree_iteratorISt4pairIKNSt7__cxx1112basic_stringIcSt11char_traitsIcESaIcEEEN8nlohmann10basic_jsonISt3mapSt6vectorS6_blmdSaNS8_14adl_serializerEEEEEeqERKSF_
FNDA:3984,_ZNKSt17_Rb_tree_iteratorISt4pairIKNSt7__cxx1112basic_stringIcSt11char_traitsIcESaIcEEEN8nlohmann10basic_jsonISt3mapSt6vectorS6_blmdSaNS8_14adl_serializerEEEEEneERKSF_
FNDA:20584,_ZNSt23_Rb_tree_const_iteratorISt4pairIKNSt7__cxx1112basic_stringIcSt11char_traitsIcESaIcEEEN8nlohmann10basic_jsonISt3mapSt6vectorS6_blmdSaNS8_14adl_serializerEEEEEC2ERKSt17_Rb_tree_iteratorISE_E
FNDA:20584,_ZNKSt23_Rb_tree_const_iteratorISt4pairIKNSt7__cxx1112basic_stringIcSt11char_traitsIcESaIcEEEN8nlohmann10basic_jsonISt3mapSt6vectorS6_blmdSaNS8_14adl_serializerEEEEE13_M_const_castEv
FNDA:664,_ZNSt8_Rb_treeINSt7__cxx1112basic_stringIcSt11char_traitsIcESaIcEEESt4pairIKS5_N8nlohmann10basic_jsonISt3mapSt6vectorS5_blmdSaNS8_14adl_serializerEEEESt10_Select1stISE_ESt4lessIvESaISE_EE11_Alloc_nodeC2ERSK_
FNDA:20584,_ZNKSt8_Rb_treeINSt7__cxx1112basic_stringIcSt11char_traitsIcESaIcEEESt4pairIKS5_N8nlohmann10basic_jsonISt3mapSt6vectorS5_blmdSaNS8_14adl_serializerEEEESt10_Select1stISE_ESt4lessIvESaISE_EE11_Alloc_nodeclIRKSE_EEPSt13_Rb_tree_nodeISE_EOT_
FNDA:164672,_ZNSt8_Rb_treeINSt7__cxx1112basic_stringIcSt11char_traitsIcESaIcEEESt4pairIKS5_N8nlohmann10basic_jsonISt3mapSt6vectorS5_blmdSaNS8_14adl_serializerEEEESt10_Select1stISE_ESt4lessIvESaISE_EE21_M_get_Node_allocatorEv
FNDA:0,_ZNKSt8_Rb_treeINSt7__cxx1112basic_stringIcSt11char_traitsIcESaIcEEESt4pairIKS5_N8nlohmann10basic_jsonISt3mapSt6vectorS5_blmdSaNS8_14adl_serializerEEEESt10_Select1stISE_ESt4lessIvESaISE_EE21_M_get_Node_allocatorEv
FNDA:41168,_ZNSt8_Rb_treeINSt7__cxx1112basic_stringIcSt11char_traitsIcESaIcEEESt4pairIKS5_N8nlohmann10basic_jsonISt3mapSt6vectorS5_blmdSaNS8_14adl_serializerEEEESt10_Select1stISE_ESt4lessIvESaISE_EE11_M_get_nodeEv
FNDA:41168,_ZNSt8_Rb_treeINSt7__cxx1112basic_stringIcSt11char_traitsIcESaIcEEESt4pairIKS5_N8nlohmann10basic_jsonISt3mapSt6vectorS5_blmdSaNS8_14adl_serializerEEEESt10_Select1stISE_ESt4lessIvESaISE_EE11_M_put_nodeEPSt13_Rb_tree_nodeISE_E
FNDA:20584,_ZNSt8_Rb_treeINSt7__cxx1112basic_stringIcSt11char_traitsIcESaIcEEESt4pairIKS5_N8nlohmann10basic_jsonISt3mapSt6vectorS5_blmdSaNS8_14adl_serializerEEEESt10_Select1stISE_ESt4lessIvESaISE_EE17_M_construct_nodeIJRKSt21piecewise_construct_tSt5tupleIJRS7_EESP_IJEEEEEvPSt13_Rb_tree_nodeISE_EDpOT_
FNDA:20584,_ZNSt8_Rb_treeINSt7__cxx1112basic_stringIcSt11char_traitsIcESaIcEEESt4pairIKS5_N8nlohmann10basic_jsonISt3mapSt6vectorS5_blmdSaNS8_14adl_serializerEEEESt10_Select1stISE_ESt4lessIvESaISE_EE17_M_construct_nodeIJRKSE_EEEvPSt13_Rb_tree_nodeISE_EDpOT_
FNDA:20584,_ZNSt8_Rb_treeINSt7__cxx1112basic_stringIcSt11char_traitsIcESaIcEEESt4pairIKS5_N8nlohmann10basic_jsonISt3mapSt6vectorS5_blmdSaNS8_14adl_serializerEEEESt10_Select1stISE_ESt4lessIvESaISE_EE14_M_create_nodeIJRKSt21piecewise_construct_tSt5tupleIJRS7_EESP_IJEEEEEPSt13_Rb_tree_nodeISE_EDpOT_
FNDA:20584,_ZNSt8_Rb_treeINSt7__cxx1112basic_stringIcSt11char_traitsIcESaIcEEESt4pairIKS5_N8nlohmann10basic_jsonISt3mapSt6vectorS5_blmdSaNS8_14adl_serializerEEEESt10_Select1stISE_ESt4lessIvESaISE_EE14_M_create_nodeIJRKSE_EEEPSt13_Rb_tree_nodeISE_EDpOT_
FNDA:41168,_ZNSt8_Rb_treeINSt7__cxx1112basic_stringIcSt11char_traitsIcESaIcEEESt4pairIKS5_N8nlohmann10basic_jsonISt3mapSt6vectorS5_blmdSaNS8_14adl_serializerEEEESt10_Select1stISE_ESt4lessIvESaISE_EE15_M_destroy_nodeEPSt13_Rb_tree_nodeISE_E
FNDA:41168,_ZNSt8_Rb_treeINSt7__cxx1112basic_stringIcSt11char_traitsIcESaIcEEESt4pairIKS5_N8nlohmann10basic_jsonISt3mapSt6vectorS5_blmdSaNS8_14adl_serializerEEEESt10_Select1stISE_ESt4lessIvESaISE_EE12_M_drop_nodeEPSt13_Rb_tree_nodeISE_E
FNDA:20584,_ZNSt8_Rb_treeINSt7__cxx1112basic_stringIcSt11char_traitsIcESaIcEEESt4pairIKS5_N8nlohmann10basic_jsonISt3mapSt6vectorS5_blmdSaNS8_14adl_serializerEEEESt10_Select1stISE_ESt4lessIvESaISE_EE13_M_clone_nodeINSK_11_Alloc_nodeEEEPSt13_Rb_tree_nodeISE_EPKSO_RT_
FNDA:1328,_ZNSt8_Rb_treeINSt7__cxx1112basic_stringIcSt11char_traitsIcESaIcEEESt4pairIKS5_N8nlohmann10basic_jsonISt3mapSt6vectorS5_blmdSaNS8_14adl_serializerEEEESt10_Select1stISE_ESt4lessIvESaISE_EE13_Rb_tree_implISI_Lb1EED2Ev
FNDA:664,_ZNSt8_Rb_treeINSt7__cxx1112basic_stringIcSt11char_traitsIcESaIcEEESt4pairIKS5_N8nlohmann10basic_jsonISt3mapSt6vectorS5_blmdSaNS8_14adl_serializerEEEESt10_Select1stISE_ESt4lessIvESaISE_EE13_Rb_tree_implISI_Lb1EEC2Ev
FNDA:664,_ZNSt8_Rb_treeINSt7__cxx1112basic_stringIcSt11char_traitsIcESaIcEEESt4pairIKS5_N8nlohmann10basic_jsonISt3mapSt6vectorS5_blmdSaNS8_14adl_serializerEEEESt10_Select1stISE_ESt4lessIvESaISE_EE13_Rb_tree_implISI_Lb1EEC2ERKSM_
FNDA:664,_ZNSt8_Rb_treeINSt7__cxx1112basic_stringIcSt11char_traitsIcESaIcEEESt4pairIKS5_N8nlohmann10basic_jsonISt3mapSt6vectorS5_blmdSaNS8_14adl_serializerEEEESt10_Select1stISE_ESt4lessIvESaISE_EE7_M_rootEv
FNDA:664,_ZNKSt8_Rb_treeINSt7__cxx1112basic_stringIcSt11char_traitsIcESaIcEEESt4pairIKS5_N8nlohmann10basic_jsonISt3mapSt6vectorS5_blmdSaNS8_14adl_serializerEEEESt10_Select1stISE_ESt4lessIvESaISE_EE7_M_rootEv
FNDA:9296,_ZNSt8_Rb_treeINSt7__cxx1112basic_stringIcSt11char_traitsIcESaIcEEESt4pairIKS5_N8nlohmann10basic_jsonISt3mapSt6vectorS5_blmdSaNS8_14adl_serializerEEEESt10_Select1stISE_ESt4lessIvESaISE_EE11_M_leftmostEv
FNDA:23240,_ZNSt8_Rb_treeINSt7__cxx1112basic_stringIcSt11char_traitsIcESaIcEEESt4pairIKS5_N8nlohmann10basic_jsonISt3mapSt6vectorS5_blmdSaNS8_14adl_serializerEEEESt10_Select1stISE_ESt4lessIvESaISE_EE12_M_rightmostEv
FNDA:26560,_ZNSt8_Rb_treeINSt7__cxx1112basic_stringIcSt11char_traitsIcESaIcEEESt4pairIKS5_N8nlohmann10basic_jsonISt3mapSt6vectorS5_blmdSaNS8_14adl_serializerEEEESt10_Select1stISE_ESt4lessIvESaISE_EE8_M_beginEv
FNDA:664,_ZNKSt8_Rb_treeINSt7__cxx1112basic_stringIcSt11char_traitsIcESaIcEEESt4pairIKS5_N8nlohmann10basic_jsonISt3mapSt6vectorS5_blmdSaNS8_14adl_serializerEEEESt10_Select1stISE_ESt4lessIvESaISE_EE8_M_beginEv
FNDA:64408,_ZNSt8_Rb_treeINSt7__cxx1112basic_stringIcSt11char_traitsIcESaIcEEESt4pairIKS5_N8nlohmann10basic_jsonISt3mapSt6vectorS5_blmdSaNS8_14adl_serializerEEEESt10_Select1stISE_ESt4lessIvESaISE_EE6_M_endEv
FNDA:152720,_ZNSt8_Rb_treeINSt7__cxx1112basic_stringIcSt11char_traitsIcESaIcEEESt4pairIKS5_N8nlohmann10basic_jsonISt3mapSt6vectorS5_blmdSaNS8_14adl_serializerEEEESt10_Select1stISE_ESt4lessIvESaISE_EE8_S_valueEPKSt13_Rb_tree_nodeISE_E
FNDA:152720,_ZNSt8_Rb_treeINSt7__cxx1112basic_stringIcSt11char_traitsIcESaIcEEESt4pairIKS5_N8nlohmann10basic_jsonISt3mapSt6vectorS5_blmdSaNS8_14adl_serializerEEEESt10_Select1stISE_ESt4lessIvESaISE_EE6_S_keyEPKSt13_Rb_tree_nodeISE_E
FNDA:65072,_ZNSt8_Rb_treeINSt7__cxx1112basic_stringIcSt11char_traitsIcESaIcEEESt4pairIKS5_N8nlohmann10basic_jsonISt3mapSt6vectorS5_blmdSaNS8_14adl_serializerEEEESt10_Select1stISE_ESt4lessIvESaISE_EE7_S_leftEPSt18_Rb_tree_node_base
FNDA:20584,_ZNSt8_Rb_treeINSt7__cxx1112basic_stringIcSt11char_traitsIcESaIcEEESt4pairIKS5_N8nlohmann10basic_jsonISt3mapSt6vectorS5_blmdSaNS8_14adl_serializerEEEESt10_Select1stISE_ESt4lessIvESaISE_EE7_S_leftEPKSt18_Rb_tree_node_base
FNDA:140768,_ZNSt8_Rb_treeINSt7__cxx1112basic_stringIcSt11char_traitsIcESaIcEEESt4pairIKS5_N8nlohmann10basic_jsonISt3mapSt6vectorS5_blmdSaNS8_14adl_serializerEEEESt10_Select1stISE_ESt4lessIvESaISE_EE8_S_rightEPSt18_Rb_tree_node_base
FNDA:10624,_ZNSt8_Rb_treeINSt7__cxx1112basic_stringIcSt11char_traitsIcESaIcEEESt4pairIKS5_N8nlohmann10basic_jsonISt3mapSt6vectorS5_blmdSaNS8_14adl_serializerEEEESt10_Select1stISE_ESt4lessIvESaISE_EE8_S_rightEPKSt18_Rb_tree_node_base
FNDA:49800,_ZNSt8_Rb_treeINSt7__cxx1112basic_stringIcSt11char_traitsIcESaIcEEESt4pairIKS5_N8nlohmann10basic_jsonISt3mapSt6vectorS5_blmdSaNS8_14adl_serializerEEEESt10_Select1stISE_ESt4lessIvESaISE_EE8_S_valueEPKSt18_Rb_tree_node_base
FNDA:49800,_ZNSt8_Rb_treeINSt7__cxx1112basic_stringIcSt11char_traitsIcESaIcEEESt4pairIKS5_N8nlohmann10basic_jsonISt3mapSt6vectorS5_blmdSaNS8_14adl_serializerEEEESt10_Select1stISE_ESt4lessIvESaISE_EE6_S_keyEPKSt18_Rb_tree_node_base
FNDA:664,_ZNSt8_Rb_treeINSt7__cxx1112basic_stringIcSt11char_traitsIcESaIcEEESt4pairIKS5_N8nlohmann10basic_jsonISt3mapSt6vectorS5_blmdSaNS8_14adl_serializerEEEESt10_Select1stISE_ESt4lessIvESaISE_EE10_S_minimumEPSt18_Rb_tree_node_base
FNDA:664,_ZNSt8_Rb_treeINSt7__cxx1112basic_stringIcSt11char_traitsIcESaIcEEESt4pairIKS5_N8nlohmann10basic_jsonISt3mapSt6vectorS5_blmdSaNS8_14adl_serializerEEEESt10_Select1stISE_ESt4lessIvESaISE_EE10_S_maximumEPSt18_Rb_tree_node_base
FNDA:664,_ZNSt8_Rb_treeINSt7__cxx1112basic_stringIcSt11char_traitsIcESaIcEEESt4pairIKS5_N8nlohmann10basic_jsonISt3mapSt6vectorS5_blmdSaNS8_14adl_serializerEEEESt10_Select1stISE_ESt4lessIvESaISE_EE7_M_copyINSK_11_Alloc_nodeEEEPSt13_Rb_tree_nodeISE_ERKSK_RT_
FNDA:664,_ZNSt8_Rb_treeINSt7__cxx1112basic_stringIcSt11char_traitsIcESaIcEEESt4pairIKS5_N8nlohmann10basic_jsonISt3mapSt6vectorS5_blmdSaNS8_14adl_serializerEEEESt10_Select1stISE_ESt4lessIvESaISE_EE7_M_copyERKSK_
FNDA:664,_ZNSt8_Rb_treeINSt7__cxx1112basic_stringIcSt11char_traitsIcESaIcEEESt4pairIKS5_N8nlohmann10basic_jsonISt3mapSt6vectorS5_blmdSaNS8_14adl_serializerEEEESt10_Select1stISE_ESt4lessIvESaISE_EEC2Ev
FNDA:664,_ZNSt8_Rb_treeINSt7__cxx1112basic_stringIcSt11char_traitsIcESaIcEEESt4pairIKS5_N8nlohmann10basic_jsonISt3mapSt6vectorS5_blmdSaNS8_14adl_serializerEEEESt10_Select1stISE_ESt4lessIvESaISE_EEC2ERKSK_
FNDA:1328,_ZNSt8_Rb_treeINSt7__cxx1112basic_stringIcSt11char_traitsIcESaIcEEESt4pairIKS5_N8nlohmann10basic_jsonISt3mapSt6vectorS5_blmdSaNS8_14adl_serializerEEEESt10_Select1stISE_ESt4lessIvESaISE_EED2Ev
FNDA:8632,_ZNKSt8_Rb_treeINSt7__cxx1112basic_stringIcSt11char_traitsIcESaIcEEESt4pairIKS5_N8nlohmann10basic_jsonISt3mapSt6vectorS5_blmdSaNS8_14adl_serializerEEEESt10_Select1stISE_ESt4lessIvESaISE_EE8key_compEv
FNDA:664,_ZNSt8_Rb_treeINSt7__cxx1112basic_stringIcSt11char_traitsIcESaIcEEESt4pairIKS5_N8nlohmann10basic_jsonISt3mapSt6vectorS5_blmdSaNS8_14adl_serializerEEEESt10_Select1stISE_ESt4lessIvESaISE_EE5beginEv
FNDA:36520,_ZNSt8_Rb_treeINSt7__cxx1112basic_stringIcSt11char_traitsIcESaIcEEESt4pairIKS5_N8nlohmann10basic_jsonISt3mapSt6vectorS5_blmdSaNS8_14adl_serializerEEEESt10_Select1stISE_ESt4lessIvESaISE_EE3endEv
FNDA:11952,_ZNKSt8_Rb_treeINSt7__cxx1112basic_stringIcSt11char_traitsIcESaIcEEESt4pairIKS5_N8nlohmann10basic_jsonISt3mapSt6vectorS5_blmdSaNS8_14adl_serializerEEEESt10_Select1stISE_ESt4lessIvESaISE_EE4sizeEv
FNDA:0,_ZNKSt8_Rb_treeINSt7__cxx1112basic_stringIcSt11char_traitsIcESaIcEEESt4pairIKS5_N8nlohmann10basic_jsonISt3mapSt6vectorS5_blmdSaNS8_14adl_serializerEEEESt10_Select1stISE_ESt4lessIvESaISE_EE8max_sizeEv
FNDA:0,_ZNSt8_Rb_treeINSt7__cxx1112basic_stringIcSt11char_traitsIcESaIcEEESt4pairIKS5_N8nlohmann10basic_jsonISt3mapSt6vectorS5_blmdSaNS8_14adl_serializerEEEESt10_Select1stISE_ESt4lessIvESaISE_EE5eraseB5cxx11ESt17_Rb_tree_iteratorISE_E
FNDA:20584,_ZNSt8_Rb_treeINSt7__cxx1112basic_stringIcSt11char_traitsIcESaIcEEESt4pairIKS5_N8nlohmann10basic_jsonISt3mapSt6vectorS5_blmdSaNS8_14adl_serializerEEEESt10_Select1stISE_ESt4lessIvESaISE_EE11lower_boundERS7_
FNDA:11288,_ZNSt8_Rb_treeINSt7__cxx1112basic_stringIcSt11char_traitsIcESaIcEEESt4pairIKS5_N8nlohmann10basic_jsonISt3mapSt6vectorS5_blmdSaNS8_14adl_serializerEEEESt10_Select1stISE_ESt4lessIvESaISE_EE7_M_copyINSK_11_Alloc_nodeEEEPSt13_Rb_tree_nodeISE_EPKSO_PSt18_Rb_tree_node_baseRT_
FNDA:42496,_ZNSt8_Rb_treeINSt7__cxx1112basic_stringIcSt11char_traitsIcESaIcEEESt4pairIKS5_N8nlohmann10basic_jsonISt3mapSt6vectorS5_blmdSaNS8_14adl_serializerEEEESt10_Select1stISE_ESt4lessIvESaISE_EE8_M_eraseEPSt13_Rb_tree_nodeISE_E
FNDA:24568,_ZNSt8_Rb_treeINSt7__cxx1112basic_stringIcSt11char_traitsIcESaIcEEESt4pairIKS5_N8nlohmann10basic_jsonISt3mapSt6vectorS5_blmdSaNS8_14adl_serializerEEEESt10_Select1stISE_ESt4lessIvESaISE_EE14_M_lower_boundEPSt13_Rb_tree_nodeISE_EPSt18_Rb_tree_node_baseRS7_
FNDA:664,_ZNSt8_Rb_treeINSt7__cxx1112basic_stringIcSt11char_traitsIcESaIcEEESt4pairIKS5_N8nlohmann10basic_jsonISt3mapSt6vectorS5_blmdSaNS8_14adl_serializerEEEESt10_Select1stISE_ESt4lessIvESaISE_EE24_M_get_insert_unique_posERS7_
FNDA:20584,_ZNSt8_Rb_treeINSt7__cxx1112basic_stringIcSt11char_traitsIcESaIcEEESt4pairIKS5_N8nlohmann10basic_jsonISt3mapSt6vectorS5_blmdSaNS8_14adl_serializerEEEESt10_Select1stISE_ESt4lessIvESaISE_EE29_M_get_insert_hint_unique_posESt23_Rb_tree_const_iteratorISE_ERS7_
FNDA:20584,_ZNSt8_Rb_treeINSt7__cxx1112basic_stringIcSt11char_traitsIcESaIcEEESt4pairIKS5_N8nlohmann10basic_jsonISt3mapSt6vectorS5_blmdSaNS8_14adl_serializerEEEESt10_Select1stISE_ESt4lessIvESaISE_EE14_M_insert_nodeEPSt18_Rb_tree_node_baseSM_PSt13_Rb_tree_nodeISE_E
FNDA:20584,_ZNSt8_Rb_treeINSt7__cxx1112basic_stringIcSt11char_traitsIcESaIcEEESt4pairIKS5_N8nlohmann10basic_jsonISt3mapSt6vectorS5_blmdSaNS8_14adl_serializerEEEESt10_Select1stISE_ESt4lessIvESaISE_EE22_M_emplace_hint_uniqueIJRKSt21piecewise_construct_tSt5tupleIJRS7_EESP_IJEEEEESt17_Rb_tree_iteratorISE_ESt23_Rb_tree_const_iteratorISE_EDpOT_
FNDA:0,_ZNSt8_Rb_treeINSt7__cxx1112basic_stringIcSt11char_traitsIcESaIcEEESt4pairIKS5_N8nlohmann10basic_jsonISt3mapSt6vectorS5_blmdSaNS8_14adl_serializerEEEESt10_Select1stISE_ESt4lessIvESaISE_EE12_M_erase_auxESt23_Rb_tree_const_iteratorISE_E
FNDA:3984,_ZNSt8_Rb_treeINSt7__cxx1112basic_stringIcSt11char_traitsIcESaIcEEESt4pairIKS5_N8nlohmann10basic_jsonISt3mapSt6vectorS5_blmdSaNS8_14adl_serializerEEEESt10_Select1stISE_ESt4lessIvESaISE_EE4findERS7_
FNF:72
FNH:67
DA:112,2656
DA:114,2656
DA:115,664
DA:126,4648
DA:128,4648
DA:129,664
DA:146,664
DA:150,664
DA:152,664
DA:154,664
DA:173,1329
DA:174,1329
DA:175,1329
DA:176,1329
DA:177,1329
DA:206,1329
DA:208,1329
DA:209,1329
DA:210,1329
DA:211,1329
DA:212,1329
DA:234,115536
DA:235,115536
DA:238,223104
DA:239,223104
DA:269,15938
DA:270,15938
DA:273,103584
DA:274,103584
DA:277,29216
DA:278,29216
DA:281,3984
DA:282,3984
DA:285,0
DA:287,0
DA:288,0
DA:300,8632
DA:302,8632
DA:303,8632
DA:315,29216
DA:316,29216
DA:319,3984
DA:320,3984
DA:348,20584
DA:349,20584
DA:352,20584
DA:353,20584
DA:546,664
DA:547,664
DA:554,20584
DA:556,20584
DA:574,164672
DA:575,164672
DA:578,0
DA:579,0
DA:587,41168
DA:588,41168
DA:591,41168
DA:592,41168
DA:621,41168
DA:625,41168
DA:626,41168
DA:630,0
DA:633,0
DA:634,0
DA:636,41168
DA:640,41168
DA:642,41168
DA:643,41168
DA:644,41168
DA:648,41168
DA:650,41168
DA:652,41168
DA:656,41168
DA:658,41168
DA:659,41168
DA:660,41168
DA:664,20584
DA:666,20584
DA:667,20584
DA:668,20584
DA:669,20584
DA:670,20584
DA:677,1328
DA:688,664
DA:692,664
DA:694,664
DA:695,664
DA:712,664
DA:713,664
DA:716,664
DA:717,664
DA:720,9296
DA:721,9296
DA:728,23240
DA:729,23240
DA:736,26560
DA:737,26560
DA:740,664
DA:743,664
DA:747,64408
DA:748,64408
DA:755,152720
DA:756,152720
DA:759,152720
DA:760,152720
DA:763,65072
DA:764,65072
DA:767,20584
DA:768,20584
DA:771,140768
DA:772,140768
DA:775,10624
DA:776,10624
DA:779,49800
DA:780,49800
DA:783,49800
DA:784,49800
DA:787,664
DA:788,664
DA:795,664
DA:796,664
DA:873,664
DA:875,664
DA:876,664
DA:877,664
DA:878,664
DA:879,664
DA:883,664
DA:885,664
DA:886,664
DA:913,664
DA:920,664
DA:921,664
DA:923,664
DA:924,664
DA:925,664
DA:948,1328
DA:949,1328
DA:956,8632
DA:957,8632
DA:960,664
DA:961,664
DA:968,36520
DA:969,36520
DA:996,11952
DA:997,11952
DA:1000,0
DA:1001,0
DA:1120,0
DA:1123,0
DA:1124,0
DA:1125,0
DA:1126,0
DA:1186,20584
DA:1187,20584
DA:1814,11288
DA:1818,11288
DA:1819,11288
DA:1823,11288
DA:1824,6640
DA:1825,11288
DA:1826,11288
DA:1828,29880
DA:1830,9296
DA:1831,9296
DA:1832,9296
DA:1833,9296
DA:1834,3984
DA:1835,9296
DA:1836,9296
DA:1839,0
DA:1841,0
DA:1842,0
DA:1844,11288
DA:1850,83664
DA:1854,124832
DA:1856,41168
DA:1857,41168
DA:1858,41168
DA:1859,41168
DA:1861,42496
DA:1867,139440
DA:1871,254312
DA:1872,114872
DA:1873,23904
DA:1875,90968
DA:1876,24568
DA:2028,664
DA:2032,664
DA:2033,664
DA:2034,664
DA:2035,664
DA:2037,0
DA:2038,0
DA:2039,0
DA:2041,664
DA:2042,664
DA:2044,664
DA:2045,664
DA:2047,0
DA:2049,0
DA:2050,0
DA:2051,0
DA:2130,20584
DA:2134,20584
DA:2138,20584
DA:2140,23904
DA:2141,11952
DA:2142,11288
DA:2144,664
DA:2146,8632
DA:2149,8632
DA:2150,8632
DA:2151,0
DA:2152,8632
DA:2154,8632
DA:2155,5976
DA:2157,2656
DA:2160,0
DA:2162,0
DA:2165,0
DA:2166,0
DA:2167,0
DA:2168,0
DA:2170,0
DA:2171,0
DA:2173,0
DA:2176,0
DA:2180,0
DA:2297,20584
DA:2300,38512
DA:2301,37848
DA:2304,20584
DA:2306,20584
DA:2307,20584
DA:2395,20584
DA:2398,20584
DA:2402,20584
DA:2404,20584
DA:2405,20584
DA:2407,0
DA:2408,0
DA:2410,0
DA:2412,0
DA:2413,0
DA:2470,0
DA:2473,0
DA:2475,0
DA:2477,0
DA:2478,0
DA:2479,0
DA:2520,3984
DA:2523,3984
DA:2524,7968
DA:2525,7968
DA:2526,11952
LF:257
LH:209
end_of_record
SF:/usr/include/c++/7/bits/stl_uninitialized.h
FN:76,_ZNSt20__uninitialized_copyILb0EE13__uninit_copyIN9__gnu_cxx17__normal_iteratorIPKN8nlohmann10basic_jsonISt3mapSt6vectorNSt7__cxx1112basic_stringIcSt11char_traitsIcESaIcEEEblmdSaNS4_14adl_serializerEEES7_ISF_SaISF_EEEEPSF_EET0_T_SN_SM_
FN:76,_ZNSt20__uninitialized_copyILb0EE13__uninit_copyISt13move_iteratorIPN8nlohmann10basic_jsonISt3mapSt6vectorNSt7__cxx1112basic_stringIcSt11char_traitsIcESaIcEEEblmdSaNS3_14adl_serializerEEEESF_EET0_T_SI_SH_
FN:99,_ZNSt20__uninitialized_copyILb1EE13__uninit_copyISt13move_iteratorIPcES3_EET0_T_S6_S5_
FN:99,_ZNSt20__uninitialized_copyILb1EE13__uninit_copyISt13move_iteratorIPPN8nlohmann10basic_jsonISt3mapSt6vectorNSt7__cxx1112basic_stringIcSt11char_traitsIcESaIcEEEblmdSaNS3_14adl_serializerEEEESG_EET0_T_SJ_SI_
FN:99,_ZNSt20__uninitialized_copyILb1EE13__uninit_copyISt13move_iteratorIPP6SensorES5_EET0_T_S8_S7_
FN:99,_ZNSt20__uninitialized_copyILb1EE13__uninit_copyISt13move_iteratorIPdES3_EET0_T_S6_S5_
FN:115,_ZSt18uninitialized_copyISt13move_iteratorIPP6SensorES3_ET0_T_S6_S5_
FN:115,_ZSt18uninitialized_copyISt13move_iteratorIPPN8nlohmann10basic_jsonISt3mapSt6vectorNSt7__cxx1112basic_stringIcSt11char_traitsIcESaIcEEEblmdSaNS1_14adl_serializerEEEESE_ET0_T_SH_SG_
FN:115,_ZSt18uninitialized_copyIN9__gnu_cxx17__normal_iteratorIPKN8nlohmann10basic_jsonISt3mapSt6vectorNSt7__cxx1112basic_stringIcSt11char_traitsIcESaIcEEEblmdSaNS2_14adl_serializerEEES5_ISD_SaISD_EEEEPSD_ET0_T_SL_SK_
FN:115,_ZSt18uninitialized_copyISt13move_iteratorIPN8nlohmann10basic_jsonISt3mapSt6vectorNSt7__cxx1112basic_stringIcSt11char_traitsIcESaIcEEEblmdSaNS1_14adl_serializerEEEESD_ET0_T_SG_SF_
FN:115,_ZSt18uninitialized_copyISt13move_iteratorIPcES1_ET0_T_S4_S3_
FN:115,_ZSt18uninitialized_copyISt13move_iteratorIPdES1_ET0_T_S4_S3_
FN:287,_ZSt22__uninitialized_copy_aISt13move_iteratorIPN8nlohmann10basic_jsonISt3mapSt6vectorNSt7__cxx1112basic_stringIcSt11char_traitsIcESaIcEEEblmdSaNS1_14adl_serializerEEEESD_SC_ET0_T_SG_SF_RSaIT1_E
FN:287,_ZSt22__uninitialized_copy_aISt13move_iteratorIPcES1_cET0_T_S4_S3_RSaIT1_E
FN:287,_ZSt22__uninitialized_copy_aISt13move_iteratorIPPN8nlohmann10basic_jsonISt3mapSt6vectorNSt7__cxx1112basic_stringIcSt11char_traitsIcESaIcEEEblmdSaNS1_14adl_serializerEEEESE_SD_ET0_T_SH_SG_RSaIT1_E
FN:287,_ZSt22__uninitialized_copy_aISt13move_iteratorIPdES1_dET0_T_S4_S3_RSaIT1_E
FN:287,_ZSt22__uninitialized_copy_aIN9__gnu_cxx17__normal_iteratorIPKN8nlohmann10basic_jsonISt3mapSt6vectorNSt7__cxx1112basic_stringIcSt11char_traitsIcESaIcEEEblmdSaNS2_14adl_serializerEEES5_ISD_SaISD_EEEEPSD_SD_ET0_T_SL_SK_RSaIT1_E
FN:287,_ZSt22__uninitialized_copy_aISt13move_iteratorIPP6SensorES3_S2_ET0_T_S6_S5_RSaIT1_E
FN:305,_ZSt34__uninitialized_move_if_noexcept_aIPdS0_SaIdEET0_T_S3_S2_RT1_
FN:305,_ZSt34__uninitialized_move_if_noexcept_aIPPN8nlohmann10basic_jsonISt3mapSt6vectorNSt7__cxx1112basic_stringIcSt11char_traitsIcESaIcEEEblmdSaNS0_14adl_serializerEEESD_SaISC_EET0_T_SG_SF_RT1_
FN:305,_ZSt34__uninitialized_move_if_noexcept_aIPcS0_SaIcEET0_T_S3_S2_RT1_
FN:305,_ZSt34__uninitialized_move_if_noexcept_aIPP6SensorS2_SaIS1_EET0_T_S5_S4_RT1_
FN:305,_ZSt34__uninitialized_move_if_noexcept_aIPN8nlohmann10basic_jsonISt3mapSt6vectorNSt7__cxx1112basic_stringIcSt11char_traitsIcESaIcEEEblmdSaNS0_14adl_serializerEEESC_SaISB_EET0_T_SF_SE_RT1_
FNDA:22,_ZNSt20__uninitialized_copyILb0EE13__uninit_copyISt13move_iteratorIPN8nlohmann10basic_jsonISt3mapSt6vectorNSt7__cxx1112basic_stringIcSt11char_traitsIcESaIcEEEblmdSaNS3_14adl_serializerEEEESF_EET0_T_SI_SH_
FNDA:0,_ZNSt20__uninitialized_copyILb0EE13__uninit_copyIN9__gnu_cxx17__normal_iteratorIPKN8nlohmann10basic_jsonISt3mapSt6vectorNSt7__cxx1112basic_stringIcSt11char_traitsIcESaIcEEEblmdSaNS4_14adl_serializerEEES7_ISF_SaISF_EEEEPSF_EET0_T_SN_SM_
FNDA:4,_ZNSt20__uninitialized_copyILb1EE13__uninit_copyISt13move_iteratorIPPN8nlohmann10basic_jsonISt3mapSt6vectorNSt7__cxx1112basic_stringIcSt11char_traitsIcESaIcEEEblmdSaNS3_14adl_serializerEEEESG_EET0_T_SJ_SI_
FNDA:14,_ZNSt20__uninitialized_copyILb1EE13__uninit_copyISt13move_iteratorIPcES3_EET0_T_S6_S5_
FNDA:66,_ZNSt20__uninitialized_copyILb1EE13__uninit_copyISt13move_iteratorIPdES3_EET0_T_S6_S5_
FNDA:44,_ZNSt20__uninitialized_copyILb1EE13__uninit_copyISt13move_iteratorIPP6SensorES5_EET0_T_S8_S7_
FNDA:22,_ZSt18uninitialized_copyISt13move_iteratorIPN8nlohmann10basic_jsonISt3mapSt6vectorNSt7__cxx1112basic_stringIcSt11char_traitsIcESaIcEEEblmdSaNS1_14adl_serializerEEEESD_ET0_T_SG_SF_
FNDA:4,_ZSt18uninitialized_copyISt13move_iteratorIPPN8nlohmann10basic_jsonISt3mapSt6vectorNSt7__cxx1112basic_stringIcSt11char_traitsIcESaIcEEEblmdSaNS1_14adl_serializerEEEESE_ET0_T_SH_SG_
FNDA:14,_ZSt18uninitialized_copyISt13move_iteratorIPcES1_ET0_T_S4_S3_
FNDA:0,_ZSt18uninitialized_copyIN9__gnu_cxx17__normal_iteratorIPKN8nlohmann10basic_jsonISt3mapSt6vectorNSt7__cxx1112basic_stringIcSt11char_traitsIcESaIcEEEblmdSaNS2_14adl_serializerEEES5_ISD_SaISD_EEEEPSD_ET0_T_SL_SK_
FNDA:66,_ZSt18uninitialized_copyISt13move_iteratorIPdES1_ET0_T_S4_S3_
FNDA:44,_ZSt18uninitialized_copyISt13move_iteratorIPP6SensorES3_ET0_T_S6_S5_
FNDA:22,_ZSt22__uninitialized_copy_aISt13move_iteratorIPN8nlohmann10basic_jsonISt3mapSt6vectorNSt7__cxx1112basic_stringIcSt11char_traitsIcESaIcEEEblmdSaNS1_14adl_serializerEEEESD_SC_ET0_T_SG_SF_RSaIT1_E
FNDA:4,_ZSt22__uninitialized_copy_aISt13move_iteratorIPPN8nlohmann10basic_jsonISt3mapSt6vectorNSt7__cxx1112basic_stringIcSt11char_traitsIcESaIcEEEblmdSaNS1_14adl_serializerEEEESE_SD_ET0_T_SH_SG_RSaIT1_E
FNDA:14,_ZSt22__uninitialized_copy_aISt13move_iteratorIPcES1_cET0_T_S4_S3_RSaIT1_E
FNDA:0,_ZSt22__uninitialized_copy_aIN9__gnu_cxx17__normal_iteratorIPKN8nlohmann10basic_jsonISt3mapSt6vectorNSt7__cxx1112basic_stringIcSt11char_traitsIcESaIcEEEblmdSaNS2_14adl_serializerEEES5_ISD_SaISD_EEEEPSD_SD_ET0_T_SL_SK_RSaIT1_E
FNDA:66,_ZSt22__uninitialized_copy_aISt13move_iteratorIPdES1_dET0_T_S4_S3_RSaIT1_E
FNDA:44,_ZSt22__uninitialized_copy_aISt13move_iteratorIPP6SensorES3_S2_ET0_T_S6_S5_RSaIT1_E
FNDA:22,_ZSt34__uninitialized_move_if_noexcept_aIPN8nlohmann10basic_jsonISt3mapSt6vectorNSt7__cxx1112basic_stringIcSt11char_traitsIcESaIcEEEblmdSaNS0_14adl_serializerEEESC_SaISB_EET0_T_SF_SE_RT1_
FNDA:4,_ZSt34__uninitialized_move_if_noexcept_aIPPN8nlohmann10basic_jsonISt3mapSt6vectorNSt7__cxx1112basic_stringIcSt11char_traitsIcESaIcEEEblmdSaNS0_14adl_serializerEEESD_SaISC_EET0_T_SG_SF_RT1_
FNDA:14,_ZSt34__uninitialized_move_if_noexcept_aIPcS0_SaIcEET0_T_S3_S2_RT1_
FNDA:66,_ZSt34__uninitialized_move_if_noexcept_aIPdS0_SaIdEET0_T_S3_S2_RT1_
FNDA:44,_ZSt34__uninitialized_move_if_noexcept_aIPP6SensorS2_SaIS1_EET0_T_S5_S4_RT1_
FNF:23
FNH:20
DA:76,22
DA:79,22
DA:82,2068
DA:83,1023
DA:84,22
DA:86,0
DA:88,0
DA:89,0
DA:99,128
DA:101,128
DA:115,150
DA:128,150
DA:134,150
DA:287,150
DA:289,150
DA:305,150
DA:311,150
DA:312,150
LF:18
LH:15
end_of_record
SF:/usr/include/c++/7/bits/stl_vector.h
FN:81,_ZNSt12_Vector_baseIN8nlohmann10basic_jsonISt3mapSt6vectorNSt7__cxx1112basic_stringIcSt11char_traitsIcESaIcEEEblmdSaNS0_14adl_serializerEEESaISB_EE12_Vector_implD2Ev
FN:81,_ZNSt12_Vector_baseIdSaIdEE12_Vector_implD2Ev
FN:81,_ZNSt12_Vector_baseIcSaIcEE12_Vector_implD2Ev
FN:81,_ZNSt12_Vector_baseIPN8nlohmann10basic_jsonISt3mapSt6vectorNSt7__cxx1112basic_stringIcSt11char_traitsIcESaIcEEEblmdSaNS0_14adl_serializerEEESaISC_EE12_Vector_implD2Ev
FN:81,_ZNSt12_Vector_baseIP6SensorSaIS1_EE12_Vector_implD2Ev
FN:88,_ZNSt12_Vector_baseIcSaIcEE12_Vector_implC2Ev
FN:88,_ZNSt12_Vector_baseIP6SensorSaIS1_EE12_Vector_implC2Ev
FN:88,_ZNSt12_Vector_baseIdSaIdEE12_Vector_implC2Ev
FN:88,_ZNSt12_Vector_baseIPN8nlohmann10basic_jsonISt3mapSt6vectorNSt7__cxx1112basic_stringIcSt11char_traitsIcESaIcEEEblmdSaNS0_14adl_serializerEEESaISC_EE12_Vector_implC2Ev
FN:88,_ZNSt12_Vector_baseIN8nlohmann10basic_jsonISt3mapSt6vectorNSt7__cxx1112basic_stringIcSt11char_traitsIcESaIcEEEblmdSaNS0_14adl_serializerEEESaISB_EE12_Vector_implC2Ev
FN:92,_ZNSt12_Vector_baseIN8nlohmann10basic_jsonISt3mapSt6vectorNSt7__cxx1112basic_stringIcSt11char_traitsIcESaIcEEEblmdSaNS0_14adl_serializerEEESaISB_EE12_Vector_implC2ERKSC_
FN:115,_ZNSt12_Vector_baseIdSaIdEE19_M_get_Tp_allocatorEv
FN:115,_ZNSt12_Vector_baseIN8nlohmann10basic_jsonISt3mapSt6vectorNSt7__cxx1112basic_stringIcSt11char_traitsIcESaIcEEEblmdSaNS0_14adl_serializerEEESaISB_EE19_M_get_Tp_allocatorEv
FN:115,_ZNSt12_Vector_baseIcSaIcEE19_M_get_Tp_allocatorEv
FN:115,_ZNSt12_Vector_baseIP6SensorSaIS1_EE19_M_get_Tp_allocatorEv
FN:115,_ZNSt12_Vector_baseIPN8nlohmann10basic_jsonISt3mapSt6vectorNSt7__cxx1112basic_stringIcSt11char_traitsIcESaIcEEEblmdSaNS0_14adl_serializerEEESaISC_EE19_M_get_Tp_allocatorEv
FN:119,_ZNKSt12_Vector_baseIPN8nlohmann10basic_jsonISt3mapSt6vectorNSt7__cxx1112basic_stringIcSt11char_traitsIcESaIcEEEblmdSaNS0_14adl_serializerEEESaISC_EE19_M_get_Tp_allocatorEv
FN:119,_ZNKSt12_Vector_baseIP6SensorSaIS1_EE19_M_get_Tp_allocatorEv
FN:119,_ZNKSt12_Vector_baseIcSaIcEE19_M_get_Tp_allocatorEv
FN:119,_ZNKSt12_Vector_baseIN8nlohmann10basic_jsonISt3mapSt6vectorNSt7__cxx1112basic_stringIcSt11char_traitsIcESaIcEEEblmdSaNS0_14adl_serializerEEESaISB_EE19_M_get_Tp_allocatorEv
FN:119,_ZNKSt12_Vector_baseIdSaIdEE19_M_get_Tp_allocatorEv
FN:126,_ZNSt12_Vector_baseIPN8nlohmann10basic_jsonISt3mapSt6vectorNSt7__cxx1112basic_stringIcSt11char_traitsIcESaIcEEEblmdSaNS0_14adl_serializerEEESaISC_EEC2Ev
FN:126,_ZNSt12_Vector_baseIdSaIdEEC2Ev
FN:126,_ZNSt12_Vector_baseIN8nlohmann10basic_jsonISt3mapSt6vectorNSt7__cxx1112basic_stringIcSt11char_traitsIcESaIcEEEblmdSaNS0_14adl_serializerEEESaISB_EEC2Ev
FN:126,_ZNSt12_Vector_baseIcSaIcEEC2Ev
FN:126,_ZNSt12_Vector_baseIP6SensorSaIS1_EEC2Ev
FN:136,_ZNSt12_Vector_baseIN8nlohmann10basic_jsonISt3mapSt6vectorNSt7__cxx1112basic_stringIcSt11char_traitsIcESaIcEEEblmdSaNS0_14adl_serializerEEESaISB_EEC2EmRKSC_
FN:161,_ZNSt12_Vector_baseIN8nlohmann10basic_jsonISt3mapSt6vectorNSt7__cxx1112basic_stringIcSt11char_traitsIcESaIcEEEblmdSaNS0_14adl_serializerEEESaISB_EED2Ev
FN:161,_ZNSt12_Vector_baseIP6SensorSaIS1_EED2Ev
FN:161,_ZNSt12_Vector_baseIcSaIcEED2Ev
FN:161,_ZNSt12_Vector_baseIPN8nlohmann10basic_jsonISt3mapSt6vectorNSt7__cxx1112basic_stringIcSt11char_traitsIcESaIcEEEblmdSaNS0_14adl_serializerEEESaISC_EED2Ev
FN:161,_ZNSt12_Vector_baseIdSaIdEED2Ev
FN:169,_ZNSt12_Vector_baseIP6SensorSaIS1_EE11_M_allocateEm
FN:169,_ZNSt12_Vector_baseIPN8nlohmann10basic_jsonISt3mapSt6vectorNSt7__cxx1112basic_stringIcSt11char_traitsIcESaIcEEEblmdSaNS0_14adl_serializerEEESaISC_EE11_M_allocateEm
FN:169,_ZNSt12_Vector_baseIcSaIcEE11_M_allocateEm
FN:169,_ZNSt12_Vector_baseIN8nlohmann10basic_jsonISt3mapSt6vectorNSt7__cxx1112basic_stringIcSt11char_traitsIcESaIcEEEblmdSaNS0_14adl_serializerEEESaISB_EE11_M_allocateEm
FN:169,_ZNSt12_Vector_baseIdSaIdEE11_M_allocateEm
FN:176,_ZNSt12_Vector_baseIP6SensorSaIS1_EE13_M_deallocateEPS1_m
FN:176,_ZNSt12_Vector_baseIPN8nlohmann10basic_jsonISt3mapSt6vectorNSt7__cxx1112basic_stringIcSt11char_traitsIcESaIcEEEblmdSaNS0_14adl_serializerEEESaISC_EE13_M_deallocateEPSC_m
FN:176,_ZNSt12_Vector_baseIN8nlohmann10basic_jsonISt3mapSt6vectorNSt7__cxx1112basic_stringIcSt11char_traitsIcESaIcEEEblmdSaNS0_14adl_serializerEEESaISB_EE13_M_deallocateEPSB_m
FN:176,_ZNSt12_Vector_baseIdSaIdEE13_M_deallocateEPdm
FN:176,_ZNSt12_Vector_baseIcSaIcEE13_M_deallocateEPcm
FN:185,_ZNSt12_Vector_baseIN8nlohmann10basic_jsonISt3mapSt6vectorNSt7__cxx1112basic_stringIcSt11char_traitsIcESaIcEEEblmdSaNS0_14adl_serializerEEESaISB_EE17_M_create_storageEm
FN:259,_ZNSt6vectorIP6SensorSaIS1_EEC2Ev
FN:259,_ZNSt6vectorIcSaIcEEC2Ev
FN:259,_ZNSt6vectorIN8nlohmann10basic_jsonISt3mapS_NSt7__cxx1112basic_stringIcSt11char_traitsIcESaIcEEEblmdSaNS0_14adl_serializerEEESaISA_EEC2Ev
FN:259,_ZNSt6vectorIdSaIdEEC2Ev
FN:259,_ZNSt6vectorIPN8nlohmann10basic_jsonISt3mapS_NSt7__cxx1112basic_stringIcSt11char_traitsIcESaIcEEEblmdSaNS0_14adl_serializerEEESaISB_EEC2Ev
FN:326,_ZNSt6vectorIN8nlohmann10basic_jsonISt3mapS_NSt7__cxx1112basic_stringIcSt11char_traitsIcESaIcEEEblmdSaNS0_14adl_serializerEEESaISA_EEC2ERKSC_
FN:433,_ZNSt6vectorIN8nlohmann10basic_jsonISt3mapS_NSt7__cxx1112basic_stringIcSt11char_traitsIcESaIcEEEblmdSaNS0_14adl_serializerEEESaISA_EED2Ev
FN:433,_ZNSt6vectorIP6SensorSaIS1_EED2Ev
FN:433,_ZNSt6vectorIdSaIdEED2Ev
FN:433,_ZNSt6vectorIcSaIcEED2Ev
FN:433,_ZNSt6vectorIPN8nlohmann10basic_jsonISt3mapS_NSt7__cxx1112basic_stringIcSt11char_traitsIcESaIcEEEblmdSaNS0_14adl_serializerEEESaISB_EED2Ev
FN:563,_ZNSt6vectorIPN8nlohmann10basic_jsonISt3mapS_NSt7__cxx1112basic_stringIcSt11char_traitsIcESaIcEEEblmdSaNS0_14adl_serializerEEESaISB_EE5beginEv
FN:563,_ZNSt6vectorIcSaIcEE5beginEv
FN:563,_ZNSt6vectorIP6SensorSaIS1_EE5beginEv
FN:563,_ZNSt6vectorIN8nlohmann10basic_jsonISt3mapS_NSt7__cxx1112basic_stringIcSt11char_traitsIcESaIcEEEblmdSaNS0_14adl_serializerEEESaISA_EE5beginEv
FN:563,_ZNSt6vectorIdSaIdEE5beginEv
FN:572,_ZNKSt6vectorIPN8nlohmann10basic_jsonISt3mapS_NSt7__cxx1112basic_stringIcSt11char_traitsIcESaIcEEEblmdSaNS0_14adl_serializerEEESaISB_EE5beginEv
FN:572,_ZNKSt6vectorIN8nlohmann10basic_jsonISt3mapS_NSt7__cxx1112basic_stringIcSt11char_traitsIcESaIcEEEblmdSaNS0_14adl_serializerEEESaISA_EE5beginEv
FN:572,_ZNKSt6vectorIcSaIcEE5beginEv
FN:581,_ZNSt6vectorIPN8nlohmann10basic_jsonISt3mapS_NSt7__cxx1112basic_stringIcSt11char_traitsIcESaIcEEEblmdSaNS0_14adl_serializerEEESaISB_EE3endEv
FN:581,_ZNSt6vectorIN8nlohmann10basic_jsonISt3mapS_NSt7__cxx1112basic_stringIcSt11char_traitsIcESaIcEEEblmdSaNS0_14adl_serializerEEESaISA_EE3endEv
FN:581,_ZNSt6vectorIdSaIdEE3endEv
FN:581,_ZNSt6vectorIP6SensorSaIS1_EE3endEv
FN:581,_ZNSt6vectorIcSaIcEE3endEv
FN:590,_ZNKSt6vectorIcSaIcEE3endEv
FN:590,_ZNKSt6vectorIN8nlohmann10basic_jsonISt3mapS_NSt7__cxx1112basic_stringIcSt11char_traitsIcESaIcEEEblmdSaNS0_14adl_serializerEEESaISA_EE3endEv
FN:590,_ZNKSt6vectorIPN8nlohmann10basic_jsonISt3mapS_NSt7__cxx1112basic_stringIcSt11char_traitsIcESaIcEEEblmdSaNS0_14adl_serializerEEESaISB_EE3endEv
FN:636,_ZNKSt6vectorIN8nlohmann10basic_jsonISt3mapS_NSt7__cxx1112basic_stringIcSt11char_traitsIcESaIcEEEblmdSaNS0_14adl_serializerEEESaISA_EE6cbeginEv
FN:670,_ZNKSt6vectorIN8nlohmann10basic_jsonISt3mapS_NSt7__cxx1112basic_stringIcSt11char_traitsIcESaIcEEEblmdSaNS0_14adl_serializerEEESaISA_EE4sizeEv
FN:670,_ZNKSt6vectorIcSaIcEE4sizeEv
FN:670,_ZNKSt6vectorIP6SensorSaIS1_EE4sizeEv
FN:670,_ZNKSt6vectorIdSaIdEE4sizeEv
FN:670,_ZNKSt6vectorIPN8nlohmann10basic_jsonISt3mapS_NSt7__cxx1112basic_stringIcSt11char_traitsIcESaIcEEEblmdSaNS0_14adl_serializerEEESaISB_EE4sizeEv
FN:675,_ZNKSt6vectorIcSaIcEE8max_sizeEv
FN:675,_ZNKSt6vectorIN8nlohmann10basic_jsonISt3mapS_NSt7__cxx1112basic_stringIcSt11char_traitsIcESaIcEEEblmdSaNS0_14adl_serializerEEESaISA_EE8max_sizeEv
FN:675,_ZNKSt6vectorIP6SensorSaIS1_EE8max_sizeEv
FN:675,_ZNKSt6vectorIPN8nlohmann10basic_jsonISt3mapS_NSt7__cxx1112basic_stringIcSt11char_traitsIcESaIcEEEblmdSaNS0_14adl_serializerEEESaISB_EE8max_sizeEv
FN:675,_ZNKSt6vectorIdSaIdEE8max_sizeEv
FN:759,_ZNKSt6vectorIPN8nlohmann10basic_jsonISt3mapS_NSt7__cxx1112basic_stringIcSt11char_traitsIcESaIcEEEblmdSaNS0_14adl_serializerEEESaISB_EE5emptyEv
FN:795,_ZNSt6vectorIP6SensorSaIS1_EEixEm
FN:895,_ZNSt6vectorIN8nlohmann10basic_jsonISt3mapS_NSt7__cxx1112basic_stringIcSt11char_traitsIcESaIcEEEblmdSaNS0_14adl_serializerEEESaISA_EE4backEv
FN:895,_ZNSt6vectorIPN8nlohmann10basic_jsonISt3mapS_NSt7__cxx1112basic_stringIcSt11char_traitsIcESaIcEEEblmdSaNS0_14adl_serializerEEESaISB_EE4backEv
FN:939,_ZNSt6vectorIPN8nlohmann10basic_jsonISt3mapS_NSt7__cxx1112basic_stringIcSt11char_traitsIcESaIcEEEblmdSaNS0_14adl_serializerEEESaISB_EE9push_backERKSB_
FN:953,_ZNSt6vectorIPN8nlohmann10basic_jsonISt3mapS_NSt7__cxx1112basic_stringIcSt11char_traitsIcESaIcEEEblmdSaNS0_14adl_serializerEEESaISB_EE9push_backEOSB_
FN:953,_ZNSt6vectorIN8nlohmann10basic_jsonISt3mapS_NSt7__cxx1112basic_stringIcSt11char_traitsIcESaIcEEEblmdSaNS0_14adl_serializerEEESaISA_EE9push_backEOSA_
FN:953,_ZNSt6vectorIdSaIdEE9push_backEOd
FN:953,_ZNSt6vectorIcSaIcEE9push_backEOc
FN:953,_ZNSt6vectorIP6SensorSaIS1_EE9push_backEOS1_
FN:975,_ZNSt6vectorIcSaIcEE8pop_backEv
FN:975,_ZNSt6vectorIN8nlohmann10basic_jsonISt3mapS_NSt7__cxx1112basic_stringIcSt11char_traitsIcESaIcEEEblmdSaNS0_14adl_serializerEEESaISA_EE8pop_backEv
FN:975,_ZNSt6vectorIPN8nlohmann10basic_jsonISt3mapS_NSt7__cxx1112basic_stringIcSt11char_traitsIcESaIcEEEblmdSaNS0_14adl_serializerEEESaISB_EE8pop_backEv
FN:1179,_ZNSt6vectorIN8nlohmann10basic_jsonISt3mapS_NSt7__cxx1112basic_stringIcSt11char_traitsIcESaIcEEEblmdSaNS0_14adl_serializerEEESaISA_EE5eraseEN9__gnu_cxx17__normal_iteratorIPKSA_SC_EE
FN:1247,_ZNSt6vectorIcSaIcEE5clearEv
FN:1497,_ZNKSt6vectorIPN8nlohmann10basic_jsonISt3mapS_NSt7__cxx1112basic_stringIcSt11char_traitsIcESaIcEEEblmdSaNS0_14adl_serializerEEESaISB_EE12_M_check_lenEmPKc
FN:1497,_ZNKSt6vectorIP6SensorSaIS1_EE12_M_check_lenEmPKc
FN:1497,_ZNKSt6vectorIdSaIdEE12_M_check_lenEmPKc
FN:1497,_ZNKSt6vectorIN8nlohmann10basic_jsonISt3mapS_NSt7__cxx1112basic_stringIcSt11char_traitsIcESaIcEEEblmdSaNS0_14adl_serializerEEESaISA_EE12_M_check_lenEmPKc
FN:1497,_ZNKSt6vectorIcSaIcEE12_M_check_lenEmPKc
FN:1511,_ZNSt6vectorIcSaIcEE15_M_erase_at_endEPc
FNDA:1,_ZNSt12_Vector_baseIN8nlohmann10basic_jsonISt3mapSt6vectorNSt7__cxx1112basic_stringIcSt11char_traitsIcESaIcEEEblmdSaNS0_14adl_serializerEEESaISB_EE12_Vector_implD2Ev
FNDA:1,_ZNSt12_Vector_baseIPN8nlohmann10basic_jsonISt3mapSt6vectorNSt7__cxx1112basic_stringIcSt11char_traitsIcESaIcEEEblmdSaNS0_14adl_serializerEEESaISC_EE12_Vector_implD2Ev
FNDA:1,_ZNSt12_Vector_baseIcSaIcEE12_Vector_implD2Ev
FNDA:3,_ZNSt12_Vector_baseIdSaIdEE12_Vector_implD2Ev
FNDA:2,_ZNSt12_Vector_baseIP6SensorSaIS1_EE12_Vector_implD2Ev
FNDA:1,_ZNSt12_Vector_baseIN8nlohmann10basic_jsonISt3mapSt6vectorNSt7__cxx1112basic_stringIcSt11char_traitsIcESaIcEEEblmdSaNS0_14adl_serializerEEESaISB_EE12_Vector_implC2Ev
FNDA:1,_ZNSt12_Vector_baseIPN8nlohmann10basic_jsonISt3mapSt6vectorNSt7__cxx1112basic_stringIcSt11char_traitsIcESaIcEEEblmdSaNS0_14adl_serializerEEESaISC_EE12_Vector_implC2Ev
FNDA:1,_ZNSt12_Vector_baseIcSaIcEE12_Vector_implC2Ev
FNDA:3,_ZNSt12_Vector_baseIdSaIdEE12_Vector_implC2Ev
FNDA:2,_ZNSt12_Vector_baseIP6SensorSaIS1_EE12_Vector_implC2Ev
FNDA:0,_ZNSt12_Vector_baseIN8nlohmann10basic_jsonISt3mapSt6vectorNSt7__cxx1112basic_stringIcSt11char_traitsIcESaIcEEEblmdSaNS0_14adl_serializerEEESaISB_EE12_Vector_implC2ERKSC_
FNDA:34,_ZNSt12_Vector_baseIN8nlohmann10basic_jsonISt3mapSt6vectorNSt7__cxx1112basic_stringIcSt11char_traitsIcESaIcEEEblmdSaNS0_14adl_serializerEEESaISB_EE19_M_get_Tp_allocatorEv
FNDA:7,_ZNSt12_Vector_baseIPN8nlohmann10basic_jsonISt3mapSt6vectorNSt7__cxx1112basic_stringIcSt11char_traitsIcESaIcEEEblmdSaNS0_14adl_serializerEEESaISC_EE19_M_get_Tp_allocatorEv
FNDA:41190,_ZNSt12_Vector_baseIcSaIcEE19_M_get_Tp_allocatorEv
FNDA:102,_ZNSt12_Vector_baseIdSaIdEE19_M_get_Tp_allocatorEv
FNDA:68,_ZNSt12_Vector_baseIP6SensorSaIS1_EE19_M_get_Tp_allocatorEv
FNDA:4,_ZNKSt12_Vector_baseIPN8nlohmann10basic_jsonISt3mapSt6vectorNSt7__cxx1112basic_stringIcSt11char_traitsIcESaIcEEEblmdSaNS0_14adl_serializerEEESaISC_EE19_M_get_Tp_allocatorEv
FNDA:14,_ZNKSt12_Vector_baseIcSaIcEE19_M_get_Tp_allocatorEv
FNDA:22,_ZNKSt12_Vector_baseIN8nlohmann10basic_jsonISt3mapSt6vectorNSt7__cxx1112basic_stringIcSt11char_traitsIcESaIcEEEblmdSaNS0_14adl_serializerEEESaISB_EE19_M_get_Tp_allocatorEv
FNDA:66,_ZNKSt12_Vector_baseIdSaIdEE19_M_get_Tp_allocatorEv
FNDA:44,_ZNKSt12_Vector_baseIP6SensorSaIS1_EE19_M_get_Tp_allocatorEv
FNDA:1,_ZNSt12_Vector_baseIN8nlohmann10basic_jsonISt3mapSt6vectorNSt7__cxx1112basic_stringIcSt11char_traitsIcESaIcEEEblmdSaNS0_14adl_serializerEEESaISB_EEC2Ev
FNDA:1,_ZNSt12_Vector_baseIPN8nlohmann10basic_jsonISt3mapSt6vectorNSt7__cxx1112basic_stringIcSt11char_traitsIcESaIcEEEblmdSaNS0_14adl_serializerEEESaISC_EEC2Ev
FNDA:1,_ZNSt12_Vector_baseIcSaIcEEC2Ev
FNDA:3,_ZNSt12_Vector_baseIdSaIdEEC2Ev
FNDA:2,_ZNSt12_Vector_baseIP6SensorSaIS1_EEC2Ev
FNDA:0,_ZNSt12_Vector_baseIN8nlohmann10basic_jsonISt3mapSt6vectorNSt7__cxx1112basic_stringIcSt11char_traitsIcESaIcEEEblmdSaNS0_14adl_serializerEEESaISB_EEC2EmRKSC_
FNDA:1,_ZNSt12_Vector_baseIN8nlohmann10basic_jsonISt3mapSt6vectorNSt7__cxx1112basic_stringIcSt11char_traitsIcESaIcEEEblmdSaNS0_14adl_serializerEEESaISB_EED2Ev
FNDA:1,_ZNSt12_Vector_baseIPN8nlohmann10basic_jsonISt3mapSt6vectorNSt7__cxx1112basic_stringIcSt11char_traitsIcESaIcEEEblmdSaNS0_14adl_serializerEEESaISC_EED2Ev
FNDA:1,_ZNSt12_Vector_baseIcSaIcEED2Ev
FNDA:3,_ZNSt12_Vector_baseIdSaIdEED2Ev
FNDA:2,_ZNSt12_Vector_baseIP6SensorSaIS1_EED2Ev
FNDA:2,_ZNSt12_Vector_baseIPN8nlohmann10basic_jsonISt3mapSt6vectorNSt7__cxx1112basic_stringIcSt11char_traitsIcESaIcEEEblmdSaNS0_14adl_serializerEEESaISC_EE11_M_allocateEm
FNDA:11,_ZNSt12_Vector_baseIN8nlohmann10basic_jsonISt3mapSt6vectorNSt7__cxx1112basic_stringIcSt11char_traitsIcESaIcEEEblmdSaNS0_14adl_serializerEEESaISB_EE11_M_allocateEm
FNDA:7,_ZNSt12_Vector_baseIcSaIcEE11_M_allocateEm
FNDA:33,_ZNSt12_Vector_baseIdSaIdEE11_M_allocateEm
FNDA:22,_ZNSt12_Vector_baseIP6SensorSaIS1_EE11_M_allocateEm
FNDA:12,_ZNSt12_Vector_baseIN8nlohmann10basic_jsonISt3mapSt6vectorNSt7__cxx1112basic_stringIcSt11char_traitsIcESaIcEEEblmdSaNS0_14adl_serializerEEESaISB_EE13_M_deallocateEPSB_m
FNDA:3,_ZNSt12_Vector_baseIPN8nlohmann10basic_jsonISt3mapSt6vectorNSt7__cxx1112basic_stringIcSt11char_traitsIcESaIcEEEblmdSaNS0_14adl_serializerEEESaISC_EE13_M_deallocateEPSC_m
FNDA:8,_ZNSt12_Vector_baseIcSaIcEE13_M_deallocateEPcm
FNDA:36,_ZNSt12_Vector_baseIdSaIdEE13_M_deallocateEPdm
FNDA:24,_ZNSt12_Vector_baseIP6SensorSaIS1_EE13_M_deallocateEPS1_m
FNDA:0,_ZNSt12_Vector_baseIN8nlohmann10basic_jsonISt3mapSt6vectorNSt7__cxx1112basic_stringIcSt11char_traitsIcESaIcEEEblmdSaNS0_14adl_serializerEEESaISB_EE17_M_create_storageEm
FNDA:1,_ZNSt6vectorIN8nlohmann10basic_jsonISt3mapS_NSt7__cxx1112basic_stringIcSt11char_traitsIcESaIcEEEblmdSaNS0_14adl_serializerEEESaISA_EEC2Ev
FNDA:1,_ZNSt6vectorIPN8nlohmann10basic_jsonISt3mapS_NSt7__cxx1112basic_stringIcSt11char_traitsIcESaIcEEEblmdSaNS0_14adl_serializerEEESaISB_EEC2Ev
FNDA:1,_ZNSt6vectorIcSaIcEEC2Ev
FNDA:3,_ZNSt6vectorIdSaIdEEC2Ev
FNDA:2,_ZNSt6vectorIP6SensorSaIS1_EEC2Ev
FNDA:0,_ZNSt6vectorIN8nlohmann10basic_jsonISt3mapS_NSt7__cxx1112basic_stringIcSt11char_traitsIcESaIcEEEblmdSaNS0_14adl_serializerEEESaISA_EEC2ERKSC_
FNDA:1,_ZNSt6vectorIN8nlohmann10basic_jsonISt3mapS_NSt7__cxx1112basic_stringIcSt11char_traitsIcESaIcEEEblmdSaNS0_14adl_serializerEEESaISA_EED2Ev
FNDA:1,_ZNSt6vectorIPN8nlohmann10basic_jsonISt3mapS_NSt7__cxx1112basic_stringIcSt11char_traitsIcESaIcEEEblmdSaNS0_14adl_serializerEEESaISB_EED2Ev
FNDA:1,_ZNSt6vectorIcSaIcEED2Ev
FNDA:3,_ZNSt6vectorIdSaIdEED2Ev
FNDA:2,_ZNSt6vectorIP6SensorSaIS1_EED2Ev
FNDA:2,_ZNSt6vectorIPN8nlohmann10basic_jsonISt3mapS_NSt7__cxx1112basic_stringIcSt11char_traitsIcESaIcEEEblmdSaNS0_14adl_serializerEEESaISB_EE5beginEv
FNDA:7,_ZNSt6vectorIcSaIcEE5beginEv
FNDA:34,_ZNSt6vectorIdSaIdEE5beginEv
FNDA:12,_ZNSt6vectorIN8nlohmann10basic_jsonISt3mapS_NSt7__cxx1112basic_stringIcSt11char_traitsIcESaIcEEEblmdSaNS0_14adl_serializerEEESaISA_EE5beginEv
FNDA:26,_ZNSt6vectorIP6SensorSaIS1_EE5beginEv
FNDA:21249,_ZNKSt6vectorIPN8nlohmann10basic_jsonISt3mapS_NSt7__cxx1112basic_stringIcSt11char_traitsIcESaIcEEEblmdSaNS0_14adl_serializerEEESaISB_EE5beginEv
FNDA:0,_ZNKSt6vectorIcSaIcEE5beginEv
FNDA:0,_ZNKSt6vectorIN8nlohmann10basic_jsonISt3mapS_NSt7__cxx1112basic_stringIcSt11char_traitsIcESaIcEEEblmdSaNS0_14adl_serializerEEESaISA_EE5beginEv
FNDA:84994,_ZNSt6vectorIPN8nlohmann10basic_jsonISt3mapS_NSt7__cxx1112basic_stringIcSt11char_traitsIcESaIcEEEblmdSaNS0_14adl_serializerEEESaISB_EE3endEv
FNDA:7,_ZNSt6vectorIcSaIcEE3endEv
FNDA:34,_ZNSt6vectorIdSaIdEE3endEv
FNDA:1340,_ZNSt6vectorIN8nlohmann10basic_jsonISt3mapS_NSt7__cxx1112basic_stringIcSt11char_traitsIcESaIcEEEblmdSaNS0_14adl_serializerEEESaISA_EE3endEv
FNDA:1354,_ZNSt6vectorIP6SensorSaIS1_EE3endEv
FNDA:21249,_ZNKSt6vectorIPN8nlohmann10basic_jsonISt3mapS_NSt7__cxx1112basic_stringIcSt11char_traitsIcESaIcEEEblmdSaNS0_14adl_serializerEEESaISB_EE3endEv
FNDA:0,_ZNKSt6vectorIcSaIcEE3endEv
FNDA:0,_ZNKSt6vectorIN8nlohmann10basic_jsonISt3mapS_NSt7__cxx1112basic_stringIcSt11char_traitsIcESaIcEEEblmdSaNS0_14adl_serializerEEESaISA_EE3endEv
FNDA:0,_ZNKSt6vectorIN8nlohmann10basic_jsonISt3mapS_NSt7__cxx1112basic_stringIcSt11char_traitsIcESaIcEEEblmdSaNS0_14adl_serializerEEESaISA_EE6cbeginEv
FNDA:8,_ZNKSt6vectorIPN8nlohmann10basic_jsonISt3mapS_NSt7__cxx1112basic_stringIcSt11char_traitsIcESaIcEEEblmdSaNS0_14adl_serializerEEESaISB_EE4sizeEv
FNDA:44,_ZNKSt6vectorIN8nlohmann10basic_jsonISt3mapS_NSt7__cxx1112basic_stringIcSt11char_traitsIcESaIcEEEblmdSaNS0_14adl_serializerEEESaISA_EE4sizeEv
FNDA:17957,_ZNKSt6vectorIcSaIcEE4sizeEv
FNDA:134,_ZNKSt6vectorIdSaIdEE4sizeEv
FNDA:88,_ZNKSt6vectorIP6SensorSaIS1_EE4sizeEv
FNDA:4,_ZNKSt6vectorIPN8nlohmann10basic_jsonISt3mapS_NSt7__cxx1112basic_stringIcSt11char_traitsIcESaIcEEEblmdSaNS0_14adl_serializerEEESaISB_EE8max_sizeEv
FNDA:22,_ZNKSt6vectorIN8nlohmann10basic_jsonISt3mapS_NSt7__cxx1112basic_stringIcSt11char_traitsIcESaIcEEEblmdSaNS0_14adl_serializerEEESaISA_EE8max_sizeEv
FNDA:14,_ZNKSt6vectorIcSaIcEE8max_sizeEv
FNDA:66,_ZNKSt6vectorIdSaIdEE8max_sizeEv
FNDA:44,_ZNKSt6vectorIP6SensorSaIS1_EE8max_sizeEv
FNDA:21249,_ZNKSt6vectorIPN8nlohmann10basic_jsonISt3mapS_NSt7__cxx1112basic_stringIcSt11char_traitsIcESaIcEEEblmdSaNS0_14adl_serializerEEESaISB_EE5emptyEv
FNDA:1,_ZNSt6vectorIP6SensorSaIS1_EEixEm
FNDA:84992,_ZNSt6vectorIPN8nlohmann10basic_jsonISt3mapS_NSt7__cxx1112basic_stringIcSt11char_traitsIcESaIcEEEblmdSaNS0_14adl_serializerEEESaISB_EE4backEv
FNDA:664,_ZNSt6vectorIN8nlohmann10basic_jsonISt3mapS_NSt7__cxx1112basic_stringIcSt11char_traitsIcESaIcEEEblmdSaNS0_14adl_serializerEEESaISA_EE4backEv
FNDA:0,_ZNSt6vectorIPN8nlohmann10basic_jsonISt3mapS_NSt7__cxx1112basic_stringIcSt11char_traitsIcESaIcEEEblmdSaNS0_14adl_serializerEEESaISB_EE9push_backERKSB_
FNDA:0,_ZNSt6vectorIN8nlohmann10basic_jsonISt3mapS_NSt7__cxx1112basic_stringIcSt11char_traitsIcESaIcEEEblmdSaNS0_14adl_serializerEEESaISA_EE9push_backEOSA_
FNDA:665,_ZNSt6vectorIPN8nlohmann10basic_jsonISt3mapS_NSt7__cxx1112basic_stringIcSt11char_traitsIcESaIcEEEblmdSaNS0_14adl_serializerEEESaISB_EE9push_backEOSB_
FNDA:861394,_ZNSt6vectorIcSaIcEE9push_backEOc
FNDA:1992,_ZNSt6vectorIdSaIdEE9push_backEOd
FNDA:1328,_ZNSt6vectorIP6SensorSaIS1_EE9push_backEOS1_
FNDA:0,_ZNSt6vectorIN8nlohmann10basic_jsonISt3mapS_NSt7__cxx1112basic_stringIcSt11char_traitsIcESaIcEEEblmdSaNS0_14adl_serializerEEESaISA_EE8pop_backEv
FNDA:665,_ZNSt6vectorIPN8nlohmann10basic_jsonISt3mapS_NSt7__cxx1112basic_stringIcSt11char_traitsIcESaIcEEEblmdSaNS0_14adl_serializerEEESaISB_EE8pop_backEv
FNDA:17929,_ZNSt6vectorIcSaIcEE8pop_backEv
FNDA:0,_ZNSt6vectorIN8nlohmann10basic_jsonISt3mapS_NSt7__cxx1112basic_stringIcSt11char_traitsIcESaIcEEEblmdSaNS0_14adl_serializerEEESaISA_EE5eraseEN9__gnu_cxx17__normal_iteratorIPKSA_SC_EE
FNDA:41168,_ZNSt6vectorIcSaIcEE5clearEv
FNDA:11,_ZNKSt6vectorIN8nlohmann10basic_jsonISt3mapS_NSt7__cxx1112basic_stringIcSt11char_traitsIcESaIcEEEblmdSaNS0_14adl_serializerEEESaISA_EE12_M_check_lenEmPKc
FNDA:2,_ZNKSt6vectorIPN8nlohmann10basic_jsonISt3mapS_NSt7__cxx1112basic_stringIcSt11char_traitsIcESaIcEEEblmdSaNS0_14adl_serializerEEESaISB_EE12_M_check_lenEmPKc
FNDA:7,_ZNKSt6vectorIcSaIcEE12_M_check_lenEmPKc
FNDA:33,_ZNKSt6vectorIdSaIdEE12_M_check_lenEmPKc
FNDA:22,_ZNKSt6vectorIP6SensorSaIS1_EE12_M_check_lenEmPKc
FNDA:41168,_ZNSt6vectorIcSaIcEE15_M_erase_at_endEPc
FNF:102
FNH:89
DA:81,8
DA:88,8
DA:89,8
DA:90,8
DA:92,0
DA:93,0
DA:94,0
DA:115,41401
DA:116,41401
DA:119,150
DA:120,150
DA:126,8
DA:127,8
DA:136,0
DA:137,0
DA:138,0
DA:161,8
DA:162,16
DA:163,16
DA:169,75
DA:172,75
DA:176,83
DA:179,83
DA:180,75
DA:181,83
DA:185,0
DA:187,0
DA:188,0
DA:189,0
DA:190,0
DA:259,8
DA:263,8
DA:326,0
DA:328,0
DA:330,0
DA:331,0
DA:333,0
DA:334,0
DA:433,8
DA:434,8
DA:435,16
DA:563,81
DA:564,81
DA:572,21249
DA:573,21249
DA:581,87729
DA:582,87729
DA:590,21249
DA:591,21249
DA:636,0
DA:637,0
DA:670,18231
DA:671,18231
DA:675,150
DA:676,150
DA:759,21249
DA:760,21249
DA:795,1
DA:798,1
DA:895,85656
DA:898,85656
DA:939,0
DA:941,0
DA:943,0
DA:945,0
DA:948,0
DA:949,0
DA:953,865379
DA:954,865379
DA:975,18594
DA:978,18594
DA:979,18594
DA:980,18594
DA:1179,0
DA:1180,0
DA:1247,41168
DA:1248,41168
DA:1497,75
DA:1499,75
DA:1500,0
DA:1502,75
DA:1503,75
DA:1511,41168
DA:1513,41168
DA:1514,41168
DA:1515,41168
LF:86
LH:58
end_of_record
SF:/usr/include/c++/7/bits/unique_ptr.h
FN:143,_ZNSt15__uniq_ptr_implINSt7__cxx1112basic_stringIcSt11char_traitsIcESaIcEEEZN8nlohmann10basic_jsonISt3mapSt6vectorS5_blmdSaNS6_14adl_serializerEE6createIS5_JRKS5_EEEPT_DpOT0_EUlPS5_E_EC2IRKSL_EESK_OSF_
FN:143,_ZNSt15__uniq_ptr_implISt3mapINSt7__cxx1112basic_stringIcSt11char_traitsIcESaIcEEEN8nlohmann10basic_jsonIS0_St6vectorS6_blmdSaNS7_14adl_serializerEEESt4lessIvESaISt4pairIKS6_SB_EEEZNSB_6createISI_JRKSI_EEEPT_DpOT0_EUlPSI_E_EC2IRKSS_EESR_OSM_
FN:143,_ZNSt15__uniq_ptr_implISt6vectorIN8nlohmann10basic_jsonISt3mapS0_NSt7__cxx1112basic_stringIcSt11char_traitsIcESaIcEEEblmdSaNS1_14adl_serializerEEESaISB_EEZNSB_6createISD_JEEEPT_DpOT0_EUlPSD_E_EC2IRKSL_EESK_OSF_
FN:143,_ZNSt15__uniq_ptr_implISt6vectorIN8nlohmann10basic_jsonISt3mapS0_NSt7__cxx1112basic_stringIcSt11char_traitsIcESaIcEEEblmdSaNS1_14adl_serializerEEESaISB_EEZNSB_6createISD_JRKSD_EEEPT_DpOT0_EUlPSD_E_EC2IRKSN_EESM_OSH_
FN:143,_ZNSt15__uniq_ptr_implISt3mapINSt7__cxx1112basic_stringIcSt11char_traitsIcESaIcEEEN8nlohmann10basic_jsonIS0_St6vectorS6_blmdSaNS7_14adl_serializerEEESt4lessIvESaISt4pairIKS6_SB_EEEZNSB_6createISI_JEEEPT_DpOT0_EUlPSI_E_EC2IRKSQ_EESP_OSK_
FN:143,_ZNSt15__uniq_ptr_implINSt7__cxx1112basic_stringIcSt11char_traitsIcESaIcEEEZN8nlohmann10basic_jsonISt3mapSt6vectorS5_blmdSaNS6_14adl_serializerEE6createIS5_JRA1_KcEEEPT_DpOT0_EUlPS5_E_EC2IRKSM_EESL_OSG_
FN:146,_ZNSt15__uniq_ptr_implISt6vectorIN8nlohmann10basic_jsonISt3mapS0_NSt7__cxx1112basic_stringIcSt11char_traitsIcESaIcEEEblmdSaNS1_14adl_serializerEEESaISB_EEZNSB_6createISD_JRKSD_EEEPT_DpOT0_EUlPSD_E_E6_M_ptrEv
FN:146,_ZNSt15__uniq_ptr_implINSt7__cxx1112basic_stringIcSt11char_traitsIcESaIcEEEZN8nlohmann10basic_jsonISt3mapSt6vectorS5_blmdSaNS6_14adl_serializerEE6createIS5_JRKS5_EEEPT_DpOT0_EUlPS5_E_E6_M_ptrEv
FN:146,_ZNSt15__uniq_ptr_implISt6vectorIN8nlohmann10basic_jsonISt3mapS0_NSt7__cxx1112basic_stringIcSt11char_traitsIcESaIcEEEblmdSaNS1_14adl_serializerEEESaISB_EEZNSB_6createISD_JEEEPT_DpOT0_EUlPSD_E_E6_M_ptrEv
FN:146,_ZNSt15__uniq_ptr_implISt3mapINSt7__cxx1112basic_stringIcSt11char_traitsIcESaIcEEEN8nlohmann10basic_jsonIS0_St6vectorS6_blmdSaNS7_14adl_serializerEEESt4lessIvESaISt4pairIKS6_SB_EEEZNSB_6createISI_JRKSI_EEEPT_DpOT0_EUlPSI_E_E6_M_ptrEv
FN:146,_ZNSt15__uniq_ptr_implINSt7__cxx1112basic_stringIcSt11char_traitsIcESaIcEEEZN8nlohmann10basic_jsonISt3mapSt6vectorS5_blmdSaNS6_14adl_serializerEE6createIS5_JRA1_KcEEEPT_DpOT0_EUlPS5_E_E6_M_ptrEv
FN:146,_ZNSt15__uniq_ptr_implISt3mapINSt7__cxx1112basic_stringIcSt11char_traitsIcESaIcEEEN8nlohmann10basic_jsonIS0_St6vectorS6_blmdSaNS7_14adl_serializerEEESt4lessIvESaISt4pairIKS6_SB_EEEZNSB_6createISI_JEEEPT_DpOT0_EUlPSI_E_E6_M_ptrEv
FN:147,_ZNKSt15__uniq_ptr_implISt3mapINSt7__cxx1112basic_stringIcSt11char_traitsIcESaIcEEEN8nlohmann10basic_jsonIS0_St6vectorS6_blmdSaNS7_14adl_serializerEEESt4lessIvESaISt4pairIKS6_SB_EEEZNSB_6createISI_JRKSI_EEEPT_DpOT0_EUlPSI_E_E6_M_ptrEv
FN:147,_ZNKSt15__uniq_ptr_implISt6vectorIN8nlohmann10basic_jsonISt3mapS0_NSt7__cxx1112basic_stringIcSt11char_traitsIcESaIcEEEblmdSaNS1_14adl_serializerEEESaISB_EEZNSB_6createISD_JRKSD_EEEPT_DpOT0_EUlPSD_E_E6_M_ptrEv
FN:147,_ZNKSt15__uniq_ptr_implINSt7__cxx1112basic_stringIcSt11char_traitsIcESaIcEEEZN8nlohmann10basic_jsonISt3mapSt6vectorS5_blmdSaNS6_14adl_serializerEE6createIS5_JRKS5_EEEPT_DpOT0_EUlPS5_E_E6_M_ptrEv
FN:147,_ZNKSt15__uniq_ptr_implISt3mapINSt7__cxx1112basic_stringIcSt11char_traitsIcESaIcEEEN8nlohmann10basic_jsonIS0_St6vectorS6_blmdSaNS7_14adl_serializerEEESt4lessIvESaISt4pairIKS6_SB_EEEZNSB_6createISI_JEEEPT_DpOT0_EUlPSI_E_E6_M_ptrEv
FN:147,_ZNKSt15__uniq_ptr_implINSt7__cxx1112basic_stringIcSt11char_traitsIcESaIcEEEZN8nlohmann10basic_jsonISt3mapSt6vectorS5_blmdSaNS6_14adl_serializerEE6createIS5_JRA1_KcEEEPT_DpOT0_EUlPS5_E_E6_M_ptrEv
FN:147,_ZNKSt15__uniq_ptr_implISt6vectorIN8nlohmann10basic_jsonISt3mapS0_NSt7__cxx1112basic_stringIcSt11char_traitsIcESaIcEEEblmdSaNS1_14adl_serializerEEESaISB_EEZNSB_6createISD_JEEEPT_DpOT0_EUlPSD_E_E6_M_ptrEv
FN:148,_ZNSt15__uniq_ptr_implISt3mapINSt7__cxx1112basic_stringIcSt11char_traitsIcESaIcEEEN8nlohmann10basic_jsonIS0_St6vectorS6_blmdSaNS7_14adl_serializerEEESt4lessIvESaISt4pairIKS6_SB_EEEZNSB_6createISI_JRKSI_EEEPT_DpOT0_EUlPSI_E_E10_M_deleterEv
FN:148,_ZNSt15__uniq_ptr_implINSt7__cxx1112basic_stringIcSt11char_traitsIcESaIcEEEZN8nlohmann10basic_jsonISt3mapSt6vectorS5_blmdSaNS6_14adl_serializerEE6createIS5_JRKS5_EEEPT_DpOT0_EUlPS5_E_E10_M_deleterEv
FN:148,_ZNSt15__uniq_ptr_implISt6vectorIN8nlohmann10basic_jsonISt3mapS0_NSt7__cxx1112basic_stringIcSt11char_traitsIcESaIcEEEblmdSaNS1_14adl_serializerEEESaISB_EEZNSB_6createISD_JEEEPT_DpOT0_EUlPSD_E_E10_M_deleterEv
FN:148,_ZNSt15__uniq_ptr_implINSt7__cxx1112basic_stringIcSt11char_traitsIcESaIcEEEZN8nlohmann10basic_jsonISt3mapSt6vectorS5_blmdSaNS6_14adl_serializerEE6createIS5_JRA1_KcEEEPT_DpOT0_EUlPS5_E_E10_M_deleterEv
FN:148,_ZNSt15__uniq_ptr_implISt3mapINSt7__cxx1112basic_stringIcSt11char_traitsIcESaIcEEEN8nlohmann10basic_jsonIS0_St6vectorS6_blmdSaNS7_14adl_serializerEEESt4lessIvESaISt4pairIKS6_SB_EEEZNSB_6createISI_JEEEPT_DpOT0_EUlPSI_E_E10_M_deleterEv
FN:148,_ZNSt15__uniq_ptr_implISt6vectorIN8nlohmann10basic_jsonISt3mapS0_NSt7__cxx1112basic_stringIcSt11char_traitsIcESaIcEEEblmdSaNS1_14adl_serializerEEESaISB_EEZNSB_6createISD_JRKSD_EEEPT_DpOT0_EUlPSD_E_E10_M_deleterEv
FN:212,_ZNSt10unique_ptrISt6vectorIN8nlohmann10basic_jsonISt3mapS0_NSt7__cxx1112basic_stringIcSt11char_traitsIcESaIcEEEblmdSaNS1_14adl_serializerEEESaISB_EEZNSB_6createISD_JRKSD_EEEPT_DpOT0_EUlPSD_E_EC2ESM_RKSN_
FN:212,_ZNSt10unique_ptrISt3mapINSt7__cxx1112basic_stringIcSt11char_traitsIcESaIcEEEN8nlohmann10basic_jsonIS0_St6vectorS6_blmdSaNS7_14adl_serializerEEESt4lessIvESaISt4pairIKS6_SB_EEEZNSB_6createISI_JRKSI_EEEPT_DpOT0_EUlPSI_E_EC2ESR_RKSS_
FN:212,_ZNSt10unique_ptrINSt7__cxx1112basic_stringIcSt11char_traitsIcESaIcEEEZN8nlohmann10basic_jsonISt3mapSt6vectorS5_blmdSaNS6_14adl_serializerEE6createIS5_JRKS5_EEEPT_DpOT0_EUlPS5_E_EC2ESK_RKSL_
FN:212,_ZNSt10unique_ptrISt6vectorIN8nlohmann10basic_jsonISt3mapS0_NSt7__cxx1112basic_stringIcSt11char_traitsIcESaIcEEEblmdSaNS1_14adl_serializerEEESaISB_EEZNSB_6createISD_JEEEPT_DpOT0_EUlPSD_E_EC2ESK_RKSL_
FN:212,_ZNSt10unique_ptrISt3mapINSt7__cxx1112basic_stringIcSt11char_traitsIcESaIcEEEN8nlohmann10basic_jsonIS0_St6vectorS6_blmdSaNS7_14adl_serializerEEESt4lessIvESaISt4pairIKS6_SB_EEEZNSB_6createISI_JEEEPT_DpOT0_EUlPSI_E_EC2ESP_RKSQ_
FN:212,_ZNSt10unique_ptrINSt7__cxx1112basic_stringIcSt11char_traitsIcESaIcEEEZN8nlohmann10basic_jsonISt3mapSt6vectorS5_blmdSaNS6_14adl_serializerEE6createIS5_JRA1_KcEEEPT_DpOT0_EUlPS5_E_EC2ESL_RKSM_
FN:264,_ZNSt10unique_ptrISt6vectorIN8nlohmann10basic_jsonISt3mapS0_NSt7__cxx1112basic_stringIcSt11char_traitsIcESaIcEEEblmdSaNS1_14adl_serializerEEESaISB_EEZNSB_6createISD_JEEEPT_DpOT0_EUlPSD_E_ED2Ev
FN:264,_ZNSt10unique_ptrISt3mapINSt7__cxx1112basic_stringIcSt11char_traitsIcESaIcEEEN8nlohmann10basic_jsonIS0_St6vectorS6_blmdSaNS7_14adl_serializerEEESt4lessIvESaISt4pairIKS6_SB_EEEZNSB_6createISI_JRKSI_EEEPT_DpOT0_EUlPSI_E_ED2Ev
FN:264,_ZNSt10unique_ptrINSt7__cxx1112basic_stringIcSt11char_traitsIcESaIcEEEZN8nlohmann10basic_jsonISt3mapSt6vectorS5_blmdSaNS6_14adl_serializerEE6createIS5_JRKS5_EEEPT_DpOT0_EUlPS5_E_ED2Ev
FN:264,_ZNSt10unique_ptrINSt7__cxx1112basic_stringIcSt11char_traitsIcESaIcEEEZN8nlohmann10basic_jsonISt3mapSt6vectorS5_blmdSaNS6_14adl_serializerEE6createIS5_JRA1_KcEEEPT_DpOT0_EUlPS5_E_ED2Ev
FN:264,_ZNSt10unique_ptrISt3mapINSt7__cxx1112basic_stringIcSt11char_traitsIcESaIcEEEN8nlohmann10basic_jsonIS0_St6vectorS6_blmdSaNS7_14adl_serializerEEESt4lessIvESaISt4pairIKS6_SB_EEEZNSB_6createISI_JEEEPT_DpOT0_EUlPSI_E_ED2Ev
FN:264,_ZNSt10unique_ptrISt6vectorIN8nlohmann10basic_jsonISt3mapS0_NSt7__cxx1112basic_stringIcSt11char_traitsIcESaIcEEEblmdSaNS1_14adl_serializerEEESaISB_EEZNSB_6createISD_JRKSD_EEEPT_DpOT0_EUlPSD_E_ED2Ev
FN:336,_ZNKSt10unique_ptrISt3mapINSt7__cxx1112basic_stringIcSt11char_traitsIcESaIcEEEN8nlohmann10basic_jsonIS0_St6vectorS6_blmdSaNS7_14adl_serializerEEESt4lessIvESaISt4pairIKS6_SB_EEEZNSB_6createISI_JRKSI_EEEPT_DpOT0_EUlPSI_E_E3getEv
FN:336,_ZNKSt10unique_ptrISt3mapINSt7__cxx1112basic_stringIcSt11char_traitsIcESaIcEEEN8nlohmann10basic_jsonIS0_St6vectorS6_blmdSaNS7_14adl_serializerEEESt4lessIvESaISt4pairIKS6_SB_EEEZNSB_6createISI_JEEEPT_DpOT0_EUlPSI_E_E3getEv
FN:336,_ZNKSt10unique_ptrISt6vectorIN8nlohmann10basic_jsonISt3mapS0_NSt7__cxx1112basic_stringIcSt11char_traitsIcESaIcEEEblmdSaNS1_14adl_serializerEEESaISB_EEZNSB_6createISD_JRKSD_EEEPT_DpOT0_EUlPSD_E_E3getEv
FN:336,_ZNKSt10unique_ptrINSt7__cxx1112basic_stringIcSt11char_traitsIcESaIcEEEZN8nlohmann10basic_jsonISt3mapSt6vectorS5_blmdSaNS6_14adl_serializerEE6createIS5_JRKS5_EEEPT_DpOT0_EUlPS5_E_E3getEv
FN:336,_ZNKSt10unique_ptrINSt7__cxx1112basic_stringIcSt11char_traitsIcESaIcEEEZN8nlohmann10basic_jsonISt3mapSt6vectorS5_blmdSaNS6_14adl_serializerEE6createIS5_JRA1_KcEEEPT_DpOT0_EUlPS5_E_E3getEv
FN:336,_ZNKSt10unique_ptrISt6vectorIN8nlohmann10basic_jsonISt3mapS0_NSt7__cxx1112basic_stringIcSt11char_traitsIcESaIcEEEblmdSaNS1_14adl_serializerEEESaISB_EEZNSB_6createISD_JEEEPT_DpOT0_EUlPSD_E_E3getEv
FN:341,_ZNSt10unique_ptrINSt7__cxx1112basic_stringIcSt11char_traitsIcESaIcEEEZN8nlohmann10basic_jsonISt3mapSt6vectorS5_blmdSaNS6_14adl_serializerEE6createIS5_JRA1_KcEEEPT_DpOT0_EUlPS5_E_E11get_deleterEv
FN:341,_ZNSt10unique_ptrISt6vectorIN8nlohmann10basic_jsonISt3mapS0_NSt7__cxx1112basic_stringIcSt11char_traitsIcESaIcEEEblmdSaNS1_14adl_serializerEEESaISB_EEZNSB_6createISD_JEEEPT_DpOT0_EUlPSD_E_E11get_deleterEv
FN:341,_ZNSt10unique_ptrISt3mapINSt7__cxx1112basic_stringIcSt11char_traitsIcESaIcEEEN8nlohmann10basic_jsonIS0_St6vectorS6_blmdSaNS7_14adl_serializerEEESt4lessIvESaISt4pairIKS6_SB_EEEZNSB_6createISI_JRKSI_EEEPT_DpOT0_EUlPSI_E_E11get_deleterEv
FN:341,_ZNSt10unique_ptrINSt7__cxx1112basic_stringIcSt11char_traitsIcESaIcEEEZN8nlohmann10basic_jsonISt3mapSt6vectorS5_blmdSaNS6_14adl_serializerEE6createIS5_JRKS5_EEEPT_DpOT0_EUlPS5_E_E11get_deleterEv
FN:341,_ZNSt10unique_ptrISt3mapINSt7__cxx1112basic_stringIcSt11char_traitsIcESaIcEEEN8nlohmann10basic_jsonIS0_St6vectorS6_blmdSaNS7_14adl_serializerEEESt4lessIvESaISt4pairIKS6_SB_EEEZNSB_6createISI_JEEEPT_DpOT0_EUlPSI_E_E11get_deleterEv
FN:341,_ZNSt10unique_ptrISt6vectorIN8nlohmann10basic_jsonISt3mapS0_NSt7__cxx1112basic_stringIcSt11char_traitsIcESaIcEEEblmdSaNS1_14adl_serializerEEESaISB_EEZNSB_6createISD_JRKSD_EEEPT_DpOT0_EUlPSD_E_E11get_deleterEv
FN:350,_ZNKSt10unique_ptrISt6vectorIN8nlohmann10basic_jsonISt3mapS0_NSt7__cxx1112basic_stringIcSt11char_traitsIcESaIcEEEblmdSaNS1_14adl_serializerEEESaISB_EEZNSB_6createISD_JEEEPT_DpOT0_EUlPSD_E_EcvbEv
FN:350,_ZNKSt10unique_ptrISt6vectorIN8nlohmann10basic_jsonISt3mapS0_NSt7__cxx1112basic_stringIcSt11char_traitsIcESaIcEEEblmdSaNS1_14adl_serializerEEESaISB_EEZNSB_6createISD_JRKSD_EEEPT_DpOT0_EUlPSD_E_EcvbEv
FN:350,_ZNKSt10unique_ptrISt3mapINSt7__cxx1112basic_stringIcSt11char_traitsIcESaIcEEEN8nlohmann10basic_jsonIS0_St6vectorS6_blmdSaNS7_14adl_serializerEEESt4lessIvESaISt4pairIKS6_SB_EEEZNSB_6createISI_JEEEPT_DpOT0_EUlPSI_E_EcvbEv
FN:350,_ZNKSt10unique_ptrINSt7__cxx1112basic_stringIcSt11char_traitsIcESaIcEEEZN8nlohmann10basic_jsonISt3mapSt6vectorS5_blmdSaNS6_14adl_serializerEE6createIS5_JRKS5_EEEPT_DpOT0_EUlPS5_E_EcvbEv
FN:350,_ZNKSt10unique_ptrINSt7__cxx1112basic_stringIcSt11char_traitsIcESaIcEEEZN8nlohmann10basic_jsonISt3mapSt6vectorS5_blmdSaNS6_14adl_serializerEE6createIS5_JRA1_KcEEEPT_DpOT0_EUlPS5_E_EcvbEv
FN:350,_ZNKSt10unique_ptrISt3mapINSt7__cxx1112basic_stringIcSt11char_traitsIcESaIcEEEN8nlohmann10basic_jsonIS0_St6vectorS6_blmdSaNS7_14adl_serializerEEESt4lessIvESaISt4pairIKS6_SB_EEEZNSB_6createISI_JRKSI_EEEPT_DpOT0_EUlPSI_E_EcvbEv
FN:357,_ZNSt10unique_ptrISt6vectorIN8nlohmann10basic_jsonISt3mapS0_NSt7__cxx1112basic_stringIcSt11char_traitsIcESaIcEEEblmdSaNS1_14adl_serializerEEESaISB_EEZNSB_6createISD_JEEEPT_DpOT0_EUlPSD_E_E7releaseEv
FN:357,_ZNSt10unique_ptrINSt7__cxx1112basic_stringIcSt11char_traitsIcESaIcEEEZN8nlohmann10basic_jsonISt3mapSt6vectorS5_blmdSaNS6_14adl_serializerEE6createIS5_JRKS5_EEEPT_DpOT0_EUlPS5_E_E7releaseEv
FN:357,_ZNSt10unique_ptrISt3mapINSt7__cxx1112basic_stringIcSt11char_traitsIcESaIcEEEN8nlohmann10basic_jsonIS0_St6vectorS6_blmdSaNS7_14adl_serializerEEESt4lessIvESaISt4pairIKS6_SB_EEEZNSB_6createISI_JEEEPT_DpOT0_EUlPSI_E_E7releaseEv
FN:357,_ZNSt10unique_ptrISt6vectorIN8nlohmann10basic_jsonISt3mapS0_NSt7__cxx1112basic_stringIcSt11char_traitsIcESaIcEEEblmdSaNS1_14adl_serializerEEESaISB_EEZNSB_6createISD_JRKSD_EEEPT_DpOT0_EUlPSD_E_E7releaseEv
FN:357,_ZNSt10unique_ptrISt3mapINSt7__cxx1112basic_stringIcSt11char_traitsIcESaIcEEEN8nlohmann10basic_jsonIS0_St6vectorS6_blmdSaNS7_14adl_serializerEEESt4lessIvESaISt4pairIKS6_SB_EEEZNSB_6createISI_JRKSI_EEEPT_DpOT0_EUlPSI_E_E7releaseEv
FN:357,_ZNSt10unique_ptrINSt7__cxx1112basic_stringIcSt11char_traitsIcESaIcEEEZN8nlohmann10basic_jsonISt3mapSt6vectorS5_blmdSaNS6_14adl_serializerEE6createIS5_JRA1_KcEEEPT_DpOT0_EUlPS5_E_E7releaseEv
FN:706,_ZStneISt3mapINSt7__cxx1112basic_stringIcSt11char_traitsIcESaIcEEEN8nlohmann10basic_jsonIS0_St6vectorS6_blmdSaNS7_14adl_serializerEEESt4lessIvESaISt4pairIKS6_SB_EEEZNSB_6createISI_JEEEPT_DpOT0_EUlPSI_E_EbRKSt10unique_ptrISK_T0_EDn
FN:706,_ZStneINSt7__cxx1112basic_stringIcSt11char_traitsIcESaIcEEEZN8nlohmann10basic_jsonISt3mapSt6vectorS5_blmdSaNS6_14adl_serializerEE6createIS5_JRKS5_EEEPT_DpOT0_EUlPS5_E_EbRKSt10unique_ptrISF_T0_EDn
FN:706,_ZStneISt6vectorIN8nlohmann10basic_jsonISt3mapS0_NSt7__cxx1112basic_stringIcSt11char_traitsIcESaIcEEEblmdSaNS1_14adl_serializerEEESaISB_EEZNSB_6createISD_JRKSD_EEEPT_DpOT0_EUlPSD_E_EbRKSt10unique_ptrISH_T0_EDn
FN:706,_ZStneISt3mapINSt7__cxx1112basic_stringIcSt11char_traitsIcESaIcEEEN8nlohmann10basic_jsonIS0_St6vectorS6_blmdSaNS7_14adl_serializerEEESt4lessIvESaISt4pairIKS6_SB_EEEZNSB_6createISI_JRKSI_EEEPT_DpOT0_EUlPSI_E_EbRKSt10unique_ptrISM_T0_EDn
FN:706,_ZStneISt6vectorIN8nlohmann10basic_jsonISt3mapS0_NSt7__cxx1112basic_stringIcSt11char_traitsIcESaIcEEEblmdSaNS1_14adl_serializerEEESaISB_EEZNSB_6createISD_JEEEPT_DpOT0_EUlPSD_E_EbRKSt10unique_ptrISF_T0_EDn
FN:706,_ZStneINSt7__cxx1112basic_stringIcSt11char_traitsIcESaIcEEEZN8nlohmann10basic_jsonISt3mapSt6vectorS5_blmdSaNS6_14adl_serializerEE6createIS5_JRA1_KcEEEPT_DpOT0_EUlPS5_E_EbRKSt10unique_ptrISG_T0_EDn
FNDA:0,_ZNSt15__uniq_ptr_implINSt7__cxx1112basic_stringIcSt11char_traitsIcESaIcEEEZN8nlohmann10basic_jsonISt3mapSt6vectorS5_blmdSaNS6_14adl_serializerEE6createIS5_JRA1_KcEEEPT_DpOT0_EUlPS5_E_EC2IRKSM_EESL_OSG_
FNDA:1,_ZNSt15__uniq_ptr_implISt6vectorIN8nlohmann10basic_jsonISt3mapS0_NSt7__cxx1112basic_stringIcSt11char_traitsIcESaIcEEEblmdSaNS1_14adl_serializerEEESaISB_EEZNSB_6createISD_JEEEPT_DpOT0_EUlPSD_E_EC2IRKSL_EESK_OSF_
FNDA:664,_ZNSt15__uniq_ptr_implISt3mapINSt7__cxx1112basic_stringIcSt11char_traitsIcESaIcEEEN8nlohmann10basic_jsonIS0_St6vectorS6_blmdSaNS7_14adl_serializerEEESt4lessIvESaISt4pairIKS6_SB_EEEZNSB_6createISI_JEEEPT_DpOT0_EUlPSI_E_EC2IRKSQ_EESP_OSK_
FNDA:5312,_ZNSt15__uniq_ptr_implINSt7__cxx1112basic_stringIcSt11char_traitsIcESaIcEEEZN8nlohmann10basic_jsonISt3mapSt6vectorS5_blmdSaNS6_14adl_serializerEE6createIS5_JRKS5_EEEPT_DpOT0_EUlPS5_E_EC2IRKSL_EESK_OSF_
FNDA:0,_ZNSt15__uniq_ptr_implISt6vectorIN8nlohmann10basic_jsonISt3mapS0_NSt7__cxx1112basic_stringIcSt11char_traitsIcESaIcEEEblmdSaNS1_14adl_serializerEEESaISB_EEZNSB_6createISD_JRKSD_EEEPT_DpOT0_EUlPSD_E_EC2IRKSN_EESM_OSH_
FNDA:664,_ZNSt15__uniq_ptr_implISt3mapINSt7__cxx1112basic_stringIcSt11char_traitsIcESaIcEEEN8nlohmann10basic_jsonIS0_St6vectorS6_blmdSaNS7_14adl_serializerEEESt4lessIvESaISt4pairIKS6_SB_EEEZNSB_6createISI_JRKSI_EEEPT_DpOT0_EUlPSI_E_EC2IRKSS_EESR_OSM_
FNDA:0,_ZNSt15__uniq_ptr_implINSt7__cxx1112basic_stringIcSt11char_traitsIcESaIcEEEZN8nlohmann10basic_jsonISt3mapSt6vectorS5_blmdSaNS6_14adl_serializerEE6createIS5_JRA1_KcEEEPT_DpOT0_EUlPS5_E_E6_M_ptrEv
FNDA:2,_ZNSt15__uniq_ptr_implISt6vectorIN8nlohmann10basic_jsonISt3mapS0_NSt7__cxx1112basic_stringIcSt11char_traitsIcESaIcEEEblmdSaNS1_14adl_serializerEEESaISB_EEZNSB_6createISD_JEEEPT_DpOT0_EUlPSD_E_E6_M_ptrEv
FNDA:1328,_ZNSt15__uniq_ptr_implISt3mapINSt7__cxx1112basic_stringIcSt11char_traitsIcESaIcEEEN8nlohmann10basic_jsonIS0_St6vectorS6_blmdSaNS7_14adl_serializerEEESt4lessIvESaISt4pairIKS6_SB_EEEZNSB_6createISI_JEEEPT_DpOT0_EUlPSI_E_E6_M_ptrEv
FNDA:10624,_ZNSt15__uniq_ptr_implINSt7__cxx1112basic_stringIcSt11char_traitsIcESaIcEEEZN8nlohmann10basic_jsonISt3mapSt6vectorS5_blmdSaNS6_14adl_serializerEE6createIS5_JRKS5_EEEPT_DpOT0_EUlPS5_E_E6_M_ptrEv
FNDA:0,_ZNSt15__uniq_ptr_implISt6vectorIN8nlohmann10basic_jsonISt3mapS0_NSt7__cxx1112basic_stringIcSt11char_traitsIcESaIcEEEblmdSaNS1_14adl_serializerEEESaISB_EEZNSB_6createISD_JRKSD_EEEPT_DpOT0_EUlPSD_E_E6_M_ptrEv
FNDA:1328,_ZNSt15__uniq_ptr_implISt3mapINSt7__cxx1112basic_stringIcSt11char_traitsIcESaIcEEEN8nlohmann10basic_jsonIS0_St6vectorS6_blmdSaNS7_14adl_serializerEEESt4lessIvESaISt4pairIKS6_SB_EEEZNSB_6createISI_JRKSI_EEEPT_DpOT0_EUlPSI_E_E6_M_ptrEv
FNDA:0,_ZNKSt15__uniq_ptr_implINSt7__cxx1112basic_stringIcSt11char_traitsIcESaIcEEEZN8nlohmann10basic_jsonISt3mapSt6vectorS5_blmdSaNS6_14adl_serializerEE6createIS5_JRA1_KcEEEPT_DpOT0_EUlPS5_E_E6_M_ptrEv
FNDA:3,_ZNKSt15__uniq_ptr_implISt6vectorIN8nlohmann10basic_jsonISt3mapS0_NSt7__cxx1112basic_stringIcSt11char_traitsIcESaIcEEEblmdSaNS1_14adl_serializerEEESaISB_EEZNSB_6createISD_JEEEPT_DpOT0_EUlPSD_E_E6_M_ptrEv
FNDA:1992,_ZNKSt15__uniq_ptr_implISt3mapINSt7__cxx1112basic_stringIcSt11char_traitsIcESaIcEEEN8nlohmann10basic_jsonIS0_St6vectorS6_blmdSaNS7_14adl_serializerEEESt4lessIvESaISt4pairIKS6_SB_EEEZNSB_6createISI_JEEEPT_DpOT0_EUlPSI_E_E6_M_ptrEv
FNDA:15936,_ZNKSt15__uniq_ptr_implINSt7__cxx1112basic_stringIcSt11char_traitsIcESaIcEEEZN8nlohmann10basic_jsonISt3mapSt6vectorS5_blmdSaNS6_14adl_serializerEE6createIS5_JRKS5_EEEPT_DpOT0_EUlPS5_E_E6_M_ptrEv
FNDA:0,_ZNKSt15__uniq_ptr_implISt6vectorIN8nlohmann10basic_jsonISt3mapS0_NSt7__cxx1112basic_stringIcSt11char_traitsIcESaIcEEEblmdSaNS1_14adl_serializerEEESaISB_EEZNSB_6createISD_JRKSD_EEEPT_DpOT0_EUlPSD_E_E6_M_ptrEv
FNDA:1992,_ZNKSt15__uniq_ptr_implISt3mapINSt7__cxx1112basic_stringIcSt11char_traitsIcESaIcEEEN8nlohmann10basic_jsonIS0_St6vectorS6_blmdSaNS7_14adl_serializerEEESt4lessIvESaISt4pairIKS6_SB_EEEZNSB_6createISI_JRKSI_EEEPT_DpOT0_EUlPSI_E_E6_M_ptrEv
FNDA:0,_ZNSt15__uniq_ptr_implINSt7__cxx1112basic_stringIcSt11char_traitsIcESaIcEEEZN8nlohmann10basic_jsonISt3mapSt6vectorS5_blmdSaNS6_14adl_serializerEE6createIS5_JRA1_KcEEEPT_DpOT0_EUlPS5_E_E10_M_deleterEv
FNDA:0,_ZNSt15__uniq_ptr_implISt6vectorIN8nlohmann10basic_jsonISt3mapS0_NSt7__cxx1112basic_stringIcSt11char_traitsIcESaIcEEEblmdSaNS1_14adl_serializerEEESaISB_EEZNSB_6createISD_JEEEPT_DpOT0_EUlPSD_E_E10_M_deleterEv
FNDA:0,_ZNSt15__uniq_ptr_implISt3mapINSt7__cxx1112basic_stringIcSt11char_traitsIcESaIcEEEN8nlohmann10basic_jsonIS0_St6vectorS6_blmdSaNS7_14adl_serializerEEESt4lessIvESaISt4pairIKS6_SB_EEEZNSB_6createISI_JEEEPT_DpOT0_EUlPSI_E_E10_M_deleterEv
FNDA:0,_ZNSt15__uniq_ptr_implINSt7__cxx1112basic_stringIcSt11char_traitsIcESaIcEEEZN8nlohmann10basic_jsonISt3mapSt6vectorS5_blmdSaNS6_14adl_serializerEE6createIS5_JRKS5_EEEPT_DpOT0_EUlPS5_E_E10_M_deleterEv
FNDA:0,_ZNSt15__uniq_ptr_implISt6vectorIN8nlohmann10basic_jsonISt3mapS0_NSt7__cxx1112basic_stringIcSt11char_traitsIcESaIcEEEblmdSaNS1_14adl_serializerEEESaISB_EEZNSB_6createISD_JRKSD_EEEPT_DpOT0_EUlPSD_E_E10_M_deleterEv
FNDA:0,_ZNSt15__uniq_ptr_implISt3mapINSt7__cxx1112basic_stringIcSt11char_traitsIcESaIcEEEN8nlohmann10basic_jsonIS0_St6vectorS6_blmdSaNS7_14adl_serializerEEESt4lessIvESaISt4pairIKS6_SB_EEEZNSB_6createISI_JRKSI_EEEPT_DpOT0_EUlPSI_E_E10_M_deleterEv
FNDA:0,_ZNSt10unique_ptrINSt7__cxx1112basic_stringIcSt11char_traitsIcESaIcEEEZN8nlohmann10basic_jsonISt3mapSt6vectorS5_blmdSaNS6_14adl_serializerEE6createIS5_JRA1_KcEEEPT_DpOT0_EUlPS5_E_EC2ESL_RKSM_
FNDA:1,_ZNSt10unique_ptrISt6vectorIN8nlohmann10basic_jsonISt3mapS0_NSt7__cxx1112basic_stringIcSt11char_traitsIcESaIcEEEblmdSaNS1_14adl_serializerEEESaISB_EEZNSB_6createISD_JEEEPT_DpOT0_EUlPSD_E_EC2ESK_RKSL_
FNDA:664,_ZNSt10unique_ptrISt3mapINSt7__cxx1112basic_stringIcSt11char_traitsIcESaIcEEEN8nlohmann10basic_jsonIS0_St6vectorS6_blmdSaNS7_14adl_serializerEEESt4lessIvESaISt4pairIKS6_SB_EEEZNSB_6createISI_JEEEPT_DpOT0_EUlPSI_E_EC2ESP_RKSQ_
FNDA:5312,_ZNSt10unique_ptrINSt7__cxx1112basic_stringIcSt11char_traitsIcESaIcEEEZN8nlohmann10basic_jsonISt3mapSt6vectorS5_blmdSaNS6_14adl_serializerEE6createIS5_JRKS5_EEEPT_DpOT0_EUlPS5_E_EC2ESK_RKSL_
FNDA:0,_ZNSt10unique_ptrISt6vectorIN8nlohmann10basic_jsonISt3mapS0_NSt7__cxx1112basic_stringIcSt11char_traitsIcESaIcEEEblmdSaNS1_14adl_serializerEEESaISB_EEZNSB_6createISD_JRKSD_EEEPT_DpOT0_EUlPSD_E_EC2ESM_RKSN_
FNDA:664,_ZNSt10unique_ptrISt3mapINSt7__cxx1112basic_stringIcSt11char_traitsIcESaIcEEEN8nlohmann10basic_jsonIS0_St6vectorS6_blmdSaNS7_14adl_serializerEEESt4lessIvESaISt4pairIKS6_SB_EEEZNSB_6createISI_JRKSI_EEEPT_DpOT0_EUlPSI_E_EC2ESR_RKSS_
FNDA:0,_ZNSt10unique_ptrINSt7__cxx1112basic_stringIcSt11char_traitsIcESaIcEEEZN8nlohmann10basic_jsonISt3mapSt6vectorS5_blmdSaNS6_14adl_serializerEE6createIS5_JRA1_KcEEEPT_DpOT0_EUlPS5_E_ED2Ev
FNDA:1,_ZNSt10unique_ptrISt6vectorIN8nlohmann10basic_jsonISt3mapS0_NSt7__cxx1112basic_stringIcSt11char_traitsIcESaIcEEEblmdSaNS1_14adl_serializerEEESaISB_EEZNSB_6createISD_JEEEPT_DpOT0_EUlPSD_E_ED2Ev
FNDA:664,_ZNSt10unique_ptrISt3mapINSt7__cxx1112basic_stringIcSt11char_traitsIcESaIcEEEN8nlohmann10basic_jsonIS0_St6vectorS6_blmdSaNS7_14adl_serializerEEESt4lessIvESaISt4pairIKS6_SB_EEEZNSB_6createISI_JEEEPT_DpOT0_EUlPSI_E_ED2Ev
FNDA:5312,_ZNSt10unique_ptrINSt7__cxx1112basic_stringIcSt11char_traitsIcESaIcEEEZN8nlohmann10basic_jsonISt3mapSt6vectorS5_blmdSaNS6_14adl_serializerEE6createIS5_JRKS5_EEEPT_DpOT0_EUlPS5_E_ED2Ev
FNDA:0,_ZNSt10unique_ptrISt6vectorIN8nlohmann10basic_jsonISt3mapS0_NSt7__cxx1112basic_stringIcSt11char_traitsIcESaIcEEEblmdSaNS1_14adl_serializerEEESaISB_EEZNSB_6createISD_JRKSD_EEEPT_DpOT0_EUlPSD_E_ED2Ev
FNDA:664,_ZNSt10unique_ptrISt3mapINSt7__cxx1112basic_stringIcSt11char_traitsIcESaIcEEEN8nlohmann10basic_jsonIS0_St6vectorS6_blmdSaNS7_14adl_serializerEEESt4lessIvESaISt4pairIKS6_SB_EEEZNSB_6createISI_JRKSI_EEEPT_DpOT0_EUlPSI_E_ED2Ev
FNDA:0,_ZNKSt10unique_ptrINSt7__cxx1112basic_stringIcSt11char_traitsIcESaIcEEEZN8nlohmann10basic_jsonISt3mapSt6vectorS5_blmdSaNS6_14adl_serializerEE6createIS5_JRA1_KcEEEPT_DpOT0_EUlPS5_E_E3getEv
FNDA:3,_ZNKSt10unique_ptrISt6vectorIN8nlohmann10basic_jsonISt3mapS0_NSt7__cxx1112basic_stringIcSt11char_traitsIcESaIcEEEblmdSaNS1_14adl_serializerEEESaISB_EEZNSB_6createISD_JEEEPT_DpOT0_EUlPSD_E_E3getEv
FNDA:1992,_ZNKSt10unique_ptrISt3mapINSt7__cxx1112basic_stringIcSt11char_traitsIcESaIcEEEN8nlohmann10basic_jsonIS0_St6vectorS6_blmdSaNS7_14adl_serializerEEESt4lessIvESaISt4pairIKS6_SB_EEEZNSB_6createISI_JEEEPT_DpOT0_EUlPSI_E_E3getEv
FNDA:15936,_ZNKSt10unique_ptrINSt7__cxx1112basic_stringIcSt11char_traitsIcESaIcEEEZN8nlohmann10basic_jsonISt3mapSt6vectorS5_blmdSaNS6_14adl_serializerEE6createIS5_JRKS5_EEEPT_DpOT0_EUlPS5_E_E3getEv
FNDA:0,_ZNKSt10unique_ptrISt6vectorIN8nlohmann10basic_jsonISt3mapS0_NSt7__cxx1112basic_stringIcSt11char_traitsIcESaIcEEEblmdSaNS1_14adl_serializerEEESaISB_EEZNSB_6createISD_JRKSD_EEEPT_DpOT0_EUlPSD_E_E3getEv
FNDA:1992,_ZNKSt10unique_ptrISt3mapINSt7__cxx1112basic_stringIcSt11char_traitsIcESaIcEEEN8nlohmann10basic_jsonIS0_St6vectorS6_blmdSaNS7_14adl_serializerEEESt4lessIvESaISt4pairIKS6_SB_EEEZNSB_6createISI_JRKSI_EEEPT_DpOT0_EUlPSI_E_E3getEv
FNDA:0,_ZNSt10unique_ptrINSt7__cxx1112basic_stringIcSt11char_traitsIcESaIcEEEZN8nlohmann10basic_jsonISt3mapSt6vectorS5_blmdSaNS6_14adl_serializerEE6createIS5_JRA1_KcEEEPT_DpOT0_EUlPS5_E_E11get_deleterEv
FNDA:0,_ZNSt10unique_ptrISt6vectorIN8nlohmann10basic_jsonISt3mapS0_NSt7__cxx1112basic_stringIcSt11char_traitsIcESaIcEEEblmdSaNS1_14adl_serializerEEESaISB_EEZNSB_6createISD_JEEEPT_DpOT0_EUlPSD_E_E11get_deleterEv
FNDA:0,_ZNSt10unique_ptrISt3mapINSt7__cxx1112basic_stringIcSt11char_traitsIcESaIcEEEN8nlohmann10basic_jsonIS0_St6vectorS6_blmdSaNS7_14adl_serializerEEESt4lessIvESaISt4pairIKS6_SB_EEEZNSB_6createISI_JEEEPT_DpOT0_EUlPSI_E_E11get_deleterEv
FNDA:0,_ZNSt10unique_ptrINSt7__cxx1112basic_stringIcSt11char_traitsIcESaIcEEEZN8nlohmann10basic_jsonISt3mapSt6vectorS5_blmdSaNS6_14adl_serializerEE6createIS5_JRKS5_EEEPT_DpOT0_EUlPS5_E_E11get_deleterEv
FNDA:0,_ZNSt10unique_ptrISt6vectorIN8nlohmann10basic_jsonISt3mapS0_NSt7__cxx1112basic_stringIcSt11char_traitsIcESaIcEEEblmdSaNS1_14adl_serializerEEESaISB_EEZNSB_6createISD_JRKSD_EEEPT_DpOT0_EUlPSD_E_E11get_deleterEv
FNDA:0,_ZNSt10unique_ptrISt3mapINSt7__cxx1112basic_stringIcSt11char_traitsIcESaIcEEEN8nlohmann10basic_jsonIS0_St6vectorS6_blmdSaNS7_14adl_serializerEEESt4lessIvESaISt4pairIKS6_SB_EEEZNSB_6createISI_JRKSI_EEEPT_DpOT0_EUlPSI_E_E11get_deleterEv
FNDA:0,_ZNKSt10unique_ptrINSt7__cxx1112basic_stringIcSt11char_traitsIcESaIcEEEZN8nlohmann10basic_jsonISt3mapSt6vectorS5_blmdSaNS6_14adl_serializerEE6createIS5_JRA1_KcEEEPT_DpOT0_EUlPS5_E_EcvbEv
FNDA:1,_ZNKSt10unique_ptrISt6vectorIN8nlohmann10basic_jsonISt3mapS0_NSt7__cxx1112basic_stringIcSt11char_traitsIcESaIcEEEblmdSaNS1_14adl_serializerEEESaISB_EEZNSB_6createISD_JEEEPT_DpOT0_EUlPSD_E_EcvbEv
FNDA:664,_ZNKSt10unique_ptrISt3mapINSt7__cxx1112basic_stringIcSt11char_traitsIcESaIcEEEN8nlohmann10basic_jsonIS0_St6vectorS6_blmdSaNS7_14adl_serializerEEESt4lessIvESaISt4pairIKS6_SB_EEEZNSB_6createISI_JEEEPT_DpOT0_EUlPSI_E_EcvbEv
FNDA:5312,_ZNKSt10unique_ptrINSt7__cxx1112basic_stringIcSt11char_traitsIcESaIcEEEZN8nlohmann10basic_jsonISt3mapSt6vectorS5_blmdSaNS6_14adl_serializerEE6createIS5_JRKS5_EEEPT_DpOT0_EUlPS5_E_EcvbEv
FNDA:0,_ZNKSt10unique_ptrISt6vectorIN8nlohmann10basic_jsonISt3mapS0_NSt7__cxx1112basic_stringIcSt11char_traitsIcESaIcEEEblmdSaNS1_14adl_serializerEEESaISB_EEZNSB_6createISD_JRKSD_EEEPT_DpOT0_EUlPSD_E_EcvbEv
FNDA:664,_ZNKSt10unique_ptrISt3mapINSt7__cxx1112basic_stringIcSt11char_traitsIcESaIcEEEN8nlohmann10basic_jsonIS0_St6vectorS6_blmdSaNS7_14adl_serializerEEESt4lessIvESaISt4pairIKS6_SB_EEEZNSB_6createISI_JRKSI_EEEPT_DpOT0_EUlPSI_E_EcvbEv
FNDA:0,_ZNSt10unique_ptrINSt7__cxx1112basic_stringIcSt11char_traitsIcESaIcEEEZN8nlohmann10basic_jsonISt3mapSt6vectorS5_blmdSaNS6_14adl_serializerEE6createIS5_JRA1_KcEEEPT_DpOT0_EUlPS5_E_E7releaseEv
FNDA:1,_ZNSt10unique_ptrISt6vectorIN8nlohmann10basic_jsonISt3mapS0_NSt7__cxx1112basic_stringIcSt11char_traitsIcESaIcEEEblmdSaNS1_14adl_serializerEEESaISB_EEZNSB_6createISD_JEEEPT_DpOT0_EUlPSD_E_E7releaseEv
FNDA:664,_ZNSt10unique_ptrISt3mapINSt7__cxx1112basic_stringIcSt11char_traitsIcESaIcEEEN8nlohmann10basic_jsonIS0_St6vectorS6_blmdSaNS7_14adl_serializerEEESt4lessIvESaISt4pairIKS6_SB_EEEZNSB_6createISI_JEEEPT_DpOT0_EUlPSI_E_E7releaseEv
FNDA:5312,_ZNSt10unique_ptrINSt7__cxx1112basic_stringIcSt11char_traitsIcESaIcEEEZN8nlohmann10basic_jsonISt3mapSt6vectorS5_blmdSaNS6_14adl_serializerEE6createIS5_JRKS5_EEEPT_DpOT0_EUlPS5_E_E7releaseEv
FNDA:0,_ZNSt10unique_ptrISt6vectorIN8nlohmann10basic_jsonISt3mapS0_NSt7__cxx1112basic_stringIcSt11char_traitsIcESaIcEEEblmdSaNS1_14adl_serializerEEESaISB_EEZNSB_6createISD_JRKSD_EEEPT_DpOT0_EUlPSD_E_E7releaseEv
FNDA:664,_ZNSt10unique_ptrISt3mapINSt7__cxx1112basic_stringIcSt11char_traitsIcESaIcEEEN8nlohmann10basic_jsonIS0_St6vectorS6_blmdSaNS7_14adl_serializerEEESt4lessIvESaISt4pairIKS6_SB_EEEZNSB_6createISI_JRKSI_EEEPT_DpOT0_EUlPSI_E_E7releaseEv
FNDA:0,_ZStneINSt7__cxx1112basic_stringIcSt11char_traitsIcESaIcEEEZN8nlohmann10basic_jsonISt3mapSt6vectorS5_blmdSaNS6_14adl_serializerEE6createIS5_JRA1_KcEEEPT_DpOT0_EUlPS5_E_EbRKSt10unique_ptrISG_T0_EDn
FNDA:1,_ZStneISt6vectorIN8nlohmann10basic_jsonISt3mapS0_NSt7__cxx1112basic_stringIcSt11char_traitsIcESaIcEEEblmdSaNS1_14adl_serializerEEESaISB_EEZNSB_6createISD_JEEEPT_DpOT0_EUlPSD_E_EbRKSt10unique_ptrISF_T0_EDn
FNDA:664,_ZStneISt3mapINSt7__cxx1112basic_stringIcSt11char_traitsIcESaIcEEEN8nlohmann10basic_jsonIS0_St6vectorS6_blmdSaNS7_14adl_serializerEEESt4lessIvESaISt4pairIKS6_SB_EEEZNSB_6createISI_JEEEPT_DpOT0_EUlPSI_E_EbRKSt10unique_ptrISK_T0_EDn
FNDA:5312,_ZStneINSt7__cxx1112basic_stringIcSt11char_traitsIcESaIcEEEZN8nlohmann10basic_jsonISt3mapSt6vectorS5_blmdSaNS6_14adl_serializerEE6createIS5_JRKS5_EEEPT_DpOT0_EUlPS5_E_EbRKSt10unique_ptrISF_T0_EDn
FNDA:0,_ZStneISt6vectorIN8nlohmann10basic_jsonISt3mapS0_NSt7__cxx1112basic_stringIcSt11char_traitsIcESaIcEEEblmdSaNS1_14adl_serializerEEESaISB_EEZNSB_6createISD_JRKSD_EEEPT_DpOT0_EUlPSD_E_EbRKSt10unique_ptrISH_T0_EDn
FNDA:664,_ZStneISt3mapINSt7__cxx1112basic_stringIcSt11char_traitsIcESaIcEEEN8nlohmann10basic_jsonIS0_St6vectorS6_blmdSaNS7_14adl_serializerEEESt4lessIvESaISt4pairIKS6_SB_EEEZNSB_6createISI_JRKSI_EEEPT_DpOT0_EUlPSI_E_EbRKSt10unique_ptrISM_T0_EDn
FNF:66
FNH:36
DA:143,6641
DA:144,6641
DA:146,13282
DA:147,19923
DA:148,0
DA:212,6641
DA:215,6641
DA:264,6641
DA:266,6641
DA:267,6641
DA:268,0
DA:269,6641
DA:270,6641
DA:336,19923
DA:337,19923
DA:341,0
DA:342,0
DA:350,6641
DA:351,6641
DA:357,6641
DA:359,6641
DA:360,6641
DA:361,6641
DA:706,6641
DA:707,6641
LF:25
LH:21
end_of_record
SF:/usr/include/c++/7/bits/vector.tcc
FN:95,_ZNSt6vectorIN8nlohmann10basic_jsonISt3mapS_NSt7__cxx1112basic_stringIcSt11char_traitsIcESaIcEEEblmdSaNS0_14adl_serializerEEESaISA_EE12emplace_backIJRS8_EEEvDpOT_
FN:95,_ZNSt6vectorIN8nlohmann10basic_jsonISt3mapS_NSt7__cxx1112basic_stringIcSt11char_traitsIcESaIcEEEblmdSaNS0_14adl_serializerEEESaISA_EE12emplace_backIJRdEEEvDpOT_
FN:95,_ZNSt6vectorIPN8nlohmann10basic_jsonISt3mapS_NSt7__cxx1112basic_stringIcSt11char_traitsIcESaIcEEEblmdSaNS0_14adl_serializerEEESaISB_EE12emplace_backIJSB_EEEvDpOT_
FN:95,_ZNSt6vectorIN8nlohmann10basic_jsonISt3mapS_NSt7__cxx1112basic_stringIcSt11char_traitsIcESaIcEEEblmdSaNS0_14adl_serializerEEESaISA_EE12emplace_backIJRbEEEvDpOT_
FN:95,_ZNSt6vectorIN8nlohmann10basic_jsonISt3mapS_NSt7__cxx1112basic_stringIcSt11char_traitsIcESaIcEEEblmdSaNS0_14adl_serializerEEESaISA_EE12emplace_backIJNS0_6detail7value_tEEEEvDpOT_
FN:95,_ZNSt6vectorIdSaIdEE12emplace_backIJdEEEvDpOT_
FN:95,_ZNSt6vectorIcSaIcEE12emplace_backIJcEEEvDpOT_
FN:95,_ZNSt6vectorIN8nlohmann10basic_jsonISt3mapS_NSt7__cxx1112basic_stringIcSt11char_traitsIcESaIcEEEblmdSaNS0_14adl_serializerEEESaISA_EE12emplace_backIJRlEEEvDpOT_
FN:95,_ZNSt6vectorIP6SensorSaIS1_EE12emplace_backIJS1_EEEvDpOT_
FN:95,_ZNSt6vectorIN8nlohmann10basic_jsonISt3mapS_NSt7__cxx1112basic_stringIcSt11char_traitsIcESaIcEEEblmdSaNS0_14adl_serializerEEESaISA_EE12emplace_backIJRmEEEvDpOT_
FN:95,_ZNSt6vectorIN8nlohmann10basic_jsonISt3mapS_NSt7__cxx1112basic_stringIcSt11char_traitsIcESaIcEEEblmdSaNS0_14adl_serializerEEESaISA_EE12emplace_backIJDnEEEvDpOT_
FN:95,_ZNSt6vectorIN8nlohmann10basic_jsonISt3mapS_NSt7__cxx1112basic_stringIcSt11char_traitsIcESaIcEEEblmdSaNS0_14adl_serializerEEESaISA_EE12emplace_backIJSA_EEEvDpOT_
FN:153,_ZNSt6vectorIN8nlohmann10basic_jsonISt3mapS_NSt7__cxx1112basic_stringIcSt11char_traitsIcESaIcEEEblmdSaNS0_14adl_serializerEEESaISA_EE8_M_eraseEN9__gnu_cxx17__normal_iteratorIPSA_SC_EE
FN:394,_ZNSt6vectorIcSaIcEE17_M_realloc_insertIJcEEEvN9__gnu_cxx17__normal_iteratorIPcS1_EEDpOT_
FN:394,_ZNSt6vectorIN8nlohmann10basic_jsonISt3mapS_NSt7__cxx1112basic_stringIcSt11char_traitsIcESaIcEEEblmdSaNS0_14adl_serializerEEESaISA_EE17_M_realloc_insertIJRdEEEvN9__gnu_cxx17__normal_iteratorIPSA_SC_EEDpOT_
FN:394,_ZNSt6vectorIN8nlohmann10basic_jsonISt3mapS_NSt7__cxx1112basic_stringIcSt11char_traitsIcESaIcEEEblmdSaNS0_14adl_serializerEEESaISA_EE17_M_realloc_insertIJRS8_EEEvN9__gnu_cxx17__normal_iteratorIPSA_SC_EEDpOT_
FN:394,_ZNSt6vectorIdSaIdEE17_M_realloc_insertIJdEEEvN9__gnu_cxx17__normal_iteratorIPdS1_EEDpOT_
FN:394,_ZNSt6vectorIN8nlohmann10basic_jsonISt3mapS_NSt7__cxx1112basic_stringIcSt11char_traitsIcESaIcEEEblmdSaNS0_14adl_serializerEEESaISA_EE17_M_realloc_insertIJRlEEEvN9__gnu_cxx17__normal_iteratorIPSA_SC_EEDpOT_
FN:394,_ZNSt6vectorIN8nlohmann10basic_jsonISt3mapS_NSt7__cxx1112basic_stringIcSt11char_traitsIcESaIcEEEblmdSaNS0_14adl_serializerEEESaISA_EE17_M_realloc_insertIJDnEEEvN9__gnu_cxx17__normal_iteratorIPSA_SC_EEDpOT_
FN:394,_ZNSt6vectorIN8nlohmann10basic_jsonISt3mapS_NSt7__cxx1112basic_stringIcSt11char_traitsIcESaIcEEEblmdSaNS0_14adl_serializerEEESaISA_EE17_M_realloc_insertIJRbEEEvN9__gnu_cxx17__normal_iteratorIPSA_SC_EEDpOT_
FN:394,_ZNSt6vectorIN8nlohmann10basic_jsonISt3mapS_NSt7__cxx1112basic_stringIcSt11char_traitsIcESaIcEEEblmdSaNS0_14adl_serializerEEESaISA_EE17_M_realloc_insertIJRmEEEvN9__gnu_cxx17__normal_iteratorIPSA_SC_EEDpOT_
FN:394,_ZNSt6vectorIN8nlohmann10basic_jsonISt3mapS_NSt7__cxx1112basic_stringIcSt11char_traitsIcESaIcEEEblmdSaNS0_14adl_serializerEEESaISA_EE17_M_realloc_insertIJSA_EEEvN9__gnu_cxx17__normal_iteratorIPSA_SC_EEDpOT_
FN:394,_ZNSt6vectorIP6SensorSaIS1_EE17_M_realloc_insertIJS1_EEEvN9__gnu_cxx17__normal_iteratorIPS1_S3_EEDpOT_
FN:394,_ZNSt6vectorIPN8nlohmann10basic_jsonISt3mapS_NSt7__cxx1112basic_stringIcSt11char_traitsIcESaIcEEEblmdSaNS0_14adl_serializerEEESaISB_EE17_M_realloc_insertIJSB_EEEvN9__gnu_cxx17__normal_iteratorIPSB_SD_EEDpOT_
FN:394,_ZNSt6vectorIN8nlohmann10basic_jsonISt3mapS_NSt7__cxx1112basic_stringIcSt11char_traitsIcESaIcEEEblmdSaNS0_14adl_serializerEEESaISA_EE17_M_realloc_insertIJNS0_6detail7value_tEEEEvN9__gnu_cxx17__normal_iteratorIPSA_SC_EEDpOT_
FN:394,_ZNSt6vectorIPN8nlohmann10basic_jsonISt3mapS_NSt7__cxx1112basic_stringIcSt11char_traitsIcESaIcEEEblmdSaNS0_14adl_serializerEEESaISB_EE17_M_realloc_insertIJRKSB_EEEvN9__gnu_cxx17__normal_iteratorIPSB_SD_EEDpOT_
FN:793,_ZNSt6vectorIbSaIbEE13_M_insert_auxESt13_Bit_iteratorb
FNDA:0,_ZNSt6vectorIN8nlohmann10basic_jsonISt3mapS_NSt7__cxx1112basic_stringIcSt11char_traitsIcESaIcEEEblmdSaNS0_14adl_serializerEEESaISA_EE12emplace_backIJSA_EEEvDpOT_
FNDA:665,_ZNSt6vectorIPN8nlohmann10basic_jsonISt3mapS_NSt7__cxx1112basic_stringIcSt11char_traitsIcESaIcEEEblmdSaNS0_14adl_serializerEEESaISB_EE12emplace_backIJSB_EEEvDpOT_
FNDA:664,_ZNSt6vectorIN8nlohmann10basic_jsonISt3mapS_NSt7__cxx1112basic_stringIcSt11char_traitsIcESaIcEEEblmdSaNS0_14adl_serializerEEESaISA_EE12emplace_backIJNS0_6detail7value_tEEEEvDpOT_
FNDA:0,_ZNSt6vectorIN8nlohmann10basic_jsonISt3mapS_NSt7__cxx1112basic_stringIcSt11char_traitsIcESaIcEEEblmdSaNS0_14adl_serializerEEESaISA_EE12emplace_backIJRS8_EEEvDpOT_
FNDA:0,_ZNSt6vectorIN8nlohmann10basic_jsonISt3mapS_NSt7__cxx1112basic_stringIcSt11char_traitsIcESaIcEEEblmdSaNS0_14adl_serializerEEESaISA_EE12emplace_backIJRdEEEvDpOT_
FNDA:0,_ZNSt6vectorIN8nlohmann10basic_jsonISt3mapS_NSt7__cxx1112basic_stringIcSt11char_traitsIcESaIcEEEblmdSaNS0_14adl_serializerEEESaISA_EE12emplace_backIJRmEEEvDpOT_
FNDA:0,_ZNSt6vectorIN8nlohmann10basic_jsonISt3mapS_NSt7__cxx1112basic_stringIcSt11char_traitsIcESaIcEEEblmdSaNS0_14adl_serializerEEESaISA_EE12emplace_backIJRlEEEvDpOT_
FNDA:0,_ZNSt6vectorIN8nlohmann10basic_jsonISt3mapS_NSt7__cxx1112basic_stringIcSt11char_traitsIcESaIcEEEblmdSaNS0_14adl_serializerEEESaISA_EE12emplace_backIJRbEEEvDpOT_
FNDA:0,_ZNSt6vectorIN8nlohmann10basic_jsonISt3mapS_NSt7__cxx1112basic_stringIcSt11char_traitsIcESaIcEEEblmdSaNS0_14adl_serializerEEESaISA_EE12emplace_backIJDnEEEvDpOT_
FNDA:861394,_ZNSt6vectorIcSaIcEE12emplace_backIJcEEEvDpOT_
FNDA:1992,_ZNSt6vectorIdSaIdEE12emplace_backIJdEEEvDpOT_
FNDA:1328,_ZNSt6vectorIP6SensorSaIS1_EE12emplace_backIJS1_EEEvDpOT_
FNDA:0,_ZNSt6vectorIN8nlohmann10basic_jsonISt3mapS_NSt7__cxx1112basic_stringIcSt11char_traitsIcESaIcEEEblmdSaNS0_14adl_serializerEEESaISA_EE8_M_eraseEN9__gnu_cxx17__normal_iteratorIPSA_SC_EE
FNDA:0,_ZNSt6vectorIN8nlohmann10basic_jsonISt3mapS_NSt7__cxx1112basic_stringIcSt11char_traitsIcESaIcEEEblmdSaNS0_14adl_serializerEEESaISA_EE17_M_realloc_insertIJSA_EEEvN9__gnu_cxx17__normal_iteratorIPSA_SC_EEDpOT_
FNDA:2,_ZNSt6vectorIPN8nlohmann10basic_jsonISt3mapS_NSt7__cxx1112basic_stringIcSt11char_traitsIcESaIcEEEblmdSaNS0_14adl_serializerEEESaISB_EE17_M_realloc_insertIJSB_EEEvN9__gnu_cxx17__normal_iteratorIPSB_SD_EEDpOT_
FNDA:11,_ZNSt6vectorIN8nlohmann10basic_jsonISt3mapS_NSt7__cxx1112basic_stringIcSt11char_traitsIcESaIcEEEblmdSaNS0_14adl_serializerEEESaISA_EE17_M_realloc_insertIJNS0_6detail7value_tEEEEvN9__gnu_cxx17__normal_iteratorIPSA_SC_EEDpOT_
FNDA:0,_ZNSt6vectorIN8nlohmann10basic_jsonISt3mapS_NSt7__cxx1112basic_stringIcSt11char_traitsIcESaIcEEEblmdSaNS0_14adl_serializerEEESaISA_EE17_M_realloc_insertIJRS8_EEEvN9__gnu_cxx17__normal_iteratorIPSA_SC_EEDpOT_
FNDA:0,_ZNSt6vectorIN8nlohmann10basic_jsonISt3mapS_NSt7__cxx1112basic_stringIcSt11char_traitsIcESaIcEEEblmdSaNS0_14adl_serializerEEESaISA_EE17_M_realloc_insertIJRdEEEvN9__gnu_cxx17__normal_iteratorIPSA_SC_EEDpOT_
FNDA:0,_ZNSt6vectorIN8nlohmann10basic_jsonISt3mapS_NSt7__cxx1112basic_stringIcSt11char_traitsIcESaIcEEEblmdSaNS0_14adl_serializerEEESaISA_EE17_M_realloc_insertIJRmEEEvN9__gnu_cxx17__normal_iteratorIPSA_SC_EEDpOT_
FNDA:0,_ZNSt6vectorIN8nlohmann10basic_jsonISt3mapS_NSt7__cxx1112basic_stringIcSt11char_traitsIcESaIcEEEblmdSaNS0_14adl_serializerEEESaISA_EE17_M_realloc_insertIJRlEEEvN9__gnu_cxx17__normal_iteratorIPSA_SC_EEDpOT_
FNDA:0,_ZNSt6vectorIN8nlohmann10basic_jsonISt3mapS_NSt7__cxx1112basic_stringIcSt11char_traitsIcESaIcEEEblmdSaNS0_14adl_serializerEEESaISA_EE17_M_realloc_insertIJRbEEEvN9__gnu_cxx17__normal_iteratorIPSA_SC_EEDpOT_
FNDA:0,_ZNSt6vectorIN8nlohmann10basic_jsonISt3mapS_NSt7__cxx1112basic_stringIcSt11char_traitsIcESaIcEEEblmdSaNS0_14adl_serializerEEESaISA_EE17_M_realloc_insertIJDnEEEvN9__gnu_cxx17__normal_iteratorIPSA_SC_EEDpOT_
FNDA:0,_ZNSt6vectorIPN8nlohmann10basic_jsonISt3mapS_NSt7__cxx1112basic_stringIcSt11char_traitsIcESaIcEEEblmdSaNS0_14adl_serializerEEESaISB_EE17_M_realloc_insertIJRKSB_EEEvN9__gnu_cxx17__normal_iteratorIPSB_SD_EEDpOT_
FNDA:7,_ZNSt6vectorIcSaIcEE17_M_realloc_insertIJcEEEvN9__gnu_cxx17__normal_iteratorIPcS1_EEDpOT_
FNDA:33,_ZNSt6vectorIdSaIdEE17_M_realloc_insertIJdEEEvN9__gnu_cxx17__normal_iteratorIPdS1_EEDpOT_
FNDA:22,_ZNSt6vectorIP6SensorSaIS1_EE17_M_realloc_insertIJS1_EEEvN9__gnu_cxx17__normal_iteratorIPS1_S3_EEDpOT_
FNDA:1,_ZNSt6vectorIbSaIbEE13_M_insert_auxESt13_Bit_iteratorb
FNF:27
FNH:11
DA:95,866043
DA:98,866043
DA:100,865968
DA:102,865968
DA:105,75
DA:109,866043
DA:153,0
DA:156,0
DA:157,0
DA:158,0
DA:159,0
DA:160,0
DA:394,75
DA:403,75
DA:405,75
DA:406,75
DA:407,75
DA:415,143
DA:416,68
DA:422,75
DA:424,75
DA:426,75
DA:427,75
DA:429,75
DA:431,75
DA:433,75
DA:434,75
DA:436,0
DA:438,0
DA:439,0
DA:440,0
DA:442,0
DA:443,0
DA:444,0
DA:446,75
DA:447,75
DA:448,150
DA:449,75
DA:450,75
DA:451,75
DA:452,75
DA:453,75
DA:454,75
DA:793,1
DA:796,1
DA:798,0
DA:800,0
DA:801,0
DA:805,1
DA:807,1
DA:808,1
DA:809,1
DA:810,1
DA:811,1
DA:812,1
DA:813,1
DA:814,1
DA:815,1
DA:817,1
LF:59
LH:43
end_of_record
SF:/usr/include/c++/7/cmath
FN:573,_ZSt8isfinited
FNDA:16475,_ZSt8isfinited
FNF:1
FNH:1
DA:573,16475
DA:574,16475
LF:2
LH:2
end_of_record
SF:/usr/include/c++/7/ext/aligned_buffer.h
FN:62,_ZN9__gnu_cxx16__aligned_membufISt4pairIKNSt7__cxx1112basic_stringIcSt11char_traitsIcESaIcEEEN8nlohmann10basic_jsonISt3mapSt6vectorS7_blmdSaNS9_14adl_serializerEEEEE7_M_addrEv
FN:66,_ZNK9__gnu_cxx16__aligned_membufISt4pairIKNSt7__cxx1112basic_stringIcSt11char_traitsIcESaIcEEEN8nlohmann10basic_jsonISt3mapSt6vectorS7_blmdSaNS9_14adl_serializerEEEEE7_M_addrEv
FN:70,_ZN9__gnu_cxx16__aligned_membufISt4pairIKNSt7__cxx1112basic_stringIcSt11char_traitsIcESaIcEEEN8nlohmann10basic_jsonISt3mapSt6vectorS7_blmdSaNS9_14adl_serializerEEEEE6_M_ptrEv
FN:74,_ZNK9__gnu_cxx16__aligned_membufISt4pairIKNSt7__cxx1112basic_stringIcSt11char_traitsIcESaIcEEEN8nlohmann10basic_jsonISt3mapSt6vectorS7_blmdSaNS9_14adl_serializerEEEEE6_M_ptrEv
FN:97,_ZN9__gnu_cxx16__aligned_bufferIN8nlohmann6detail20input_stream_adapterEE7_M_addrEv
FN:109,_ZN9__gnu_cxx16__aligned_bufferIN8nlohmann6detail20input_stream_adapterEE6_M_ptrEv
FNDA:115536,_ZN9__gnu_cxx16__aligned_membufISt4pairIKNSt7__cxx1112basic_stringIcSt11char_traitsIcESaIcEEEN8nlohmann10basic_jsonISt3mapSt6vectorS7_blmdSaNS9_14adl_serializerEEEEE7_M_addrEv
FNDA:223104,_ZNK9__gnu_cxx16__aligned_membufISt4pairIKNSt7__cxx1112basic_stringIcSt11char_traitsIcESaIcEEEN8nlohmann10basic_jsonISt3mapSt6vectorS7_blmdSaNS9_14adl_serializerEEEEE7_M_addrEv
FNDA:115536,_ZN9__gnu_cxx16__aligned_membufISt4pairIKNSt7__cxx1112basic_stringIcSt11char_traitsIcESaIcEEEN8nlohmann10basic_jsonISt3mapSt6vectorS7_blmdSaNS9_14adl_serializerEEEEE6_M_ptrEv
FNDA:223104,_ZNK9__gnu_cxx16__aligned_membufISt4pairIKNSt7__cxx1112basic_stringIcSt11char_traitsIcESaIcEEEN8nlohmann10basic_jsonISt3mapSt6vectorS7_blmdSaNS9_14adl_serializerEEEEE6_M_ptrEv
FNDA:3,_ZN9__gnu_cxx16__aligned_bufferIN8nlohmann6detail20input_stream_adapterEE7_M_addrEv
FNDA:3,_ZN9__gnu_cxx16__aligned_bufferIN8nlohmann6detail20input_stream_adapterEE6_M_ptrEv
FNF:6
FNH:6
DA:62,115536
DA:63,115536
DA:66,223104
DA:67,223104
DA:70,115536
DA:71,115536
DA:74,223104
DA:75,223104
DA:97,3
DA:99,3
DA:109,3
DA:110,3
LF:12
LH:12
end_of_record
SF:/usr/include/c++/7/ext/alloc_traits.h
FN:94,_ZN9__gnu_cxx14__alloc_traitsISaISt13_Rb_tree_nodeISt4pairIKNSt7__cxx1112basic_stringIcSt11char_traitsIcESaIcEEEN8nlohmann10basic_jsonISt3mapSt6vectorS8_blmdSaNSA_14adl_serializerEEEEEEE17_S_select_on_copyERKSI_
FN:94,_ZN9__gnu_cxx14__alloc_traitsISaIN8nlohmann10basic_jsonISt3mapSt6vectorNSt7__cxx1112basic_stringIcSt11char_traitsIcESaIcEEEblmdSaNS1_14adl_serializerEEEEE17_S_select_on_copyERKSD_
FNDA:664,_ZN9__gnu_cxx14__alloc_traitsISaISt13_Rb_tree_nodeISt4pairIKNSt7__cxx1112basic_stringIcSt11char_traitsIcESaIcEEEN8nlohmann10basic_jsonISt3mapSt6vectorS8_blmdSaNSA_14adl_serializerEEEEEEE17_S_select_on_copyERKSI_
FNDA:0,_ZN9__gnu_cxx14__alloc_traitsISaIN8nlohmann10basic_jsonISt3mapSt6vectorNSt7__cxx1112basic_stringIcSt11char_traitsIcESaIcEEEblmdSaNS1_14adl_serializerEEEEE17_S_select_on_copyERKSD_
FNF:2
FNH:1
DA:94,664
DA:95,664
LF:2
LH:2
end_of_record
SF:/usr/include/c++/7/ext/atomicity.h
FN:48,_ZN9__gnu_cxxL18__exchange_and_addEPVii
FN:52,_ZN9__gnu_cxxL12__atomic_addEPVii
FN:65,_ZN9__gnu_cxxL25__exchange_and_add_singleEPii
FN:73,_ZN9__gnu_cxxL19__atomic_add_singleEPii
FN:78,_ZN9__gnu_cxxL27__exchange_and_add_dispatchEPii
FN:92,_ZN9__gnu_cxxL21__atomic_add_dispatchEPii
FNDA:0,_ZN9__gnu_cxxL18__exchange_and_addEPVii
FNDA:0,_ZN9__gnu_cxxL12__atomic_addEPVii
FNDA:3,_ZN9__gnu_cxxL25__exchange_and_add_singleEPii
FNDA:1,_ZN9__gnu_cxxL19__atomic_add_singleEPii
FNDA:3,_ZN9__gnu_cxxL27__exchange_and_add_dispatchEPii
FNDA:1,_ZN9__gnu_cxxL21__atomic_add_dispatchEPii
FNF:6
FNH:4
DA:48,0
DA:49,0
DA:52,0
DA:53,0
DA:65,3
DA:67,3
DA:68,3
DA:69,3
DA:73,1
DA:74,1
DA:78,3
DA:81,3
DA:82,0
DA:84,3
DA:92,1
DA:95,1
DA:96,0
DA:98,1
DA:102,1
LF:19
LH:13
end_of_record
SF:/usr/include/c++/7/ext/new_allocator.h
FN:79,_ZN9__gnu_cxx13new_allocatorISt13_Rb_tree_nodeISt4pairIKNSt7__cxx1112basic_stringIcSt11char_traitsIcESaIcEEEN8nlohmann10basic_jsonISt3mapSt6vectorS8_blmdSaNSA_14adl_serializerEEEEEEC2Ev
FN:79,_ZN9__gnu_cxx13new_allocatorISt23_Sp_counted_ptr_inplaceIN8nlohmann6detail20input_stream_adapterESaIS4_ELNS_12_Lock_policyE2EEEC2Ev
FN:79,_ZN9__gnu_cxx13new_allocatorISt3mapINSt7__cxx1112basic_stringIcSt11char_traitsIcESaIcEEEN8nlohmann10basic_jsonIS1_St6vectorS7_blmdSaNS8_14adl_serializerEEESt4lessIvESaISt4pairIKS7_SC_EEEEC2Ev
FN:79,_ZN9__gnu_cxx13new_allocatorINSt7__cxx1112basic_stringIcSt11char_traitsIcESaIcEEEEC2Ev
FN:79,_ZN9__gnu_cxx13new_allocatorIN8nlohmann6detail20input_stream_adapterEEC2Ev
FN:79,_ZN9__gnu_cxx13new_allocatorIPN8nlohmann10basic_jsonISt3mapSt6vectorNSt7__cxx1112basic_stringIcSt11char_traitsIcESaIcEEEblmdSaNS1_14adl_serializerEEEEC2Ev
FN:79,_ZN9__gnu_cxx13new_allocatorIN8nlohmann10basic_jsonISt3mapSt6vectorNSt7__cxx1112basic_stringIcSt11char_traitsIcESaIcEEEblmdSaNS1_14adl_serializerEEEEC2Ev
FN:79,_ZN9__gnu_cxx13new_allocatorImEC2Ev
FN:79,_ZN9__gnu_cxx13new_allocatorIdEC2Ev
FN:79,_ZN9__gnu_cxx13new_allocatorISt6vectorIN8nlohmann10basic_jsonISt3mapS1_NSt7__cxx1112basic_stringIcSt11char_traitsIcESaIcEEEblmdSaNS2_14adl_serializerEEESaISC_EEEC2Ev
FN:79,_ZN9__gnu_cxx13new_allocatorIP6SensorEC2Ev
FN:81,_ZN9__gnu_cxx13new_allocatorISt13_Rb_tree_nodeISt4pairIKNSt7__cxx1112basic_stringIcSt11char_traitsIcESaIcEEEN8nlohmann10basic_jsonISt3mapSt6vectorS8_blmdSaNSA_14adl_serializerEEEEEEC2ERKSI_
FN:81,_ZN9__gnu_cxx13new_allocatorIN8nlohmann6detail20input_stream_adapterEEC2ERKS4_
FN:81,_ZN9__gnu_cxx13new_allocatorIN8nlohmann10basic_jsonISt3mapSt6vectorNSt7__cxx1112basic_stringIcSt11char_traitsIcESaIcEEEblmdSaNS1_14adl_serializerEEEEC2ERKSD_
FN:86,_ZN9__gnu_cxx13new_allocatorIdED2Ev
FN:86,_ZN9__gnu_cxx13new_allocatorIPN8nlohmann10basic_jsonISt3mapSt6vectorNSt7__cxx1112basic_stringIcSt11char_traitsIcESaIcEEEblmdSaNS1_14adl_serializerEEEED2Ev
FN:86,_ZN9__gnu_cxx13new_allocatorIN8nlohmann10basic_jsonISt3mapSt6vectorNSt7__cxx1112basic_stringIcSt11char_traitsIcESaIcEEEblmdSaNS1_14adl_serializerEEEED2Ev
FN:86,_ZN9__gnu_cxx13new_allocatorISt23_Sp_counted_ptr_inplaceIN8nlohmann6detail20input_stream_adapterESaIS4_ELNS_12_Lock_policyE2EEED2Ev
FN:86,_ZN9__gnu_cxx13new_allocatorIN8nlohmann6detail20input_stream_adapterEED2Ev
FN:86,_ZN9__gnu_cxx13new_allocatorINSt7__cxx1112basic_stringIcSt11char_traitsIcESaIcEEEED2Ev
FN:86,_ZN9__gnu_cxx13new_allocatorISt13_Rb_tree_nodeISt4pairIKNSt7__cxx1112basic_stringIcSt11char_traitsIcESaIcEEEN8nlohmann10basic_jsonISt3mapSt6vectorS8_blmdSaNSA_14adl_serializerEEEEEED2Ev
FN:86,_ZN9__gnu_cxx13new_allocatorIP6SensorED2Ev
FN:86,_ZN9__gnu_cxx13new_allocatorISt3mapINSt7__cxx1112basic_stringIcSt11char_traitsIcESaIcEEEN8nlohmann10basic_jsonIS1_St6vectorS7_blmdSaNS8_14adl_serializerEEESt4lessIvESaISt4pairIKS7_SC_EEEED2Ev
FN:86,_ZN9__gnu_cxx13new_allocatorISt6vectorIN8nlohmann10basic_jsonISt3mapS1_NSt7__cxx1112basic_stringIcSt11char_traitsIcESaIcEEEblmdSaNS2_14adl_serializerEEESaISC_EEED2Ev
FN:86,_ZN9__gnu_cxx13new_allocatorImED2Ev
FN:99,_ZN9__gnu_cxx13new_allocatorIdE8allocateEmPKv
FN:99,_ZN9__gnu_cxx13new_allocatorISt23_Sp_counted_ptr_inplaceIN8nlohmann6detail20input_stream_adapterESaIS4_ELNS_12_Lock_policyE2EEE8allocateEmPKv
FN:99,_ZN9__gnu_cxx13new_allocatorImE8allocateEmPKv
FN:99,_ZN9__gnu_cxx13new_allocatorISt3mapINSt7__cxx1112basic_stringIcSt11char_traitsIcESaIcEEEN8nlohmann10basic_jsonIS1_St6vectorS7_blmdSaNS8_14adl_serializerEEESt4lessIvESaISt4pairIKS7_SC_EEEE8allocateEmPKv
FN:99,_ZN9__gnu_cxx13new_allocatorISt13_Rb_tree_nodeISt4pairIKNSt7__cxx1112basic_stringIcSt11char_traitsIcESaIcEEEN8nlohmann10basic_jsonISt3mapSt6vectorS8_blmdSaNSA_14adl_serializerEEEEEE8allocateEmPKv
FN:99,_ZN9__gnu_cxx13new_allocatorIcE8allocateEmPKv
FN:99,_ZN9__gnu_cxx13new_allocatorIPN8nlohmann10basic_jsonISt3mapSt6vectorNSt7__cxx1112basic_stringIcSt11char_traitsIcESaIcEEEblmdSaNS1_14adl_serializerEEEE8allocateEmPKv
FN:99,_ZN9__gnu_cxx13new_allocatorIP6SensorE8allocateEmPKv
FN:99,_ZN9__gnu_cxx13new_allocatorISt6vectorIN8nlohmann10basic_jsonISt3mapS1_NSt7__cxx1112basic_stringIcSt11char_traitsIcESaIcEEEblmdSaNS2_14adl_serializerEEESaISC_EEE8allocateEmPKv
FN:99,_ZN9__gnu_cxx13new_allocatorIN8nlohmann10basic_jsonISt3mapSt6vectorNSt7__cxx1112basic_stringIcSt11char_traitsIcESaIcEEEblmdSaNS1_14adl_serializerEEEE8allocateEmPKv
FN:99,_ZN9__gnu_cxx13new_allocatorINSt7__cxx1112basic_stringIcSt11char_traitsIcESaIcEEEE8allocateEmPKv
FN:116,_ZN9__gnu_cxx13new_allocatorIP6SensorE10deallocateEPS2_m
FN:116,_ZN9__gnu_cxx13new_allocatorIPN8nlohmann10basic_jsonISt3mapSt6vectorNSt7__cxx1112basic_stringIcSt11char_traitsIcESaIcEEEblmdSaNS1_14adl_serializerEEEE10deallocateEPSD_m
FN:116,_ZN9__gnu_cxx13new_allocatorISt13_Rb_tree_nodeISt4pairIKNSt7__cxx1112basic_stringIcSt11char_traitsIcESaIcEEEN8nlohmann10basic_jsonISt3mapSt6vectorS8_blmdSaNSA_14adl_serializerEEEEEE10deallocateEPSH_m
FN:116,_ZN9__gnu_cxx13new_allocatorISt3mapINSt7__cxx1112basic_stringIcSt11char_traitsIcESaIcEEEN8nlohmann10basic_jsonIS1_St6vectorS7_blmdSaNS8_14adl_serializerEEESt4lessIvESaISt4pairIKS7_SC_EEEE10deallocateEPSJ_m
FN:116,_ZN9__gnu_cxx13new_allocatorINSt7__cxx1112basic_stringIcSt11char_traitsIcESaIcEEEE10deallocateEPS6_m
FN:116,_ZN9__gnu_cxx13new_allocatorIcE10deallocateEPcm
FN:116,_ZN9__gnu_cxx13new_allocatorIN8nlohmann10basic_jsonISt3mapSt6vectorNSt7__cxx1112basic_stringIcSt11char_traitsIcESaIcEEEblmdSaNS1_14adl_serializerEEEE10deallocateEPSC_m
FN:116,_ZN9__gnu_cxx13new_allocatorIdE10deallocateEPdm
FN:116,_ZN9__gnu_cxx13new_allocatorISt6vectorIN8nlohmann10basic_jsonISt3mapS1_NSt7__cxx1112basic_stringIcSt11char_traitsIcESaIcEEEblmdSaNS2_14adl_serializerEEESaISC_EEE10deallocateEPSE_m
FN:116,_ZN9__gnu_cxx13new_allocatorImE10deallocateEPmm
FN:116,_ZN9__gnu_cxx13new_allocatorISt23_Sp_counted_ptr_inplaceIN8nlohmann6detail20input_stream_adapterESaIS4_ELNS_12_Lock_policyE2EEE10deallocateEPS7_m
FN:129,_ZNK9__gnu_cxx13new_allocatorIN8nlohmann10basic_jsonISt3mapSt6vectorNSt7__cxx1112basic_stringIcSt11char_traitsIcESaIcEEEblmdSaNS1_14adl_serializerEEEE8max_sizeEv
FN:129,_ZNK9__gnu_cxx13new_allocatorIdE8max_sizeEv
FN:129,_ZNK9__gnu_cxx13new_allocatorISt23_Sp_counted_ptr_inplaceIN8nlohmann6detail20input_stream_adapterESaIS4_ELNS_12_Lock_policyE2EEE8max_sizeEv
FN:129,_ZNK9__gnu_cxx13new_allocatorINSt7__cxx1112basic_stringIcSt11char_traitsIcESaIcEEEE8max_sizeEv
FN:129,_ZNK9__gnu_cxx13new_allocatorISt3mapINSt7__cxx1112basic_stringIcSt11char_traitsIcESaIcEEEN8nlohmann10basic_jsonIS1_St6vectorS7_blmdSaNS8_14adl_serializerEEESt4lessIvESaISt4pairIKS7_SC_EEEE8max_sizeEv
FN:129,_ZNK9__gnu_cxx13new_allocatorISt13_Rb_tree_nodeISt4pairIKNSt7__cxx1112basic_stringIcSt11char_traitsIcESaIcEEEN8nlohmann10basic_jsonISt3mapSt6vectorS8_blmdSaNSA_14adl_serializerEEEEEE8max_sizeEv
FN:129,_ZNK9__gnu_cxx13new_allocatorIP6SensorE8max_sizeEv
FN:129,_ZNK9__gnu_cxx13new_allocatorISt6vectorIN8nlohmann10basic_jsonISt3mapS1_NSt7__cxx1112basic_stringIcSt11char_traitsIcESaIcEEEblmdSaNS2_14adl_serializerEEESaISC_EEE8max_sizeEv
FN:129,_ZNK9__gnu_cxx13new_allocatorIcE8max_sizeEv
FN:129,_ZNK9__gnu_cxx13new_allocatorImE8max_sizeEv
FN:129,_ZNK9__gnu_cxx13new_allocatorIPN8nlohmann10basic_jsonISt3mapSt6vectorNSt7__cxx1112basic_stringIcSt11char_traitsIcESaIcEEEblmdSaNS1_14adl_serializerEEEE8max_sizeEv
FN:135,_ZN9__gnu_cxx13new_allocatorIN8nlohmann10basic_jsonISt3mapSt6vectorNSt7__cxx1112basic_stringIcSt11char_traitsIcESaIcEEEblmdSaNS1_14adl_serializerEEEE9constructISC_JRSA_EEEvPT_DpOT0_
FN:135,_ZN9__gnu_cxx13new_allocatorISt3mapINSt7__cxx1112basic_stringIcSt11char_traitsIcESaIcEEEN8nlohmann10basic_jsonIS1_St6vectorS7_blmdSaNS8_14adl_serializerEEESt4lessIvESaISt4pairIKS7_SC_EEEE9constructISJ_JEEEvPT_DpOT0_
FN:135,_ZN9__gnu_cxx13new_allocatorISt13_Rb_tree_nodeISt4pairIKNSt7__cxx1112basic_stringIcSt11char_traitsIcESaIcEEEN8nlohmann10basic_jsonISt3mapSt6vectorS8_blmdSaNSA_14adl_serializerEEEEEE9constructISG_JRKSG_EEEvPT_DpOT0_
FN:135,_ZN9__gnu_cxx13new_allocatorISt6vectorIN8nlohmann10basic_jsonISt3mapS1_NSt7__cxx1112basic_stringIcSt11char_traitsIcESaIcEEEblmdSaNS2_14adl_serializerEEESaISC_EEE9constructISE_JRKSE_EEEvPT_DpOT0_
FN:135,_ZN9__gnu_cxx13new_allocatorIP6SensorE9constructIS2_JS2_EEEvPT_DpOT0_
FN:135,_ZN9__gnu_cxx13new_allocatorINSt7__cxx1112basic_stringIcSt11char_traitsIcESaIcEEEE9constructIS6_JRA1_KcEEEvPT_DpOT0_
FN:135,_ZN9__gnu_cxx13new_allocatorIcE9constructIcJcEEEvPT_DpOT0_
FN:135,_ZN9__gnu_cxx13new_allocatorISt13_Rb_tree_nodeISt4pairIKNSt7__cxx1112basic_stringIcSt11char_traitsIcESaIcEEEN8nlohmann10basic_jsonISt3mapSt6vectorS8_blmdSaNSA_14adl_serializerEEEEEE9constructISG_JRKSt21piecewise_construct_tSt5tupleIJRS9_EESN_IJEEEEEvPT_DpOT0_
FN:135,_ZN9__gnu_cxx13new_allocatorIN8nlohmann6detail20input_stream_adapterEE9constructIS3_JRSiEEEvPT_DpOT0_
FN:135,_ZN9__gnu_cxx13new_allocatorIPN8nlohmann10basic_jsonISt3mapSt6vectorNSt7__cxx1112basic_stringIcSt11char_traitsIcESaIcEEEblmdSaNS1_14adl_serializerEEEE9constructISD_JRKSD_EEEvPT_DpOT0_
FN:135,_ZN9__gnu_cxx13new_allocatorIN8nlohmann10basic_jsonISt3mapSt6vectorNSt7__cxx1112basic_stringIcSt11char_traitsIcESaIcEEEblmdSaNS1_14adl_serializerEEEE9constructISC_JRmEEEvPT_DpOT0_
FN:135,_ZN9__gnu_cxx13new_allocatorIPN8nlohmann10basic_jsonISt3mapSt6vectorNSt7__cxx1112basic_stringIcSt11char_traitsIcESaIcEEEblmdSaNS1_14adl_serializerEEEE9constructISD_JSD_EEEvPT_DpOT0_
FN:135,_ZN9__gnu_cxx13new_allocatorIN8nlohmann10basic_jsonISt3mapSt6vectorNSt7__cxx1112basic_stringIcSt11char_traitsIcESaIcEEEblmdSaNS1_14adl_serializerEEEE9constructISC_JSC_EEEvPT_DpOT0_
FN:135,_ZN9__gnu_cxx13new_allocatorISt6vectorIN8nlohmann10basic_jsonISt3mapS1_NSt7__cxx1112basic_stringIcSt11char_traitsIcESaIcEEEblmdSaNS2_14adl_serializerEEESaISC_EEE9constructISE_JEEEvPT_DpOT0_
FN:135,_ZN9__gnu_cxx13new_allocatorIdE9constructIdJdEEEvPT_DpOT0_
FN:135,_ZN9__gnu_cxx13new_allocatorIN8nlohmann10basic_jsonISt3mapSt6vectorNSt7__cxx1112basic_stringIcSt11char_traitsIcESaIcEEEblmdSaNS1_14adl_serializerEEEE9constructISC_JRdEEEvPT_DpOT0_
FN:135,_ZN9__gnu_cxx13new_allocatorIN8nlohmann10basic_jsonISt3mapSt6vectorNSt7__cxx1112basic_stringIcSt11char_traitsIcESaIcEEEblmdSaNS1_14adl_serializerEEEE9constructISC_JRlEEEvPT_DpOT0_
FN:135,_ZN9__gnu_cxx13new_allocatorIN8nlohmann10basic_jsonISt3mapSt6vectorNSt7__cxx1112basic_stringIcSt11char_traitsIcESaIcEEEblmdSaNS1_14adl_serializerEEEE9constructISC_JRbEEEvPT_DpOT0_
FN:135,_ZN9__gnu_cxx13new_allocatorIN8nlohmann10basic_jsonISt3mapSt6vectorNSt7__cxx1112basic_stringIcSt11char_traitsIcESaIcEEEblmdSaNS1_14adl_serializerEEEE9constructISC_JNS1_6detail7value_tEEEEvPT_DpOT0_
FN:135,_ZN9__gnu_cxx13new_allocatorINSt7__cxx1112basic_stringIcSt11char_traitsIcESaIcEEEE9constructIS6_JRKS6_EEEvPT_DpOT0_
FN:135,_ZN9__gnu_cxx13new_allocatorIN8nlohmann10basic_jsonISt3mapSt6vectorNSt7__cxx1112basic_stringIcSt11char_traitsIcESaIcEEEblmdSaNS1_14adl_serializerEEEE9constructISC_JDnEEEvPT_DpOT0_
FN:135,_ZN9__gnu_cxx13new_allocatorISt3mapINSt7__cxx1112basic_stringIcSt11char_traitsIcESaIcEEEN8nlohmann10basic_jsonIS1_St6vectorS7_blmdSaNS8_14adl_serializerEEESt4lessIvESaISt4pairIKS7_SC_EEEE9constructISJ_JRKSJ_EEEvPT_DpOT0_
FN:140,_ZN9__gnu_cxx13new_allocatorIP6SensorE7destroyIS2_EEvPT_
FN:140,_ZN9__gnu_cxx13new_allocatorIdE7destroyIdEEvPT_
FN:140,_ZN9__gnu_cxx13new_allocatorIPN8nlohmann10basic_jsonISt3mapSt6vectorNSt7__cxx1112basic_stringIcSt11char_traitsIcESaIcEEEblmdSaNS1_14adl_serializerEEEE7destroyISD_EEvPT_
FN:140,_ZN9__gnu_cxx13new_allocatorIN8nlohmann6detail20input_stream_adapterEE7destroyIS3_EEvPT_
FN:140,_ZN9__gnu_cxx13new_allocatorIcE7destroyIcEEvPT_
FN:140,_ZN9__gnu_cxx13new_allocatorINSt7__cxx1112basic_stringIcSt11char_traitsIcESaIcEEEE7destroyIS6_EEvPT_
FN:140,_ZN9__gnu_cxx13new_allocatorIN8nlohmann10basic_jsonISt3mapSt6vectorNSt7__cxx1112basic_stringIcSt11char_traitsIcESaIcEEEblmdSaNS1_14adl_serializerEEEE7destroyISC_EEvPT_
FN:140,_ZN9__gnu_cxx13new_allocatorISt3mapINSt7__cxx1112basic_stringIcSt11char_traitsIcESaIcEEEN8nlohmann10basic_jsonIS1_St6vectorS7_blmdSaNS8_14adl_serializerEEESt4lessIvESaISt4pairIKS7_SC_EEEE7destroyISJ_EEvPT_
FN:140,_ZN9__gnu_cxx13new_allocatorISt13_Rb_tree_nodeISt4pairIKNSt7__cxx1112basic_stringIcSt11char_traitsIcESaIcEEEN8nlohmann10basic_jsonISt3mapSt6vectorS8_blmdSaNSA_14adl_serializerEEEEEE7destroyISG_EEvPT_
FN:140,_ZN9__gnu_cxx13new_allocatorISt6vectorIN8nlohmann10basic_jsonISt3mapS1_NSt7__cxx1112basic_stringIcSt11char_traitsIcESaIcEEEblmdSaNS2_14adl_serializerEEESaISC_EEE7destroyISE_EEvPT_
FNDA:1,_ZN9__gnu_cxx13new_allocatorIN8nlohmann10basic_jsonISt3mapSt6vectorNSt7__cxx1112basic_stringIcSt11char_traitsIcESaIcEEEblmdSaNS1_14adl_serializerEEEEC2Ev
FNDA:664,_ZN9__gnu_cxx13new_allocatorISt13_Rb_tree_nodeISt4pairIKNSt7__cxx1112basic_stringIcSt11char_traitsIcESaIcEEEN8nlohmann10basic_jsonISt3mapSt6vectorS8_blmdSaNSA_14adl_serializerEEEEEEC2Ev
FNDA:1,_ZN9__gnu_cxx13new_allocatorImEC2Ev
FNDA:1,_ZN9__gnu_cxx13new_allocatorIPN8nlohmann10basic_jsonISt3mapSt6vectorNSt7__cxx1112basic_stringIcSt11char_traitsIcESaIcEEEblmdSaNS1_14adl_serializerEEEEC2Ev
FNDA:2,_ZN9__gnu_cxx13new_allocatorISt23_Sp_counted_ptr_inplaceIN8nlohmann6detail20input_stream_adapterESaIS4_ELNS_12_Lock_policyE2EEEC2Ev
FNDA:3,_ZN9__gnu_cxx13new_allocatorIdEC2Ev
FNDA:2,_ZN9__gnu_cxx13new_allocatorIP6SensorEC2Ev
FNDA:10624,_ZN9__gnu_cxx13new_allocatorINSt7__cxx1112basic_stringIcSt11char_traitsIcESaIcEEEEC2Ev
FNDA:2,_ZN9__gnu_cxx13new_allocatorISt6vectorIN8nlohmann10basic_jsonISt3mapS1_NSt7__cxx1112basic_stringIcSt11char_traitsIcESaIcEEEblmdSaNS2_14adl_serializerEEESaISC_EEEC2Ev
FNDA:2656,_ZN9__gnu_cxx13new_allocatorISt3mapINSt7__cxx1112basic_stringIcSt11char_traitsIcESaIcEEEN8nlohmann10basic_jsonIS1_St6vectorS7_blmdSaNS8_14adl_serializerEEESt4lessIvESaISt4pairIKS7_SC_EEEEC2Ev
FNDA:1,_ZN9__gnu_cxx13new_allocatorIN8nlohmann6detail20input_stream_adapterEEC2Ev
FNDA:0,_ZN9__gnu_cxx13new_allocatorIN8nlohmann10basic_jsonISt3mapSt6vectorNSt7__cxx1112basic_stringIcSt11char_traitsIcESaIcEEEblmdSaNS1_14adl_serializerEEEEC2ERKSD_
FNDA:664,_ZN9__gnu_cxx13new_allocatorISt13_Rb_tree_nodeISt4pairIKNSt7__cxx1112basic_stringIcSt11char_traitsIcESaIcEEEN8nlohmann10basic_jsonISt3mapSt6vectorS8_blmdSaNSA_14adl_serializerEEEEEEC2ERKSI_
FNDA:3,_ZN9__gnu_cxx13new_allocatorIN8nlohmann6detail20input_stream_adapterEEC2ERKS4_
FNDA:1,_ZN9__gnu_cxx13new_allocatorIN8nlohmann10basic_jsonISt3mapSt6vectorNSt7__cxx1112basic_stringIcSt11char_traitsIcESaIcEEEblmdSaNS1_14adl_serializerEEEED2Ev
FNDA:1328,_ZN9__gnu_cxx13new_allocatorISt13_Rb_tree_nodeISt4pairIKNSt7__cxx1112basic_stringIcSt11char_traitsIcESaIcEEEN8nlohmann10basic_jsonISt3mapSt6vectorS8_blmdSaNSA_14adl_serializerEEEEEED2Ev
FNDA:2,_ZN9__gnu_cxx13new_allocatorISt23_Sp_counted_ptr_inplaceIN8nlohmann6detail20input_stream_adapterESaIS4_ELNS_12_Lock_policyE2EEED2Ev
FNDA:1,_ZN9__gnu_cxx13new_allocatorImED2Ev
FNDA:1,_ZN9__gnu_cxx13new_allocatorIPN8nlohmann10basic_jsonISt3mapSt6vectorNSt7__cxx1112basic_stringIcSt11char_traitsIcESaIcEEEblmdSaNS1_14adl_serializerEEEED2Ev
FNDA:3,_ZN9__gnu_cxx13new_allocatorIdED2Ev
FNDA:2,_ZN9__gnu_cxx13new_allocatorIP6SensorED2Ev
FNDA:10624,_ZN9__gnu_cxx13new_allocatorINSt7__cxx1112basic_stringIcSt11char_traitsIcESaIcEEEED2Ev
FNDA:2,_ZN9__gnu_cxx13new_allocatorISt6vectorIN8nlohmann10basic_jsonISt3mapS1_NSt7__cxx1112basic_stringIcSt11char_traitsIcESaIcEEEblmdSaNS2_14adl_serializerEEESaISC_EEED2Ev
FNDA:2656,_ZN9__gnu_cxx13new_allocatorISt3mapINSt7__cxx1112basic_stringIcSt11char_traitsIcESaIcEEEN8nlohmann10basic_jsonIS1_St6vectorS7_blmdSaNS8_14adl_serializerEEESt4lessIvESaISt4pairIKS7_SC_EEEED2Ev
FNDA:4,_ZN9__gnu_cxx13new_allocatorIN8nlohmann6detail20input_stream_adapterEED2Ev
FNDA:2,_ZN9__gnu_cxx13new_allocatorIPN8nlohmann10basic_jsonISt3mapSt6vectorNSt7__cxx1112basic_stringIcSt11char_traitsIcESaIcEEEblmdSaNS1_14adl_serializerEEEE8allocateEmPKv
FNDA:41168,_ZN9__gnu_cxx13new_allocatorISt13_Rb_tree_nodeISt4pairIKNSt7__cxx1112basic_stringIcSt11char_traitsIcESaIcEEEN8nlohmann10basic_jsonISt3mapSt6vectorS8_blmdSaNSA_14adl_serializerEEEEEE8allocateEmPKv
FNDA:11,_ZN9__gnu_cxx13new_allocatorIN8nlohmann10basic_jsonISt3mapSt6vectorNSt7__cxx1112basic_stringIcSt11char_traitsIcESaIcEEEblmdSaNS1_14adl_serializerEEEE8allocateEmPKv
FNDA:7,_ZN9__gnu_cxx13new_allocatorIcE8allocateEmPKv
FNDA:1,_ZN9__gnu_cxx13new_allocatorImE8allocateEmPKv
FNDA:1,_ZN9__gnu_cxx13new_allocatorISt23_Sp_counted_ptr_inplaceIN8nlohmann6detail20input_stream_adapterESaIS4_ELNS_12_Lock_policyE2EEE8allocateEmPKv
FNDA:33,_ZN9__gnu_cxx13new_allocatorIdE8allocateEmPKv
FNDA:22,_ZN9__gnu_cxx13new_allocatorIP6SensorE8allocateEmPKv
FNDA:5312,_ZN9__gnu_cxx13new_allocatorINSt7__cxx1112basic_stringIcSt11char_traitsIcESaIcEEEE8allocateEmPKv
FNDA:1,_ZN9__gnu_cxx13new_allocatorISt6vectorIN8nlohmann10basic_jsonISt3mapS1_NSt7__cxx1112basic_stringIcSt11char_traitsIcESaIcEEEblmdSaNS2_14adl_serializerEEESaISC_EEE8allocateEmPKv
FNDA:1328,_ZN9__gnu_cxx13new_allocatorISt3mapINSt7__cxx1112basic_stringIcSt11char_traitsIcESaIcEEEN8nlohmann10basic_jsonIS1_St6vectorS7_blmdSaNS8_14adl_serializerEEESt4lessIvESaISt4pairIKS7_SC_EEEE8allocateEmPKv
FNDA:41168,_ZN9__gnu_cxx13new_allocatorISt13_Rb_tree_nodeISt4pairIKNSt7__cxx1112basic_stringIcSt11char_traitsIcESaIcEEEN8nlohmann10basic_jsonISt3mapSt6vectorS8_blmdSaNSA_14adl_serializerEEEEEE10deallocateEPSH_m
FNDA:11,_ZN9__gnu_cxx13new_allocatorIN8nlohmann10basic_jsonISt3mapSt6vectorNSt7__cxx1112basic_stringIcSt11char_traitsIcESaIcEEEblmdSaNS1_14adl_serializerEEEE10deallocateEPSC_m
FNDA:1,_ZN9__gnu_cxx13new_allocatorISt23_Sp_counted_ptr_inplaceIN8nlohmann6detail20input_stream_adapterESaIS4_ELNS_12_Lock_policyE2EEE10deallocateEPS7_m
FNDA:1,_ZN9__gnu_cxx13new_allocatorImE10deallocateEPmm
FNDA:2,_ZN9__gnu_cxx13new_allocatorIPN8nlohmann10basic_jsonISt3mapSt6vectorNSt7__cxx1112basic_stringIcSt11char_traitsIcESaIcEEEblmdSaNS1_14adl_serializerEEEE10deallocateEPSD_m
FNDA:33,_ZN9__gnu_cxx13new_allocatorIdE10deallocateEPdm
FNDA:22,_ZN9__gnu_cxx13new_allocatorIP6SensorE10deallocateEPS2_m
FNDA:7,_ZN9__gnu_cxx13new_allocatorIcE10deallocateEPcm
FNDA:5312,_ZN9__gnu_cxx13new_allocatorINSt7__cxx1112basic_stringIcSt11char_traitsIcESaIcEEEE10deallocateEPS6_m
FNDA:1,_ZN9__gnu_cxx13new_allocatorISt6vectorIN8nlohmann10basic_jsonISt3mapS1_NSt7__cxx1112basic_stringIcSt11char_traitsIcESaIcEEEblmdSaNS2_14adl_serializerEEESaISC_EEE10deallocateEPSE_m
FNDA:1328,_ZN9__gnu_cxx13new_allocatorISt3mapINSt7__cxx1112basic_stringIcSt11char_traitsIcESaIcEEEN8nlohmann10basic_jsonIS1_St6vectorS7_blmdSaNS8_14adl_serializerEEESt4lessIvESaISt4pairIKS7_SC_EEEE10deallocateEPSJ_m
FNDA:6,_ZNK9__gnu_cxx13new_allocatorIPN8nlohmann10basic_jsonISt3mapSt6vectorNSt7__cxx1112basic_stringIcSt11char_traitsIcESaIcEEEblmdSaNS1_14adl_serializerEEEE8max_sizeEv
FNDA:41168,_ZNK9__gnu_cxx13new_allocatorISt13_Rb_tree_nodeISt4pairIKNSt7__cxx1112basic_stringIcSt11char_traitsIcESaIcEEEN8nlohmann10basic_jsonISt3mapSt6vectorS8_blmdSaNSA_14adl_serializerEEEEEE8max_sizeEv
FNDA:33,_ZNK9__gnu_cxx13new_allocatorIN8nlohmann10basic_jsonISt3mapSt6vectorNSt7__cxx1112basic_stringIcSt11char_traitsIcESaIcEEEblmdSaNS1_14adl_serializerEEEE8max_sizeEv
FNDA:3,_ZNK9__gnu_cxx13new_allocatorImE8max_sizeEv
FNDA:1,_ZNK9__gnu_cxx13new_allocatorISt23_Sp_counted_ptr_inplaceIN8nlohmann6detail20input_stream_adapterESaIS4_ELNS_12_Lock_policyE2EEE8max_sizeEv
FNDA:99,_ZNK9__gnu_cxx13new_allocatorIdE8max_sizeEv
FNDA:66,_ZNK9__gnu_cxx13new_allocatorIP6SensorE8max_sizeEv
FNDA:5312,_ZNK9__gnu_cxx13new_allocatorINSt7__cxx1112basic_stringIcSt11char_traitsIcESaIcEEEE8max_sizeEv
FNDA:1,_ZNK9__gnu_cxx13new_allocatorISt6vectorIN8nlohmann10basic_jsonISt3mapS1_NSt7__cxx1112basic_stringIcSt11char_traitsIcESaIcEEEblmdSaNS2_14adl_serializerEEESaISC_EEE8max_sizeEv
FNDA:1328,_ZNK9__gnu_cxx13new_allocatorISt3mapINSt7__cxx1112basic_stringIcSt11char_traitsIcESaIcEEEN8nlohmann10basic_jsonIS1_St6vectorS7_blmdSaNS8_14adl_serializerEEESt4lessIvESaISt4pairIKS7_SC_EEEE8max_sizeEv
FNDA:21,_ZNK9__gnu_cxx13new_allocatorIcE8max_sizeEv
FNDA:20584,_ZN9__gnu_cxx13new_allocatorISt13_Rb_tree_nodeISt4pairIKNSt7__cxx1112basic_stringIcSt11char_traitsIcESaIcEEEN8nlohmann10basic_jsonISt3mapSt6vectorS8_blmdSaNSA_14adl_serializerEEEEEE9constructISG_JRKSt21piecewise_construct_tSt5tupleIJRS9_EESN_IJEEEEEvPT_DpOT0_
FNDA:0,_ZN9__gnu_cxx13new_allocatorIN8nlohmann10basic_jsonISt3mapSt6vectorNSt7__cxx1112basic_stringIcSt11char_traitsIcESaIcEEEblmdSaNS1_14adl_serializerEEEE9constructISC_JSC_EEEvPT_DpOT0_
FNDA:665,_ZN9__gnu_cxx13new_allocatorIPN8nlohmann10basic_jsonISt3mapSt6vectorNSt7__cxx1112basic_stringIcSt11char_traitsIcESaIcEEEblmdSaNS1_14adl_serializerEEEE9constructISD_JSD_EEEvPT_DpOT0_
FNDA:664,_ZN9__gnu_cxx13new_allocatorIN8nlohmann10basic_jsonISt3mapSt6vectorNSt7__cxx1112basic_stringIcSt11char_traitsIcESaIcEEEblmdSaNS1_14adl_serializerEEEE9constructISC_JNS1_6detail7value_tEEEEvPT_DpOT0_
FNDA:0,_ZN9__gnu_cxx13new_allocatorIN8nlohmann10basic_jsonISt3mapSt6vectorNSt7__cxx1112basic_stringIcSt11char_traitsIcESaIcEEEblmdSaNS1_14adl_serializerEEEE9constructISC_JRSA_EEEvPT_DpOT0_
FNDA:0,_ZN9__gnu_cxx13new_allocatorIN8nlohmann10basic_jsonISt3mapSt6vectorNSt7__cxx1112basic_stringIcSt11char_traitsIcESaIcEEEblmdSaNS1_14adl_serializerEEEE9constructISC_JRdEEEvPT_DpOT0_
FNDA:0,_ZN9__gnu_cxx13new_allocatorIN8nlohmann10basic_jsonISt3mapSt6vectorNSt7__cxx1112basic_stringIcSt11char_traitsIcESaIcEEEblmdSaNS1_14adl_serializerEEEE9constructISC_JRmEEEvPT_DpOT0_
FNDA:0,_ZN9__gnu_cxx13new_allocatorIN8nlohmann10basic_jsonISt3mapSt6vectorNSt7__cxx1112basic_stringIcSt11char_traitsIcESaIcEEEblmdSaNS1_14adl_serializerEEEE9constructISC_JRlEEEvPT_DpOT0_
FNDA:0,_ZN9__gnu_cxx13new_allocatorIN8nlohmann10basic_jsonISt3mapSt6vectorNSt7__cxx1112basic_stringIcSt11char_traitsIcESaIcEEEblmdSaNS1_14adl_serializerEEEE9constructISC_JRbEEEvPT_DpOT0_
FNDA:0,_ZN9__gnu_cxx13new_allocatorIN8nlohmann10basic_jsonISt3mapSt6vectorNSt7__cxx1112basic_stringIcSt11char_traitsIcESaIcEEEblmdSaNS1_14adl_serializerEEEE9constructISC_JDnEEEvPT_DpOT0_
FNDA:0,_ZN9__gnu_cxx13new_allocatorIPN8nlohmann10basic_jsonISt3mapSt6vectorNSt7__cxx1112basic_stringIcSt11char_traitsIcESaIcEEEblmdSaNS1_14adl_serializerEEEE9constructISD_JRKSD_EEEvPT_DpOT0_
FNDA:20584,_ZN9__gnu_cxx13new_allocatorISt13_Rb_tree_nodeISt4pairIKNSt7__cxx1112basic_stringIcSt11char_traitsIcESaIcEEEN8nlohmann10basic_jsonISt3mapSt6vectorS8_blmdSaNSA_14adl_serializerEEEEEE9constructISG_JRKSG_EEEvPT_DpOT0_
FNDA:861394,_ZN9__gnu_cxx13new_allocatorIcE9constructIcJcEEEvPT_DpOT0_
FNDA:1,_ZN9__gnu_cxx13new_allocatorIN8nlohmann6detail20input_stream_adapterEE9constructIS3_JRSiEEEvPT_DpOT0_
FNDA:0,_ZN9__gnu_cxx13new_allocatorINSt7__cxx1112basic_stringIcSt11char_traitsIcESaIcEEEE9constructIS6_JRA1_KcEEEvPT_DpOT0_
FNDA:1,_ZN9__gnu_cxx13new_allocatorISt6vectorIN8nlohmann10basic_jsonISt3mapS1_NSt7__cxx1112basic_stringIcSt11char_traitsIcESaIcEEEblmdSaNS2_14adl_serializerEEESaISC_EEE9constructISE_JEEEvPT_DpOT0_
FNDA:664,_ZN9__gnu_cxx13new_allocatorISt3mapINSt7__cxx1112basic_stringIcSt11char_traitsIcESaIcEEEN8nlohmann10basic_jsonIS1_St6vectorS7_blmdSaNS8_14adl_serializerEEESt4lessIvESaISt4pairIKS7_SC_EEEE9constructISJ_JEEEvPT_DpOT0_
FNDA:0,_ZN9__gnu_cxx13new_allocatorISt6vectorIN8nlohmann10basic_jsonISt3mapS1_NSt7__cxx1112basic_stringIcSt11char_traitsIcESaIcEEEblmdSaNS2_14adl_serializerEEESaISC_EEE9constructISE_JRKSE_EEEvPT_DpOT0_
FNDA:664,_ZN9__gnu_cxx13new_allocatorISt3mapINSt7__cxx1112basic_stringIcSt11char_traitsIcESaIcEEEN8nlohmann10basic_jsonIS1_St6vectorS7_blmdSaNS8_14adl_serializerEEESt4lessIvESaISt4pairIKS7_SC_EEEE9constructISJ_JRKSJ_EEEvPT_DpOT0_
FNDA:5312,_ZN9__gnu_cxx13new_allocatorINSt7__cxx1112basic_stringIcSt11char_traitsIcESaIcEEEE9constructIS6_JRKS6_EEEvPT_DpOT0_
FNDA:1992,_ZN9__gnu_cxx13new_allocatorIdE9constructIdJdEEEvPT_DpOT0_
FNDA:1328,_ZN9__gnu_cxx13new_allocatorIP6SensorE9constructIS2_JS2_EEEvPT_DpOT0_
FNDA:0,_ZN9__gnu_cxx13new_allocatorIN8nlohmann10basic_jsonISt3mapSt6vectorNSt7__cxx1112basic_stringIcSt11char_traitsIcESaIcEEEblmdSaNS1_14adl_serializerEEEE7destroyISC_EEvPT_
FNDA:665,_ZN9__gnu_cxx13new_allocatorIPN8nlohmann10basic_jsonISt3mapSt6vectorNSt7__cxx1112basic_stringIcSt11char_traitsIcESaIcEEEblmdSaNS1_14adl_serializerEEEE7destroyISD_EEvPT_
FNDA:1,_ZN9__gnu_cxx13new_allocatorIN8nlohmann6detail20input_stream_adapterEE7destroyIS3_EEvPT_
FNDA:41168,_ZN9__gnu_cxx13new_allocatorISt13_Rb_tree_nodeISt4pairIKNSt7__cxx1112basic_stringIcSt11char_traitsIcESaIcEEEN8nlohmann10basic_jsonISt3mapSt6vectorS8_blmdSaNSA_14adl_serializerEEEEEE7destroyISG_EEvPT_
FNDA:17929,_ZN9__gnu_cxx13new_allocatorIcE7destroyIcEEvPT_
FNDA:0,_ZN9__gnu_cxx13new_allocatorIdE7destroyIdEEvPT_
FNDA:0,_ZN9__gnu_cxx13new_allocatorIP6SensorE7destroyIS2_EEvPT_
FNDA:5312,_ZN9__gnu_cxx13new_allocatorINSt7__cxx1112basic_stringIcSt11char_traitsIcESaIcEEEE7destroyIS6_EEvPT_
FNDA:1,_ZN9__gnu_cxx13new_allocatorISt6vectorIN8nlohmann10basic_jsonISt3mapS1_NSt7__cxx1112basic_stringIcSt11char_traitsIcESaIcEEEblmdSaNS2_14adl_serializerEEESaISC_EEE7destroyISE_EEvPT_
FNDA:1328,_ZN9__gnu_cxx13new_allocatorISt3mapINSt7__cxx1112basic_stringIcSt11char_traitsIcESaIcEEEN8nlohmann10basic_jsonIS1_St6vectorS7_blmdSaNS8_14adl_serializerEEESt4lessIvESaISt4pairIKS7_SC_EEEE7destroyISJ_EEvPT_
FNF:90
FNH:76
DA:79,13957
DA:81,667
DA:86,14624
DA:99,47886
DA:101,47886
DA:102,0
DA:111,47886
DA:116,47886
DA:125,47886
DA:126,47886
DA:129,48038
DA:130,48038
DA:135,913853
DA:136,913853
DA:140,66404
LF:15
LH:14
end_of_record
SF:/usr/include/c++/7/ext/string_conversions.h
FN:99,_ZN9__gnu_cxx12__to_xstringINSt7__cxx1112basic_stringIcSt11char_traitsIcESaIcEEEcEET_PFiPT0_mPKS8_P13__va_list_tagEmSB_z
FNDA:0,_ZN9__gnu_cxx12__to_xstringINSt7__cxx1112basic_stringIcSt11char_traitsIcESaIcEEEcEET_PFiPT0_mPKS8_P13__va_list_tagEmSB_z
FNF:1
FNH:0
DA:99,0
DA:105,0
DA:109,0
DA:111,0
DA:113,0
DA:115,0
LF:6
LH:0
end_of_record
SF:/usr/include/c++/7/ext/type_traits.h
FN:152,_ZN9__gnu_cxx17__is_null_pointerIcEEbPT_
FNDA:49136,_ZN9__gnu_cxx17__is_null_pointerIcEEbPT_
FNF:1
FNH:1
DA:152,49136
DA:153,49136
LF:2
LH:2
end_of_record
SF:/usr/include/c++/7/initializer_list
FN:71,_ZNKSt16initializer_listIiE4sizeEv
FN:71,_ZNKSt16initializer_listIKiE4sizeEv
FN:75,_ZNKSt16initializer_listIiE5beginEv
FN:75,_ZNKSt16initializer_listIKiE5beginEv
FN:79,_ZNKSt16initializer_listIKiE3endEv
FN:79,_ZNKSt16initializer_listIiE3endEv
FNDA:0,_ZNKSt16initializer_listIKiE4sizeEv
FNDA:31872,_ZNKSt16initializer_listIiE4sizeEv
FNDA:0,_ZNKSt16initializer_listIKiE5beginEv
FNDA:31872,_ZNKSt16initializer_listIiE5beginEv
FNDA:0,_ZNKSt16initializer_listIKiE3endEv
FNDA:21248,_ZNKSt16initializer_listIiE3endEv
FNF:6
FNH:3
DA:71,31872
DA:75,31872
DA:79,21248
LF:3
LH:3
end_of_record
SF:/usr/include/c++/7/iostream
DA:74,1
LF:1
LH:1
end_of_record
SF:/usr/include/c++/7/limits
FN:1138,_ZNSt14numeric_limitsIlE3minEv
FNDA:7970,_ZNSt14numeric_limitsIlE3minEv
FNF:1
FNH:1
DA:1138,7970
LF:1
LH:1
end_of_record
SF:/usr/include/c++/7/new
FN:168,_ZnwmPv
FN:174,_ZdlPvS_
FNDA:956057,_ZnwmPv
FNDA:0,_ZdlPvS_
FNF:2
FNH:1
DA:168,956057
DA:169,956057
DA:174,0
LF:3
LH:2
end_of_record
SF:/usr/include/c++/7/tuple
FN:125,_ZNSt10_Head_baseILm1EZN8nlohmann10basic_jsonISt3mapSt6vectorNSt7__cxx1112basic_stringIcSt11char_traitsIcESaIcEEEblmdSaNS0_14adl_serializerEE6createIS2_IS9_SB_St4lessIvESaISt4pairIKS9_SB_EEEJEEEPT_DpOT0_EUlPSJ_E_Lb0EEC2ERKSQ_
FN:125,_ZNSt10_Head_baseILm0ERKNSt7__cxx1112basic_stringIcSt11char_traitsIcESaIcEEELb0EEC2ES7_
FN:125,_ZNSt10_Head_baseILm1EZN8nlohmann10basic_jsonISt3mapSt6vectorNSt7__cxx1112basic_stringIcSt11char_traitsIcESaIcEEEblmdSaNS0_14adl_serializerEE6createIS9_JRA1_KcEEEPT_DpOT0_EUlPS9_E_Lb0EEC2ERKSM_
FN:125,_ZNSt10_Head_baseILm1EZN8nlohmann10basic_jsonISt3mapSt6vectorNSt7__cxx1112basic_stringIcSt11char_traitsIcESaIcEEEblmdSaNS0_14adl_serializerEE6createIS3_ISB_SaISB_EEJEEEPT_DpOT0_EUlPSE_E_Lb0EEC2ERKSL_
FN:125,_ZNSt10_Head_baseILm1EZN8nlohmann10basic_jsonISt3mapSt6vectorNSt7__cxx1112basic_stringIcSt11char_traitsIcESaIcEEEblmdSaNS0_14adl_serializerEE6createIS9_JRKS9_EEEPT_DpOT0_EUlPS9_E_Lb0EEC2ERKSL_
FN:125,_ZNSt10_Head_baseILm1EZN8nlohmann10basic_jsonISt3mapSt6vectorNSt7__cxx1112basic_stringIcSt11char_traitsIcESaIcEEEblmdSaNS0_14adl_serializerEE6createIS2_IS9_SB_St4lessIvESaISt4pairIKS9_SB_EEEJRKSJ_EEEPT_DpOT0_EUlPSJ_E_Lb0EEC2ERKSS_
FN:125,_ZNSt10_Head_baseILm1EZN8nlohmann10basic_jsonISt3mapSt6vectorNSt7__cxx1112basic_stringIcSt11char_traitsIcESaIcEEEblmdSaNS0_14adl_serializerEE6createIS3_ISB_SaISB_EEJRKSE_EEEPT_DpOT0_EUlPSE_E_Lb0EEC2ERKSN_
FN:132,_ZNSt10_Head_baseILm0EPNSt7__cxx1112basic_stringIcSt11char_traitsIcESaIcEEELb0EEC2IRS6_EEOT_
FN:132,_ZNSt10_Head_baseILm0EPSt6vectorIN8nlohmann10basic_jsonISt3mapS0_NSt7__cxx1112basic_stringIcSt11char_traitsIcESaIcEEEblmdSaNS1_14adl_serializerEEESaISB_EELb0EEC2IRSE_EEOT_
FN:132,_ZNSt10_Head_baseILm0EPSt3mapINSt7__cxx1112basic_stringIcSt11char_traitsIcESaIcEEEN8nlohmann10basic_jsonIS0_St6vectorS6_blmdSaNS7_14adl_serializerEEESt4lessIvESaISt4pairIKS6_SB_EEELb0EEC2IRSJ_EEOT_
FN:160,_ZNSt10_Head_baseILm1EZN8nlohmann10basic_jsonISt3mapSt6vectorNSt7__cxx1112basic_stringIcSt11char_traitsIcESaIcEEEblmdSaNS0_14adl_serializerEE6createIS3_ISB_SaISB_EEJEEEPT_DpOT0_EUlPSE_E_Lb0EE7_M_headERSM_
FN:160,_ZNSt10_Head_baseILm1EZN8nlohmann10basic_jsonISt3mapSt6vectorNSt7__cxx1112basic_stringIcSt11char_traitsIcESaIcEEEblmdSaNS0_14adl_serializerEE6createIS9_JRA1_KcEEEPT_DpOT0_EUlPS9_E_Lb0EE7_M_headERSN_
FN:160,_ZNSt10_Head_baseILm0ERKNSt7__cxx1112basic_stringIcSt11char_traitsIcESaIcEEELb0EE7_M_headERS8_
FN:160,_ZNSt10_Head_baseILm0EPNSt7__cxx1112basic_stringIcSt11char_traitsIcESaIcEEELb0EE7_M_headERS7_
FN:160,_ZNSt10_Head_baseILm0EPSt3mapINSt7__cxx1112basic_stringIcSt11char_traitsIcESaIcEEEN8nlohmann10basic_jsonIS0_St6vectorS6_blmdSaNS7_14adl_serializerEEESt4lessIvESaISt4pairIKS6_SB_EEELb0EE7_M_headERSK_
FN:160,_ZNSt10_Head_baseILm1EZN8nlohmann10basic_jsonISt3mapSt6vectorNSt7__cxx1112basic_stringIcSt11char_traitsIcESaIcEEEblmdSaNS0_14adl_serializerEE6createIS2_IS9_SB_St4lessIvESaISt4pairIKS9_SB_EEEJRKSJ_EEEPT_DpOT0_EUlPSJ_E_Lb0EE7_M_headERST_
FN:160,_ZNSt10_Head_baseILm1EZN8nlohmann10basic_jsonISt3mapSt6vectorNSt7__cxx1112basic_stringIcSt11char_traitsIcESaIcEEEblmdSaNS0_14adl_serializerEE6createIS3_ISB_SaISB_EEJRKSE_EEEPT_DpOT0_EUlPSE_E_Lb0EE7_M_headERSO_
FN:160,_ZNSt10_Head_baseILm0EPSt6vectorIN8nlohmann10basic_jsonISt3mapS0_NSt7__cxx1112basic_stringIcSt11char_traitsIcESaIcEEEblmdSaNS1_14adl_serializerEEESaISB_EELb0EE7_M_headERSF_
FN:160,_ZNSt10_Head_baseILm1EZN8nlohmann10basic_jsonISt3mapSt6vectorNSt7__cxx1112basic_stringIcSt11char_traitsIcESaIcEEEblmdSaNS0_14adl_serializerEE6createIS2_IS9_SB_St4lessIvESaISt4pairIKS9_SB_EEEJEEEPT_DpOT0_EUlPSJ_E_Lb0EE7_M_headERSR_
FN:160,_ZNSt10_Head_baseILm1EZN8nlohmann10basic_jsonISt3mapSt6vectorNSt7__cxx1112basic_stringIcSt11char_traitsIcESaIcEEEblmdSaNS0_14adl_serializerEE6createIS9_JRKS9_EEEPT_DpOT0_EUlPS9_E_Lb0EE7_M_headERSM_
FN:163,_ZNSt10_Head_baseILm0EPSt3mapINSt7__cxx1112basic_stringIcSt11char_traitsIcESaIcEEEN8nlohmann10basic_jsonIS0_St6vectorS6_blmdSaNS7_14adl_serializerEEESt4lessIvESaISt4pairIKS6_SB_EEELb0EE7_M_headERKSK_
FN:163,_ZNSt10_Head_baseILm0EPNSt7__cxx1112basic_stringIcSt11char_traitsIcESaIcEEELb0EE7_M_headERKS7_
FN:163,_ZNSt10_Head_baseILm0EPSt6vectorIN8nlohmann10basic_jsonISt3mapS0_NSt7__cxx1112basic_stringIcSt11char_traitsIcESaIcEEEblmdSaNS1_14adl_serializerEEESaISB_EELb0EE7_M_headERKSF_
FN:195,_ZNSt11_Tuple_implILm0EJPSt3mapINSt7__cxx1112basic_stringIcSt11char_traitsIcESaIcEEEN8nlohmann10basic_jsonIS0_St6vectorS6_blmdSaNS7_14adl_serializerEEESt4lessIvESaISt4pairIKS6_SB_EEEZNSB_6createISI_JEEEPT_DpOT0_EUlSJ_E_EE7_M_headERSR_
FN:195,_ZNSt11_Tuple_implILm0EJPSt3mapINSt7__cxx1112basic_stringIcSt11char_traitsIcESaIcEEEN8nlohmann10basic_jsonIS0_St6vectorS6_blmdSaNS7_14adl_serializerEEESt4lessIvESaISt4pairIKS6_SB_EEEZNSB_6createISI_JRKSI_EEEPT_DpOT0_EUlSJ_E_EE7_M_headERST_
FN:195,_ZNSt11_Tuple_implILm0EJPSt6vectorIN8nlohmann10basic_jsonISt3mapS0_NSt7__cxx1112basic_stringIcSt11char_traitsIcESaIcEEEblmdSaNS1_14adl_serializerEEESaISB_EEZNSB_6createISD_JEEEPT_DpOT0_EUlSE_E_EE7_M_headERSM_
FN:195,_ZNSt11_Tuple_implILm0EJPNSt7__cxx1112basic_stringIcSt11char_traitsIcESaIcEEEZN8nlohmann10basic_jsonISt3mapSt6vectorS5_blmdSaNS7_14adl_serializerEE6createIS5_JRA1_KcEEEPT_DpOT0_EUlS6_E_EE7_M_headERSN_
FN:195,_ZNSt11_Tuple_implILm0EJPNSt7__cxx1112basic_stringIcSt11char_traitsIcESaIcEEEZN8nlohmann10basic_jsonISt3mapSt6vectorS5_blmdSaNS7_14adl_serializerEE6createIS5_JRKS5_EEEPT_DpOT0_EUlS6_E_EE7_M_headERSM_
FN:195,_ZNSt11_Tuple_implILm0EJPSt6vectorIN8nlohmann10basic_jsonISt3mapS0_NSt7__cxx1112basic_stringIcSt11char_traitsIcESaIcEEEblmdSaNS1_14adl_serializerEEESaISB_EEZNSB_6createISD_JRKSD_EEEPT_DpOT0_EUlSE_E_EE7_M_headERSO_
FN:198,_ZNSt11_Tuple_implILm0EJPSt3mapINSt7__cxx1112basic_stringIcSt11char_traitsIcESaIcEEEN8nlohmann10basic_jsonIS0_St6vectorS6_blmdSaNS7_14adl_serializerEEESt4lessIvESaISt4pairIKS6_SB_EEEZNSB_6createISI_JEEEPT_DpOT0_EUlSJ_E_EE7_M_headERKSR_
FN:198,_ZNSt11_Tuple_implILm0EJPSt3mapINSt7__cxx1112basic_stringIcSt11char_traitsIcESaIcEEEN8nlohmann10basic_jsonIS0_St6vectorS6_blmdSaNS7_14adl_serializerEEESt4lessIvESaISt4pairIKS6_SB_EEEZNSB_6createISI_JRKSI_EEEPT_DpOT0_EUlSJ_E_EE7_M_headERKST_
FN:198,_ZNSt11_Tuple_implILm0EJPSt6vectorIN8nlohmann10basic_jsonISt3mapS0_NSt7__cxx1112basic_stringIcSt11char_traitsIcESaIcEEEblmdSaNS1_14adl_serializerEEESaISB_EEZNSB_6createISD_JRKSD_EEEPT_DpOT0_EUlSE_E_EE7_M_headERKSO_
FN:198,_ZNSt11_Tuple_implILm0EJPNSt7__cxx1112basic_stringIcSt11char_traitsIcESaIcEEEZN8nlohmann10basic_jsonISt3mapSt6vectorS5_blmdSaNS7_14adl_serializerEE6createIS5_JRA1_KcEEEPT_DpOT0_EUlS6_E_EE7_M_headERKSN_
FN:198,_ZNSt11_Tuple_implILm0EJPSt6vectorIN8nlohmann10basic_jsonISt3mapS0_NSt7__cxx1112basic_stringIcSt11char_traitsIcESaIcEEEblmdSaNS1_14adl_serializerEEESaISB_EEZNSB_6createISD_JEEEPT_DpOT0_EUlSE_E_EE7_M_headERKSM_
FN:198,_ZNSt11_Tuple_implILm0EJPNSt7__cxx1112basic_stringIcSt11char_traitsIcESaIcEEEZN8nlohmann10basic_jsonISt3mapSt6vectorS5_blmdSaNS7_14adl_serializerEE6createIS5_JRKS5_EEEPT_DpOT0_EUlS6_E_EE7_M_headERKSM_
FN:216,_ZNSt11_Tuple_implILm0EJPSt6vectorIN8nlohmann10basic_jsonISt3mapS0_NSt7__cxx1112basic_stringIcSt11char_traitsIcESaIcEEEblmdSaNS1_14adl_serializerEEESaISB_EEZNSB_6createISD_JEEEPT_DpOT0_EUlSE_E_EEC2IRSE_JRKSL_EvEEOSG_SK_
FN:216,_ZNSt11_Tuple_implILm0EJPNSt7__cxx1112basic_stringIcSt11char_traitsIcESaIcEEEZN8nlohmann10basic_jsonISt3mapSt6vectorS5_blmdSaNS7_14adl_serializerEE6createIS5_JRA1_KcEEEPT_DpOT0_EUlS6_E_EEC2IRS6_JRKSM_EvEEOSH_SL_
FN:216,_ZNSt11_Tuple_implILm0EJPSt3mapINSt7__cxx1112basic_stringIcSt11char_traitsIcESaIcEEEN8nlohmann10basic_jsonIS0_St6vectorS6_blmdSaNS7_14adl_serializerEEESt4lessIvESaISt4pairIKS6_SB_EEEZNSB_6createISI_JEEEPT_DpOT0_EUlSJ_E_EEC2IRSJ_JRKSQ_EvEEOSL_SP_
FN:216,_ZNSt11_Tuple_implILm0EJPSt3mapINSt7__cxx1112basic_stringIcSt11char_traitsIcESaIcEEEN8nlohmann10basic_jsonIS0_St6vectorS6_blmdSaNS7_14adl_serializerEEESt4lessIvESaISt4pairIKS6_SB_EEEZNSB_6createISI_JRKSI_EEEPT_DpOT0_EUlSJ_E_EEC2IRSJ_JRKSS_EvEEOSN_SR_
FN:216,_ZNSt11_Tuple_implILm0EJPSt6vectorIN8nlohmann10basic_jsonISt3mapS0_NSt7__cxx1112basic_stringIcSt11char_traitsIcESaIcEEEblmdSaNS1_14adl_serializerEEESaISB_EEZNSB_6createISD_JRKSD_EEEPT_DpOT0_EUlSE_E_EEC2IRSE_JRKSN_EvEEOSI_SM_
FN:216,_ZNSt11_Tuple_implILm0EJPNSt7__cxx1112basic_stringIcSt11char_traitsIcESaIcEEEZN8nlohmann10basic_jsonISt3mapSt6vectorS5_blmdSaNS7_14adl_serializerEE6createIS5_JRKS5_EEEPT_DpOT0_EUlS6_E_EEC2IRS6_JRKSL_EvEEOSG_SK_
FN:351,_ZNSt11_Tuple_implILm1EJZN8nlohmann10basic_jsonISt3mapSt6vectorNSt7__cxx1112basic_stringIcSt11char_traitsIcESaIcEEEblmdSaNS0_14adl_serializerEE6createIS3_ISB_SaISB_EEJRKSE_EEEPT_DpOT0_EUlPSE_E_EE7_M_headERSO_
FN:351,_ZNSt11_Tuple_implILm1EJZN8nlohmann10basic_jsonISt3mapSt6vectorNSt7__cxx1112basic_stringIcSt11char_traitsIcESaIcEEEblmdSaNS0_14adl_serializerEE6createIS9_JRKS9_EEEPT_DpOT0_EUlPS9_E_EE7_M_headERSM_
FN:351,_ZNSt11_Tuple_implILm1EJZN8nlohmann10basic_jsonISt3mapSt6vectorNSt7__cxx1112basic_stringIcSt11char_traitsIcESaIcEEEblmdSaNS0_14adl_serializerEE6createIS2_IS9_SB_St4lessIvESaISt4pairIKS9_SB_EEEJRKSJ_EEEPT_DpOT0_EUlPSJ_E_EE7_M_headERST_
FN:351,_ZNSt11_Tuple_implILm0EJRKNSt7__cxx1112basic_stringIcSt11char_traitsIcESaIcEEEEE7_M_headERS8_
FN:351,_ZNSt11_Tuple_implILm1EJZN8nlohmann10basic_jsonISt3mapSt6vectorNSt7__cxx1112basic_stringIcSt11char_traitsIcESaIcEEEblmdSaNS0_14adl_serializerEE6createIS2_IS9_SB_St4lessIvESaISt4pairIKS9_SB_EEEJEEEPT_DpOT0_EUlPSJ_E_EE7_M_headERSR_
FN:351,_ZNSt11_Tuple_implILm1EJZN8nlohmann10basic_jsonISt3mapSt6vectorNSt7__cxx1112basic_stringIcSt11char_traitsIcESaIcEEEblmdSaNS0_14adl_serializerEE6createIS9_JRA1_KcEEEPT_DpOT0_EUlPS9_E_EE7_M_headERSN_
FN:351,_ZNSt11_Tuple_implILm1EJZN8nlohmann10basic_jsonISt3mapSt6vectorNSt7__cxx1112basic_stringIcSt11char_traitsIcESaIcEEEblmdSaNS0_14adl_serializerEE6createIS3_ISB_SaISB_EEJEEEPT_DpOT0_EUlPSE_E_EE7_M_headERSM_
FN:360,_ZNSt11_Tuple_implILm0EJRKNSt7__cxx1112basic_stringIcSt11char_traitsIcESaIcEEEEEC2ES7_
FN:360,_ZNSt11_Tuple_implILm1EJZN8nlohmann10basic_jsonISt3mapSt6vectorNSt7__cxx1112basic_stringIcSt11char_traitsIcESaIcEEEblmdSaNS0_14adl_serializerEE6createIS9_JRKS9_EEEPT_DpOT0_EUlPS9_E_EEC2ERKSL_
FN:360,_ZNSt11_Tuple_implILm1EJZN8nlohmann10basic_jsonISt3mapSt6vectorNSt7__cxx1112basic_stringIcSt11char_traitsIcESaIcEEEblmdSaNS0_14adl_serializerEE6createIS2_IS9_SB_St4lessIvESaISt4pairIKS9_SB_EEEJEEEPT_DpOT0_EUlPSJ_E_EEC2ERKSQ_
FN:360,_ZNSt11_Tuple_implILm1EJZN8nlohmann10basic_jsonISt3mapSt6vectorNSt7__cxx1112basic_stringIcSt11char_traitsIcESaIcEEEblmdSaNS0_14adl_serializerEE6createIS2_IS9_SB_St4lessIvESaISt4pairIKS9_SB_EEEJRKSJ_EEEPT_DpOT0_EUlPSJ_E_EEC2ERKSS_
FN:360,_ZNSt11_Tuple_implILm1EJZN8nlohmann10basic_jsonISt3mapSt6vectorNSt7__cxx1112basic_stringIcSt11char_traitsIcESaIcEEEblmdSaNS0_14adl_serializerEE6createIS3_ISB_SaISB_EEJRKSE_EEEPT_DpOT0_EUlPSE_E_EEC2ERKSN_
FN:360,_ZNSt11_Tuple_implILm1EJZN8nlohmann10basic_jsonISt3mapSt6vectorNSt7__cxx1112basic_stringIcSt11char_traitsIcESaIcEEEblmdSaNS0_14adl_serializerEE6createIS3_ISB_SaISB_EEJEEEPT_DpOT0_EUlPSE_E_EEC2ERKSL_
FN:360,_ZNSt11_Tuple_implILm1EJZN8nlohmann10basic_jsonISt3mapSt6vectorNSt7__cxx1112basic_stringIcSt11char_traitsIcESaIcEEEblmdSaNS0_14adl_serializerEE6createIS9_JRA1_KcEEEPT_DpOT0_EUlPS9_E_EEC2ERKSM_
FN:371,_ZNSt11_Tuple_implILm0EJRKNSt7__cxx1112basic_stringIcSt11char_traitsIcESaIcEEEEEC2EOS8_
FN:608,_ZNSt5tupleIJRKNSt7__cxx1112basic_stringIcSt11char_traitsIcESaIcEEEEEC2IvLb1EEES7_
FN:662,_ZNSt5tupleIJRKNSt7__cxx1112basic_stringIcSt11char_traitsIcESaIcEEEEEC2EOS8_
FN:971,_ZNSt5tupleIJPNSt7__cxx1112basic_stringIcSt11char_traitsIcESaIcEEEZN8nlohmann10basic_jsonISt3mapSt6vectorS5_blmdSaNS7_14adl_serializerEE6createIS5_JRA1_KcEEEPT_DpOT0_EUlS6_E_EEC2IRS6_RKSM_Lb1EEEOSH_OT0_
FN:971,_ZNSt5tupleIJPSt3mapINSt7__cxx1112basic_stringIcSt11char_traitsIcESaIcEEEN8nlohmann10basic_jsonIS0_St6vectorS6_blmdSaNS7_14adl_serializerEEESt4lessIvESaISt4pairIKS6_SB_EEEZNSB_6createISI_JEEEPT_DpOT0_EUlSJ_E_EEC2IRSJ_RKSQ_Lb1EEEOSL_OT0_
FN:971,_ZNSt5tupleIJPSt6vectorIN8nlohmann10basic_jsonISt3mapS0_NSt7__cxx1112basic_stringIcSt11char_traitsIcESaIcEEEblmdSaNS1_14adl_serializerEEESaISB_EEZNSB_6createISD_JEEEPT_DpOT0_EUlSE_E_EEC2IRSE_RKSL_Lb1EEEOSG_OT0_
FN:971,_ZNSt5tupleIJPNSt7__cxx1112basic_stringIcSt11char_traitsIcESaIcEEEZN8nlohmann10basic_jsonISt3mapSt6vectorS5_blmdSaNS7_14adl_serializerEE6createIS5_JRKS5_EEEPT_DpOT0_EUlS6_E_EEC2IRS6_RKSL_Lb1EEEOSG_OT0_
FN:971,_ZNSt5tupleIJPSt6vectorIN8nlohmann10basic_jsonISt3mapS0_NSt7__cxx1112basic_stringIcSt11char_traitsIcESaIcEEEblmdSaNS1_14adl_serializerEEESaISB_EEZNSB_6createISD_JRKSD_EEEPT_DpOT0_EUlSE_E_EEC2IRSE_RKSN_Lb1EEEOSI_OT0_
FN:971,_ZNSt5tupleIJPSt3mapINSt7__cxx1112basic_stringIcSt11char_traitsIcESaIcEEEN8nlohmann10basic_jsonIS0_St6vectorS6_blmdSaNS7_14adl_serializerEEESt4lessIvESaISt4pairIKS6_SB_EEEZNSB_6createISI_JRKSI_EEEPT_DpOT0_EUlSJ_E_EEC2IRSJ_RKSS_Lb1EEEOSN_OT0_
FN:1303,_ZSt12__get_helperILm0EPNSt7__cxx1112basic_stringIcSt11char_traitsIcESaIcEEEJZN8nlohmann10basic_jsonISt3mapSt6vectorS5_blmdSaNS7_14adl_serializerEE6createIS5_JRKS5_EEEPT_DpOT0_EUlS6_E_EERT0_RSt11_Tuple_implIXT_EJSM_DpT1_EE
FN:1303,_ZSt12__get_helperILm0ERKNSt7__cxx1112basic_stringIcSt11char_traitsIcESaIcEEEJEERT0_RSt11_Tuple_implIXT_EJS8_DpT1_EE
FN:1303,_ZSt12__get_helperILm0EPSt3mapINSt7__cxx1112basic_stringIcSt11char_traitsIcESaIcEEEN8nlohmann10basic_jsonIS0_St6vectorS6_blmdSaNS7_14adl_serializerEEESt4lessIvESaISt4pairIKS6_SB_EEEJZNSB_6createISI_JRKSI_EEEPT_DpOT0_EUlSJ_E_EERT0_RSt11_Tuple_implIXT_EJST_DpT1_EE
FN:1303,_ZSt12__get_helperILm1EZN8nlohmann10basic_jsonISt3mapSt6vectorNSt7__cxx1112basic_stringIcSt11char_traitsIcESaIcEEEblmdSaNS0_14adl_serializerEE6createIS9_JRKS9_EEEPT_DpOT0_EUlPS9_E_JEERT0_RSt11_Tuple_implIXT_EJSM_DpT1_EE
FN:1303,_ZSt12__get_helperILm1EZN8nlohmann10basic_jsonISt3mapSt6vectorNSt7__cxx1112basic_stringIcSt11char_traitsIcESaIcEEEblmdSaNS0_14adl_serializerEE6createIS9_JRA1_KcEEEPT_DpOT0_EUlPS9_E_JEERT0_RSt11_Tuple_implIXT_EJSN_DpT1_EE
FN:1303,_ZSt12__get_helperILm0EPNSt7__cxx1112basic_stringIcSt11char_traitsIcESaIcEEEJZN8nlohmann10basic_jsonISt3mapSt6vectorS5_blmdSaNS7_14adl_serializerEE6createIS5_JRA1_KcEEEPT_DpOT0_EUlS6_E_EERT0_RSt11_Tuple_implIXT_EJSN_DpT1_EE
FN:1303,_ZSt12__get_helperILm0EPSt6vectorIN8nlohmann10basic_jsonISt3mapS0_NSt7__cxx1112basic_stringIcSt11char_traitsIcESaIcEEEblmdSaNS1_14adl_serializerEEESaISB_EEJZNSB_6createISD_JEEEPT_DpOT0_EUlSE_E_EERT0_RSt11_Tuple_implIXT_EJSM_DpT1_EE
FN:1303,_ZSt12__get_helperILm0EPSt6vectorIN8nlohmann10basic_jsonISt3mapS0_NSt7__cxx1112basic_stringIcSt11char_traitsIcESaIcEEEblmdSaNS1_14adl_serializerEEESaISB_EEJZNSB_6createISD_JRKSD_EEEPT_DpOT0_EUlSE_E_EERT0_RSt11_Tuple_implIXT_EJSO_DpT1_EE
FN:1303,_ZSt12__get_helperILm1EZN8nlohmann10basic_jsonISt3mapSt6vectorNSt7__cxx1112basic_stringIcSt11char_traitsIcESaIcEEEblmdSaNS0_14adl_serializerEE6createIS3_ISB_SaISB_EEJRKSE_EEEPT_DpOT0_EUlPSE_E_JEERT0_RSt11_Tuple_implIXT_EJSO_DpT1_EE
FN:1303,_ZSt12__get_helperILm1EZN8nlohmann10basic_jsonISt3mapSt6vectorNSt7__cxx1112basic_stringIcSt11char_traitsIcESaIcEEEblmdSaNS0_14adl_serializerEE6createIS2_IS9_SB_St4lessIvESaISt4pairIKS9_SB_EEEJEEEPT_DpOT0_EUlPSJ_E_JEERT0_RSt11_Tuple_implIXT_EJSR_DpT1_EE
FN:1303,_ZSt12__get_helperILm1EZN8nlohmann10basic_jsonISt3mapSt6vectorNSt7__cxx1112basic_stringIcSt11char_traitsIcESaIcEEEblmdSaNS0_14adl_serializerEE6createIS3_ISB_SaISB_EEJEEEPT_DpOT0_EUlPSE_E_JEERT0_RSt11_Tuple_implIXT_EJSM_DpT1_EE
FN:1303,_ZSt12__get_helperILm0EPSt3mapINSt7__cxx1112basic_stringIcSt11char_traitsIcESaIcEEEN8nlohmann10basic_jsonIS0_St6vectorS6_blmdSaNS7_14adl_serializerEEESt4lessIvESaISt4pairIKS6_SB_EEEJZNSB_6createISI_JEEEPT_DpOT0_EUlSJ_E_EERT0_RSt11_Tuple_implIXT_EJSR_DpT1_EE
FN:1303,_ZSt12__get_helperILm1EZN8nlohmann10basic_jsonISt3mapSt6vectorNSt7__cxx1112basic_stringIcSt11char_traitsIcESaIcEEEblmdSaNS0_14adl_serializerEE6createIS2_IS9_SB_St4lessIvESaISt4pairIKS9_SB_EEEJRKSJ_EEEPT_DpOT0_EUlPSJ_E_JEERT0_RSt11_Tuple_implIXT_EJST_DpT1_EE
FN:1308,_ZSt12__get_helperILm0EPNSt7__cxx1112basic_stringIcSt11char_traitsIcESaIcEEEJZN8nlohmann10basic_jsonISt3mapSt6vectorS5_blmdSaNS7_14adl_serializerEE6createIS5_JRA1_KcEEEPT_DpOT0_EUlS6_E_EERKT0_RKSt11_Tuple_implIXT_EJSN_DpT1_EE
FN:1308,_ZSt12__get_helperILm0EPSt6vectorIN8nlohmann10basic_jsonISt3mapS0_NSt7__cxx1112basic_stringIcSt11char_traitsIcESaIcEEEblmdSaNS1_14adl_serializerEEESaISB_EEJZNSB_6createISD_JRKSD_EEEPT_DpOT0_EUlSE_E_EERKT0_RKSt11_Tuple_implIXT_EJSO_DpT1_EE
FN:1308,_ZSt12__get_helperILm0EPSt3mapINSt7__cxx1112basic_stringIcSt11char_traitsIcESaIcEEEN8nlohmann10basic_jsonIS0_St6vectorS6_blmdSaNS7_14adl_serializerEEESt4lessIvESaISt4pairIKS6_SB_EEEJZNSB_6createISI_JRKSI_EEEPT_DpOT0_EUlSJ_E_EERKT0_RKSt11_Tuple_implIXT_EJST_DpT1_EE
FN:1308,_ZSt12__get_helperILm0EPSt3mapINSt7__cxx1112basic_stringIcSt11char_traitsIcESaIcEEEN8nlohmann10basic_jsonIS0_St6vectorS6_blmdSaNS7_14adl_serializerEEESt4lessIvESaISt4pairIKS6_SB_EEEJZNSB_6createISI_JEEEPT_DpOT0_EUlSJ_E_EERKT0_RKSt11_Tuple_implIXT_EJSR_DpT1_EE
FN:1308,_ZSt12__get_helperILm0EPSt6vectorIN8nlohmann10basic_jsonISt3mapS0_NSt7__cxx1112basic_stringIcSt11char_traitsIcESaIcEEEblmdSaNS1_14adl_serializerEEESaISB_EEJZNSB_6createISD_JEEEPT_DpOT0_EUlSE_E_EERKT0_RKSt11_Tuple_implIXT_EJSM_DpT1_EE
FN:1308,_ZSt12__get_helperILm0EPNSt7__cxx1112basic_stringIcSt11char_traitsIcESaIcEEEJZN8nlohmann10basic_jsonISt3mapSt6vectorS5_blmdSaNS7_14adl_serializerEE6createIS5_JRKS5_EEEPT_DpOT0_EUlS6_E_EERKT0_RKSt11_Tuple_implIXT_EJSM_DpT1_EE
FN:1314,_ZSt3getILm1EJPSt6vectorIN8nlohmann10basic_jsonISt3mapS0_NSt7__cxx1112basic_stringIcSt11char_traitsIcESaIcEEEblmdSaNS1_14adl_serializerEEESaISB_EEZNSB_6createISD_JEEEPT_DpOT0_EUlSE_E_EERNSt13tuple_elementIXT_ESt5tupleIJDpSI_EEE4typeERSP_
FN:1314,_ZSt3getILm0EJPSt6vectorIN8nlohmann10basic_jsonISt3mapS0_NSt7__cxx1112basic_stringIcSt11char_traitsIcESaIcEEEblmdSaNS1_14adl_serializerEEESaISB_EEZNSB_6createISD_JEEEPT_DpOT0_EUlSE_E_EERNSt13tuple_elementIXT_ESt5tupleIJDpSI_EEE4typeERSP_
FN:1314,_ZSt3getILm1EJPSt3mapINSt7__cxx1112basic_stringIcSt11char_traitsIcESaIcEEEN8nlohmann10basic_jsonIS0_St6vectorS6_blmdSaNS7_14adl_serializerEEESt4lessIvESaISt4pairIKS6_SB_EEEZNSB_6createISI_JEEEPT_DpOT0_EUlSJ_E_EERNSt13tuple_elementIXT_ESt5tupleIJDpSN_EEE4typeERSU_
FN:1314,_ZSt3getILm1EJPNSt7__cxx1112basic_stringIcSt11char_traitsIcESaIcEEEZN8nlohmann10basic_jsonISt3mapSt6vectorS5_blmdSaNS7_14adl_serializerEE6createIS5_JRKS5_EEEPT_DpOT0_EUlS6_E_EERNSt13tuple_elementIXT_ESt5tupleIJDpSI_EEE4typeERSP_
FN:1314,_ZSt3getILm0EJPSt3mapINSt7__cxx1112basic_stringIcSt11char_traitsIcESaIcEEEN8nlohmann10basic_jsonIS0_St6vectorS6_blmdSaNS7_14adl_serializerEEESt4lessIvESaISt4pairIKS6_SB_EEEZNSB_6createISI_JEEEPT_DpOT0_EUlSJ_E_EERNSt13tuple_elementIXT_ESt5tupleIJDpSN_EEE4typeERSU_
FN:1314,_ZSt3getILm1EJPNSt7__cxx1112basic_stringIcSt11char_traitsIcESaIcEEEZN8nlohmann10basic_jsonISt3mapSt6vectorS5_blmdSaNS7_14adl_serializerEE6createIS5_JRA1_KcEEEPT_DpOT0_EUlS6_E_EERNSt13tuple_elementIXT_ESt5tupleIJDpSJ_EEE4typeERSQ_
FN:1314,_ZSt3getILm0EJPSt3mapINSt7__cxx1112basic_stringIcSt11char_traitsIcESaIcEEEN8nlohmann10basic_jsonIS0_St6vectorS6_blmdSaNS7_14adl_serializerEEESt4lessIvESaISt4pairIKS6_SB_EEEZNSB_6createISI_JRKSI_EEEPT_DpOT0_EUlSJ_E_EERNSt13tuple_elementIXT_ESt5tupleIJDpSP_EEE4typeERSW_
FN:1314,_ZSt3getILm1EJPSt3mapINSt7__cxx1112basic_stringIcSt11char_traitsIcESaIcEEEN8nlohmann10basic_jsonIS0_St6vectorS6_blmdSaNS7_14adl_serializerEEESt4lessIvESaISt4pairIKS6_SB_EEEZNSB_6createISI_JRKSI_EEEPT_DpOT0_EUlSJ_E_EERNSt13tuple_elementIXT_ESt5tupleIJDpSP_EEE4typeERSW_
FN:1314,_ZSt3getILm0EJPNSt7__cxx1112basic_stringIcSt11char_traitsIcESaIcEEEZN8nlohmann10basic_jsonISt3mapSt6vectorS5_blmdSaNS7_14adl_serializerEE6createIS5_JRA1_KcEEEPT_DpOT0_EUlS6_E_EERNSt13tuple_elementIXT_ESt5tupleIJDpSJ_EEE4typeERSQ_
FN:1314,_ZSt3getILm0EJPSt6vectorIN8nlohmann10basic_jsonISt3mapS0_NSt7__cxx1112basic_stringIcSt11char_traitsIcESaIcEEEblmdSaNS1_14adl_serializerEEESaISB_EEZNSB_6createISD_JRKSD_EEEPT_DpOT0_EUlSE_E_EERNSt13tuple_elementIXT_ESt5tupleIJDpSK_EEE4typeERSR_
FN:1314,_ZSt3getILm0EJPNSt7__cxx1112basic_stringIcSt11char_traitsIcESaIcEEEZN8nlohmann10basic_jsonISt3mapSt6vectorS5_blmdSaNS7_14adl_serializerEE6createIS5_JRKS5_EEEPT_DpOT0_EUlS6_E_EERNSt13tuple_elementIXT_ESt5tupleIJDpSI_EEE4typeERSP_
FN:1314,_ZSt3getILm0EJRKNSt7__cxx1112basic_stringIcSt11char_traitsIcESaIcEEEEERNSt13tuple_elementIXT_ESt5tupleIJDpT0_EEE4typeERSC_
FN:1314,_ZSt3getILm1EJPSt6vectorIN8nlohmann10basic_jsonISt3mapS0_NSt7__cxx1112basic_stringIcSt11char_traitsIcESaIcEEEblmdSaNS1_14adl_serializerEEESaISB_EEZNSB_6createISD_JRKSD_EEEPT_DpOT0_EUlSE_E_EERNSt13tuple_elementIXT_ESt5tupleIJDpSK_EEE4typeERSR_
FN:1320,_ZSt3getILm0EJPNSt7__cxx1112basic_stringIcSt11char_traitsIcESaIcEEEZN8nlohmann10basic_jsonISt3mapSt6vectorS5_blmdSaNS7_14adl_serializerEE6createIS5_JRA1_KcEEEPT_DpOT0_EUlS6_E_EERKNSt13tuple_elementIXT_ESt5tupleIJDpSJ_EEE4typeERKSQ_
FN:1320,_ZSt3getILm0EJPSt6vectorIN8nlohmann10basic_jsonISt3mapS0_NSt7__cxx1112basic_stringIcSt11char_traitsIcESaIcEEEblmdSaNS1_14adl_serializerEEESaISB_EEZNSB_6createISD_JRKSD_EEEPT_DpOT0_EUlSE_E_EERKNSt13tuple_elementIXT_ESt5tupleIJDpSK_EEE4typeERKSR_
FN:1320,_ZSt3getILm0EJPSt3mapINSt7__cxx1112basic_stringIcSt11char_traitsIcESaIcEEEN8nlohmann10basic_jsonIS0_St6vectorS6_blmdSaNS7_14adl_serializerEEESt4lessIvESaISt4pairIKS6_SB_EEEZNSB_6createISI_JEEEPT_DpOT0_EUlSJ_E_EERKNSt13tuple_elementIXT_ESt5tupleIJDpSN_EEE4typeERKSU_
FN:1320,_ZSt3getILm0EJPSt3mapINSt7__cxx1112basic_stringIcSt11char_traitsIcESaIcEEEN8nlohmann10basic_jsonIS0_St6vectorS6_blmdSaNS7_14adl_serializerEEESt4lessIvESaISt4pairIKS6_SB_EEEZNSB_6createISI_JRKSI_EEEPT_DpOT0_EUlSJ_E_EERKNSt13tuple_elementIXT_ESt5tupleIJDpSP_EEE4typeERKSW_
FN:1320,_ZSt3getILm0EJPSt6vectorIN8nlohmann10basic_jsonISt3mapS0_NSt7__cxx1112basic_stringIcSt11char_traitsIcESaIcEEEblmdSaNS1_14adl_serializerEEESaISB_EEZNSB_6createISD_JEEEPT_DpOT0_EUlSE_E_EERKNSt13tuple_elementIXT_ESt5tupleIJDpSI_EEE4typeERKSP_
FN:1320,_ZSt3getILm0EJPNSt7__cxx1112basic_stringIcSt11char_traitsIcESaIcEEEZN8nlohmann10basic_jsonISt3mapSt6vectorS5_blmdSaNS7_14adl_serializerEE6createIS5_JRKS5_EEEPT_DpOT0_EUlS6_E_EERKNSt13tuple_elementIXT_ESt5tupleIJDpSI_EEE4typeERKSP_
FN:1636,_ZNSt4pairIKNSt7__cxx1112basic_stringIcSt11char_traitsIcESaIcEEEN8nlohmann10basic_jsonISt3mapSt6vectorS5_blmdSaNS7_14adl_serializerEEEEC2IJRS6_EJEEESt21piecewise_construct_tSt5tupleIJDpT_EESH_IJDpT0_EE
FN:1648,_ZNSt4pairIKNSt7__cxx1112basic_stringIcSt11char_traitsIcESaIcEEEN8nlohmann10basic_jsonISt3mapSt6vectorS5_blmdSaNS7_14adl_serializerEEEEC2IJRS6_EJLm0EEJEJEEERSt5tupleIJDpT_EERSG_IJDpT1_EESt12_Index_tupleIJXspT0_EEESP_IJXspT2_EEE
FNDA:41168,_ZNSt10_Head_baseILm0ERKNSt7__cxx1112basic_stringIcSt11char_traitsIcESaIcEEELb0EEC2ES7_
FNDA:0,_ZNSt10_Head_baseILm1EZN8nlohmann10basic_jsonISt3mapSt6vectorNSt7__cxx1112basic_stringIcSt11char_traitsIcESaIcEEEblmdSaNS0_14adl_serializerEE6createIS9_JRA1_KcEEEPT_DpOT0_EUlPS9_E_Lb0EEC2ERKSM_
FNDA:1,_ZNSt10_Head_baseILm1EZN8nlohmann10basic_jsonISt3mapSt6vectorNSt7__cxx1112basic_stringIcSt11char_traitsIcESaIcEEEblmdSaNS0_14adl_serializerEE6createIS3_ISB_SaISB_EEJEEEPT_DpOT0_EUlPSE_E_Lb0EEC2ERKSL_
FNDA:664,_ZNSt10_Head_baseILm1EZN8nlohmann10basic_jsonISt3mapSt6vectorNSt7__cxx1112basic_stringIcSt11char_traitsIcESaIcEEEblmdSaNS0_14adl_serializerEE6createIS2_IS9_SB_St4lessIvESaISt4pairIKS9_SB_EEEJEEEPT_DpOT0_EUlPSJ_E_Lb0EEC2ERKSQ_
FNDA:5312,_ZNSt10_Head_baseILm1EZN8nlohmann10basic_jsonISt3mapSt6vectorNSt7__cxx1112basic_stringIcSt11char_traitsIcESaIcEEEblmdSaNS0_14adl_serializerEE6createIS9_JRKS9_EEEPT_DpOT0_EUlPS9_E_Lb0EEC2ERKSL_
FNDA:0,_ZNSt10_Head_baseILm1EZN8nlohmann10basic_jsonISt3mapSt6vectorNSt7__cxx1112basic_stringIcSt11char_traitsIcESaIcEEEblmdSaNS0_14adl_serializerEE6createIS3_ISB_SaISB_EEJRKSE_EEEPT_DpOT0_EUlPSE_E_Lb0EEC2ERKSN_
FNDA:664,_ZNSt10_Head_baseILm1EZN8nlohmann10basic_jsonISt3mapSt6vectorNSt7__cxx1112basic_stringIcSt11char_traitsIcESaIcEEEblmdSaNS0_14adl_serializerEE6createIS2_IS9_SB_St4lessIvESaISt4pairIKS9_SB_EEEJRKSJ_EEEPT_DpOT0_EUlPSJ_E_Lb0EEC2ERKSS_
FNDA:5312,_ZNSt10_Head_baseILm0EPNSt7__cxx1112basic_stringIcSt11char_traitsIcESaIcEEELb0EEC2IRS6_EEOT_
FNDA:1,_ZNSt10_Head_baseILm0EPSt6vectorIN8nlohmann10basic_jsonISt3mapS0_NSt7__cxx1112basic_stringIcSt11char_traitsIcESaIcEEEblmdSaNS1_14adl_serializerEEESaISB_EELb0EEC2IRSE_EEOT_
FNDA:1328,_ZNSt10_Head_baseILm0EPSt3mapINSt7__cxx1112basic_stringIcSt11char_traitsIcESaIcEEEN8nlohmann10basic_jsonIS0_St6vectorS6_blmdSaNS7_14adl_serializerEEESt4lessIvESaISt4pairIKS6_SB_EEELb0EEC2IRSJ_EEOT_
FNDA:41168,_ZNSt10_Head_baseILm0ERKNSt7__cxx1112basic_stringIcSt11char_traitsIcESaIcEEELb0EE7_M_headERS8_
FNDA:0,_ZNSt10_Head_baseILm1EZN8nlohmann10basic_jsonISt3mapSt6vectorNSt7__cxx1112basic_stringIcSt11char_traitsIcESaIcEEEblmdSaNS0_14adl_serializerEE6createIS9_JRA1_KcEEEPT_DpOT0_EUlPS9_E_Lb0EE7_M_headERSN_
FNDA:0,_ZNSt10_Head_baseILm1EZN8nlohmann10basic_jsonISt3mapSt6vectorNSt7__cxx1112basic_stringIcSt11char_traitsIcESaIcEEEblmdSaNS0_14adl_serializerEE6createIS3_ISB_SaISB_EEJEEEPT_DpOT0_EUlPSE_E_Lb0EE7_M_headERSM_
FNDA:0,_ZNSt10_Head_baseILm1EZN8nlohmann10basic_jsonISt3mapSt6vectorNSt7__cxx1112basic_stringIcSt11char_traitsIcESaIcEEEblmdSaNS0_14adl_serializerEE6createIS2_IS9_SB_St4lessIvESaISt4pairIKS9_SB_EEEJEEEPT_DpOT0_EUlPSJ_E_Lb0EE7_M_headERSR_
FNDA:0,_ZNSt10_Head_baseILm1EZN8nlohmann10basic_jsonISt3mapSt6vectorNSt7__cxx1112basic_stringIcSt11char_traitsIcESaIcEEEblmdSaNS0_14adl_serializerEE6createIS9_JRKS9_EEEPT_DpOT0_EUlPS9_E_Lb0EE7_M_headERSM_
FNDA:0,_ZNSt10_Head_baseILm1EZN8nlohmann10basic_jsonISt3mapSt6vectorNSt7__cxx1112basic_stringIcSt11char_traitsIcESaIcEEEblmdSaNS0_14adl_serializerEE6createIS3_ISB_SaISB_EEJRKSE_EEEPT_DpOT0_EUlPSE_E_Lb0EE7_M_headERSO_
FNDA:0,_ZNSt10_Head_baseILm1EZN8nlohmann10basic_jsonISt3mapSt6vectorNSt7__cxx1112basic_stringIcSt11char_traitsIcESaIcEEEblmdSaNS0_14adl_serializerEE6createIS2_IS9_SB_St4lessIvESaISt4pairIKS9_SB_EEEJRKSJ_EEEPT_DpOT0_EUlPSJ_E_Lb0EE7_M_headERST_
FNDA:10624,_ZNSt10_Head_baseILm0EPNSt7__cxx1112basic_stringIcSt11char_traitsIcESaIcEEELb0EE7_M_headERS7_
FNDA:2,_ZNSt10_Head_baseILm0EPSt6vectorIN8nlohmann10basic_jsonISt3mapS0_NSt7__cxx1112basic_stringIcSt11char_traitsIcESaIcEEEblmdSaNS1_14adl_serializerEEESaISB_EELb0EE7_M_headERSF_
FNDA:2656,_ZNSt10_Head_baseILm0EPSt3mapINSt7__cxx1112basic_stringIcSt11char_traitsIcESaIcEEEN8nlohmann10basic_jsonIS0_St6vectorS6_blmdSaNS7_14adl_serializerEEESt4lessIvESaISt4pairIKS6_SB_EEELb0EE7_M_headERSK_
FNDA:15936,_ZNSt10_Head_baseILm0EPNSt7__cxx1112basic_stringIcSt11char_traitsIcESaIcEEELb0EE7_M_headERKS7_
FNDA:3,_ZNSt10_Head_baseILm0EPSt6vectorIN8nlohmann10basic_jsonISt3mapS0_NSt7__cxx1112basic_stringIcSt11char_traitsIcESaIcEEEblmdSaNS1_14adl_serializerEEESaISB_EELb0EE7_M_headERKSF_
FNDA:3984,_ZNSt10_Head_baseILm0EPSt3mapINSt7__cxx1112basic_stringIcSt11char_traitsIcESaIcEEEN8nlohmann10basic_jsonIS0_St6vectorS6_blmdSaNS7_14adl_serializerEEESt4lessIvESaISt4pairIKS6_SB_EEELb0EE7_M_headERKSK_
FNDA:0,_ZNSt11_Tuple_implILm0EJPNSt7__cxx1112basic_stringIcSt11char_traitsIcESaIcEEEZN8nlohmann10basic_jsonISt3mapSt6vectorS5_blmdSaNS7_14adl_serializerEE6createIS5_JRA1_KcEEEPT_DpOT0_EUlS6_E_EE7_M_headERSN_
FNDA:2,_ZNSt11_Tuple_implILm0EJPSt6vectorIN8nlohmann10basic_jsonISt3mapS0_NSt7__cxx1112basic_stringIcSt11char_traitsIcESaIcEEEblmdSaNS1_14adl_serializerEEESaISB_EEZNSB_6createISD_JEEEPT_DpOT0_EUlSE_E_EE7_M_headERSM_
FNDA:1328,_ZNSt11_Tuple_implILm0EJPSt3mapINSt7__cxx1112basic_stringIcSt11char_traitsIcESaIcEEEN8nlohmann10basic_jsonIS0_St6vectorS6_blmdSaNS7_14adl_serializerEEESt4lessIvESaISt4pairIKS6_SB_EEEZNSB_6createISI_JEEEPT_DpOT0_EUlSJ_E_EE7_M_headERSR_
FNDA:10624,_ZNSt11_Tuple_implILm0EJPNSt7__cxx1112basic_stringIcSt11char_traitsIcESaIcEEEZN8nlohmann10basic_jsonISt3mapSt6vectorS5_blmdSaNS7_14adl_serializerEE6createIS5_JRKS5_EEEPT_DpOT0_EUlS6_E_EE7_M_headERSM_
FNDA:0,_ZNSt11_Tuple_implILm0EJPSt6vectorIN8nlohmann10basic_jsonISt3mapS0_NSt7__cxx1112basic_stringIcSt11char_traitsIcESaIcEEEblmdSaNS1_14adl_serializerEEESaISB_EEZNSB_6createISD_JRKSD_EEEPT_DpOT0_EUlSE_E_EE7_M_headERSO_
FNDA:1328,_ZNSt11_Tuple_implILm0EJPSt3mapINSt7__cxx1112basic_stringIcSt11char_traitsIcESaIcEEEN8nlohmann10basic_jsonIS0_St6vectorS6_blmdSaNS7_14adl_serializerEEESt4lessIvESaISt4pairIKS6_SB_EEEZNSB_6createISI_JRKSI_EEEPT_DpOT0_EUlSJ_E_EE7_M_headERST_
FNDA:0,_ZNSt11_Tuple_implILm0EJPNSt7__cxx1112basic_stringIcSt11char_traitsIcESaIcEEEZN8nlohmann10basic_jsonISt3mapSt6vectorS5_blmdSaNS7_14adl_serializerEE6createIS5_JRA1_KcEEEPT_DpOT0_EUlS6_E_EE7_M_headERKSN_
FNDA:3,_ZNSt11_Tuple_implILm0EJPSt6vectorIN8nlohmann10basic_jsonISt3mapS0_NSt7__cxx1112basic_stringIcSt11char_traitsIcESaIcEEEblmdSaNS1_14adl_serializerEEESaISB_EEZNSB_6createISD_JEEEPT_DpOT0_EUlSE_E_EE7_M_headERKSM_
FNDA:1992,_ZNSt11_Tuple_implILm0EJPSt3mapINSt7__cxx1112basic_stringIcSt11char_traitsIcESaIcEEEN8nlohmann10basic_jsonIS0_St6vectorS6_blmdSaNS7_14adl_serializerEEESt4lessIvESaISt4pairIKS6_SB_EEEZNSB_6createISI_JEEEPT_DpOT0_EUlSJ_E_EE7_M_headERKSR_
FNDA:15936,_ZNSt11_Tuple_implILm0EJPNSt7__cxx1112basic_stringIcSt11char_traitsIcESaIcEEEZN8nlohmann10basic_jsonISt3mapSt6vectorS5_blmdSaNS7_14adl_serializerEE6createIS5_JRKS5_EEEPT_DpOT0_EUlS6_E_EE7_M_headERKSM_
FNDA:0,_ZNSt11_Tuple_implILm0EJPSt6vectorIN8nlohmann10basic_jsonISt3mapS0_NSt7__cxx1112basic_stringIcSt11char_traitsIcESaIcEEEblmdSaNS1_14adl_serializerEEESaISB_EEZNSB_6createISD_JRKSD_EEEPT_DpOT0_EUlSE_E_EE7_M_headERKSO_
FNDA:1992,_ZNSt11_Tuple_implILm0EJPSt3mapINSt7__cxx1112basic_stringIcSt11char_traitsIcESaIcEEEN8nlohmann10basic_jsonIS0_St6vectorS6_blmdSaNS7_14adl_serializerEEESt4lessIvESaISt4pairIKS6_SB_EEEZNSB_6createISI_JRKSI_EEEPT_DpOT0_EUlSJ_E_EE7_M_headERKST_
FNDA:0,_ZNSt11_Tuple_implILm0EJPNSt7__cxx1112basic_stringIcSt11char_traitsIcESaIcEEEZN8nlohmann10basic_jsonISt3mapSt6vectorS5_blmdSaNS7_14adl_serializerEE6createIS5_JRA1_KcEEEPT_DpOT0_EUlS6_E_EEC2IRS6_JRKSM_EvEEOSH_SL_
FNDA:1,_ZNSt11_Tuple_implILm0EJPSt6vectorIN8nlohmann10basic_jsonISt3mapS0_NSt7__cxx1112basic_stringIcSt11char_traitsIcESaIcEEEblmdSaNS1_14adl_serializerEEESaISB_EEZNSB_6createISD_JEEEPT_DpOT0_EUlSE_E_EEC2IRSE_JRKSL_EvEEOSG_SK_
FNDA:664,_ZNSt11_Tuple_implILm0EJPSt3mapINSt7__cxx1112basic_stringIcSt11char_traitsIcESaIcEEEN8nlohmann10basic_jsonIS0_St6vectorS6_blmdSaNS7_14adl_serializerEEESt4lessIvESaISt4pairIKS6_SB_EEEZNSB_6createISI_JEEEPT_DpOT0_EUlSJ_E_EEC2IRSJ_JRKSQ_EvEEOSL_SP_
FNDA:5312,_ZNSt11_Tuple_implILm0EJPNSt7__cxx1112basic_stringIcSt11char_traitsIcESaIcEEEZN8nlohmann10basic_jsonISt3mapSt6vectorS5_blmdSaNS7_14adl_serializerEE6createIS5_JRKS5_EEEPT_DpOT0_EUlS6_E_EEC2IRS6_JRKSL_EvEEOSG_SK_
FNDA:0,_ZNSt11_Tuple_implILm0EJPSt6vectorIN8nlohmann10basic_jsonISt3mapS0_NSt7__cxx1112basic_stringIcSt11char_traitsIcESaIcEEEblmdSaNS1_14adl_serializerEEESaISB_EEZNSB_6createISD_JRKSD_EEEPT_DpOT0_EUlSE_E_EEC2IRSE_JRKSN_EvEEOSI_SM_
FNDA:664,_ZNSt11_Tuple_implILm0EJPSt3mapINSt7__cxx1112basic_stringIcSt11char_traitsIcESaIcEEEN8nlohmann10basic_jsonIS0_St6vectorS6_blmdSaNS7_14adl_serializerEEESt4lessIvESaISt4pairIKS6_SB_EEEZNSB_6createISI_JRKSI_EEEPT_DpOT0_EUlSJ_E_EEC2IRSJ_JRKSS_EvEEOSN_SR_
FNDA:41168,_ZNSt11_Tuple_implILm0EJRKNSt7__cxx1112basic_stringIcSt11char_traitsIcESaIcEEEEE7_M_headERS8_
FNDA:0,_ZNSt11_Tuple_implILm1EJZN8nlohmann10basic_jsonISt3mapSt6vectorNSt7__cxx1112basic_stringIcSt11char_traitsIcESaIcEEEblmdSaNS0_14adl_serializerEE6createIS9_JRA1_KcEEEPT_DpOT0_EUlPS9_E_EE7_M_headERSN_
FNDA:0,_ZNSt11_Tuple_implILm1EJZN8nlohmann10basic_jsonISt3mapSt6vectorNSt7__cxx1112basic_stringIcSt11char_traitsIcESaIcEEEblmdSaNS0_14adl_serializerEE6createIS3_ISB_SaISB_EEJEEEPT_DpOT0_EUlPSE_E_EE7_M_headERSM_
FNDA:0,_ZNSt11_Tuple_implILm1EJZN8nlohmann10basic_jsonISt3mapSt6vectorNSt7__cxx1112basic_stringIcSt11char_traitsIcESaIcEEEblmdSaNS0_14adl_serializerEE6createIS2_IS9_SB_St4lessIvESaISt4pairIKS9_SB_EEEJEEEPT_DpOT0_EUlPSJ_E_EE7_M_headERSR_
FNDA:0,_ZNSt11_Tuple_implILm1EJZN8nlohmann10basic_jsonISt3mapSt6vectorNSt7__cxx1112basic_stringIcSt11char_traitsIcESaIcEEEblmdSaNS0_14adl_serializerEE6createIS9_JRKS9_EEEPT_DpOT0_EUlPS9_E_EE7_M_headERSM_
FNDA:0,_ZNSt11_Tuple_implILm1EJZN8nlohmann10basic_jsonISt3mapSt6vectorNSt7__cxx1112basic_stringIcSt11char_traitsIcESaIcEEEblmdSaNS0_14adl_serializerEE6createIS3_ISB_SaISB_EEJRKSE_EEEPT_DpOT0_EUlPSE_E_EE7_M_headERSO_
FNDA:0,_ZNSt11_Tuple_implILm1EJZN8nlohmann10basic_jsonISt3mapSt6vectorNSt7__cxx1112basic_stringIcSt11char_traitsIcESaIcEEEblmdSaNS0_14adl_serializerEE6createIS2_IS9_SB_St4lessIvESaISt4pairIKS9_SB_EEEJRKSJ_EEEPT_DpOT0_EUlPSJ_E_EE7_M_headERST_
FNDA:20584,_ZNSt11_Tuple_implILm0EJRKNSt7__cxx1112basic_stringIcSt11char_traitsIcESaIcEEEEEC2ES7_
FNDA:0,_ZNSt11_Tuple_implILm1EJZN8nlohmann10basic_jsonISt3mapSt6vectorNSt7__cxx1112basic_stringIcSt11char_traitsIcESaIcEEEblmdSaNS0_14adl_serializerEE6createIS9_JRA1_KcEEEPT_DpOT0_EUlPS9_E_EEC2ERKSM_
FNDA:1,_ZNSt11_Tuple_implILm1EJZN8nlohmann10basic_jsonISt3mapSt6vectorNSt7__cxx1112basic_stringIcSt11char_traitsIcESaIcEEEblmdSaNS0_14adl_serializerEE6createIS3_ISB_SaISB_EEJEEEPT_DpOT0_EUlPSE_E_EEC2ERKSL_
FNDA:664,_ZNSt11_Tuple_implILm1EJZN8nlohmann10basic_jsonISt3mapSt6vectorNSt7__cxx1112basic_stringIcSt11char_traitsIcESaIcEEEblmdSaNS0_14adl_serializerEE6createIS2_IS9_SB_St4lessIvESaISt4pairIKS9_SB_EEEJEEEPT_DpOT0_EUlPSJ_E_EEC2ERKSQ_
FNDA:5312,_ZNSt11_Tuple_implILm1EJZN8nlohmann10basic_jsonISt3mapSt6vectorNSt7__cxx1112basic_stringIcSt11char_traitsIcESaIcEEEblmdSaNS0_14adl_serializerEE6createIS9_JRKS9_EEEPT_DpOT0_EUlPS9_E_EEC2ERKSL_
FNDA:0,_ZNSt11_Tuple_implILm1EJZN8nlohmann10basic_jsonISt3mapSt6vectorNSt7__cxx1112basic_stringIcSt11char_traitsIcESaIcEEEblmdSaNS0_14adl_serializerEE6createIS3_ISB_SaISB_EEJRKSE_EEEPT_DpOT0_EUlPSE_E_EEC2ERKSN_
FNDA:664,_ZNSt11_Tuple_implILm1EJZN8nlohmann10basic_jsonISt3mapSt6vectorNSt7__cxx1112basic_stringIcSt11char_traitsIcESaIcEEEblmdSaNS0_14adl_serializerEE6createIS2_IS9_SB_St4lessIvESaISt4pairIKS9_SB_EEEJRKSJ_EEEPT_DpOT0_EUlPSJ_E_EEC2ERKSS_
FNDA:20584,_ZNSt11_Tuple_implILm0EJRKNSt7__cxx1112basic_stringIcSt11char_traitsIcESaIcEEEEEC2EOS8_
FNDA:20584,_ZNSt5tupleIJRKNSt7__cxx1112basic_stringIcSt11char_traitsIcESaIcEEEEEC2IvLb1EEES7_
FNDA:20584,_ZNSt5tupleIJRKNSt7__cxx1112basic_stringIcSt11char_traitsIcESaIcEEEEEC2EOS8_
FNDA:0,_ZNSt5tupleIJPNSt7__cxx1112basic_stringIcSt11char_traitsIcESaIcEEEZN8nlohmann10basic_jsonISt3mapSt6vectorS5_blmdSaNS7_14adl_serializerEE6createIS5_JRA1_KcEEEPT_DpOT0_EUlS6_E_EEC2IRS6_RKSM_Lb1EEEOSH_OT0_
FNDA:1,_ZNSt5tupleIJPSt6vectorIN8nlohmann10basic_jsonISt3mapS0_NSt7__cxx1112basic_stringIcSt11char_traitsIcESaIcEEEblmdSaNS1_14adl_serializerEEESaISB_EEZNSB_6createISD_JEEEPT_DpOT0_EUlSE_E_EEC2IRSE_RKSL_Lb1EEEOSG_OT0_
FNDA:664,_ZNSt5tupleIJPSt3mapINSt7__cxx1112basic_stringIcSt11char_traitsIcESaIcEEEN8nlohmann10basic_jsonIS0_St6vectorS6_blmdSaNS7_14adl_serializerEEESt4lessIvESaISt4pairIKS6_SB_EEEZNSB_6createISI_JEEEPT_DpOT0_EUlSJ_E_EEC2IRSJ_RKSQ_Lb1EEEOSL_OT0_
FNDA:5312,_ZNSt5tupleIJPNSt7__cxx1112basic_stringIcSt11char_traitsIcESaIcEEEZN8nlohmann10basic_jsonISt3mapSt6vectorS5_blmdSaNS7_14adl_serializerEE6createIS5_JRKS5_EEEPT_DpOT0_EUlS6_E_EEC2IRS6_RKSL_Lb1EEEOSG_OT0_
FNDA:0,_ZNSt5tupleIJPSt6vectorIN8nlohmann10basic_jsonISt3mapS0_NSt7__cxx1112basic_stringIcSt11char_traitsIcESaIcEEEblmdSaNS1_14adl_serializerEEESaISB_EEZNSB_6createISD_JRKSD_EEEPT_DpOT0_EUlSE_E_EEC2IRSE_RKSN_Lb1EEEOSI_OT0_
FNDA:664,_ZNSt5tupleIJPSt3mapINSt7__cxx1112basic_stringIcSt11char_traitsIcESaIcEEEN8nlohmann10basic_jsonIS0_St6vectorS6_blmdSaNS7_14adl_serializerEEESt4lessIvESaISt4pairIKS6_SB_EEEZNSB_6createISI_JRKSI_EEEPT_DpOT0_EUlSJ_E_EEC2IRSJ_RKSS_Lb1EEEOSN_OT0_
FNDA:20584,_ZSt12__get_helperILm0ERKNSt7__cxx1112basic_stringIcSt11char_traitsIcESaIcEEEJEERT0_RSt11_Tuple_implIXT_EJS8_DpT1_EE
FNDA:0,_ZSt12__get_helperILm1EZN8nlohmann10basic_jsonISt3mapSt6vectorNSt7__cxx1112basic_stringIcSt11char_traitsIcESaIcEEEblmdSaNS0_14adl_serializerEE6createIS9_JRA1_KcEEEPT_DpOT0_EUlPS9_E_JEERT0_RSt11_Tuple_implIXT_EJSN_DpT1_EE
FNDA:0,_ZSt12__get_helperILm1EZN8nlohmann10basic_jsonISt3mapSt6vectorNSt7__cxx1112basic_stringIcSt11char_traitsIcESaIcEEEblmdSaNS0_14adl_serializerEE6createIS3_ISB_SaISB_EEJEEEPT_DpOT0_EUlPSE_E_JEERT0_RSt11_Tuple_implIXT_EJSM_DpT1_EE
FNDA:0,_ZSt12__get_helperILm1EZN8nlohmann10basic_jsonISt3mapSt6vectorNSt7__cxx1112basic_stringIcSt11char_traitsIcESaIcEEEblmdSaNS0_14adl_serializerEE6createIS2_IS9_SB_St4lessIvESaISt4pairIKS9_SB_EEEJEEEPT_DpOT0_EUlPSJ_E_JEERT0_RSt11_Tuple_implIXT_EJSR_DpT1_EE
FNDA:0,_ZSt12__get_helperILm0EPNSt7__cxx1112basic_stringIcSt11char_traitsIcESaIcEEEJZN8nlohmann10basic_jsonISt3mapSt6vectorS5_blmdSaNS7_14adl_serializerEE6createIS5_JRA1_KcEEEPT_DpOT0_EUlS6_E_EERT0_RSt11_Tuple_implIXT_EJSN_DpT1_EE
FNDA:2,_ZSt12__get_helperILm0EPSt6vectorIN8nlohmann10basic_jsonISt3mapS0_NSt7__cxx1112basic_stringIcSt11char_traitsIcESaIcEEEblmdSaNS1_14adl_serializerEEESaISB_EEJZNSB_6createISD_JEEEPT_DpOT0_EUlSE_E_EERT0_RSt11_Tuple_implIXT_EJSM_DpT1_EE
FNDA:1328,_ZSt12__get_helperILm0EPSt3mapINSt7__cxx1112basic_stringIcSt11char_traitsIcESaIcEEEN8nlohmann10basic_jsonIS0_St6vectorS6_blmdSaNS7_14adl_serializerEEESt4lessIvESaISt4pairIKS6_SB_EEEJZNSB_6createISI_JEEEPT_DpOT0_EUlSJ_E_EERT0_RSt11_Tuple_implIXT_EJSR_DpT1_EE
FNDA:0,_ZSt12__get_helperILm1EZN8nlohmann10basic_jsonISt3mapSt6vectorNSt7__cxx1112basic_stringIcSt11char_traitsIcESaIcEEEblmdSaNS0_14adl_serializerEE6createIS9_JRKS9_EEEPT_DpOT0_EUlPS9_E_JEERT0_RSt11_Tuple_implIXT_EJSM_DpT1_EE
FNDA:0,_ZSt12__get_helperILm1EZN8nlohmann10basic_jsonISt3mapSt6vectorNSt7__cxx1112basic_stringIcSt11char_traitsIcESaIcEEEblmdSaNS0_14adl_serializerEE6createIS3_ISB_SaISB_EEJRKSE_EEEPT_DpOT0_EUlPSE_E_JEERT0_RSt11_Tuple_implIXT_EJSO_DpT1_EE
FNDA:0,_ZSt12__get_helperILm1EZN8nlohmann10basic_jsonISt3mapSt6vectorNSt7__cxx1112basic_stringIcSt11char_traitsIcESaIcEEEblmdSaNS0_14adl_serializerEE6createIS2_IS9_SB_St4lessIvESaISt4pairIKS9_SB_EEEJRKSJ_EEEPT_DpOT0_EUlPSJ_E_JEERT0_RSt11_Tuple_implIXT_EJST_DpT1_EE
FNDA:10624,_ZSt12__get_helperILm0EPNSt7__cxx1112basic_stringIcSt11char_traitsIcESaIcEEEJZN8nlohmann10basic_jsonISt3mapSt6vectorS5_blmdSaNS7_14adl_serializerEE6createIS5_JRKS5_EEEPT_DpOT0_EUlS6_E_EERT0_RSt11_Tuple_implIXT_EJSM_DpT1_EE
FNDA:0,_ZSt12__get_helperILm0EPSt6vectorIN8nlohmann10basic_jsonISt3mapS0_NSt7__cxx1112basic_stringIcSt11char_traitsIcESaIcEEEblmdSaNS1_14adl_serializerEEESaISB_EEJZNSB_6createISD_JRKSD_EEEPT_DpOT0_EUlSE_E_EERT0_RSt11_Tuple_implIXT_EJSO_DpT1_EE
FNDA:1328,_ZSt12__get_helperILm0EPSt3mapINSt7__cxx1112basic_stringIcSt11char_traitsIcESaIcEEEN8nlohmann10basic_jsonIS0_St6vectorS6_blmdSaNS7_14adl_serializerEEESt4lessIvESaISt4pairIKS6_SB_EEEJZNSB_6createISI_JRKSI_EEEPT_DpOT0_EUlSJ_E_EERT0_RSt11_Tuple_implIXT_EJST_DpT1_EE
FNDA:0,_ZSt12__get_helperILm0EPNSt7__cxx1112basic_stringIcSt11char_traitsIcESaIcEEEJZN8nlohmann10basic_jsonISt3mapSt6vectorS5_blmdSaNS7_14adl_serializerEE6createIS5_JRA1_KcEEEPT_DpOT0_EUlS6_E_EERKT0_RKSt11_Tuple_implIXT_EJSN_DpT1_EE
FNDA:3,_ZSt12__get_helperILm0EPSt6vectorIN8nlohmann10basic_jsonISt3mapS0_NSt7__cxx1112basic_stringIcSt11char_traitsIcESaIcEEEblmdSaNS1_14adl_serializerEEESaISB_EEJZNSB_6createISD_JEEEPT_DpOT0_EUlSE_E_EERKT0_RKSt11_Tuple_implIXT_EJSM_DpT1_EE
FNDA:1992,_ZSt12__get_helperILm0EPSt3mapINSt7__cxx1112basic_stringIcSt11char_traitsIcESaIcEEEN8nlohmann10basic_jsonIS0_St6vectorS6_blmdSaNS7_14adl_serializerEEESt4lessIvESaISt4pairIKS6_SB_EEEJZNSB_6createISI_JEEEPT_DpOT0_EUlSJ_E_EERKT0_RKSt11_Tuple_implIXT_EJSR_DpT1_EE
FNDA:15936,_ZSt12__get_helperILm0EPNSt7__cxx1112basic_stringIcSt11char_traitsIcESaIcEEEJZN8nlohmann10basic_jsonISt3mapSt6vectorS5_blmdSaNS7_14adl_serializerEE6createIS5_JRKS5_EEEPT_DpOT0_EUlS6_E_EERKT0_RKSt11_Tuple_implIXT_EJSM_DpT1_EE
FNDA:0,_ZSt12__get_helperILm0EPSt6vectorIN8nlohmann10basic_jsonISt3mapS0_NSt7__cxx1112basic_stringIcSt11char_traitsIcESaIcEEEblmdSaNS1_14adl_serializerEEESaISB_EEJZNSB_6createISD_JRKSD_EEEPT_DpOT0_EUlSE_E_EERKT0_RKSt11_Tuple_implIXT_EJSO_DpT1_EE
FNDA:1992,_ZSt12__get_helperILm0EPSt3mapINSt7__cxx1112basic_stringIcSt11char_traitsIcESaIcEEEN8nlohmann10basic_jsonIS0_St6vectorS6_blmdSaNS7_14adl_serializerEEESt4lessIvESaISt4pairIKS6_SB_EEEJZNSB_6createISI_JRKSI_EEEPT_DpOT0_EUlSJ_E_EERKT0_RKSt11_Tuple_implIXT_EJST_DpT1_EE
FNDA:20584,_ZSt3getILm0EJRKNSt7__cxx1112basic_stringIcSt11char_traitsIcESaIcEEEEERNSt13tuple_elementIXT_ESt5tupleIJDpT0_EEE4typeERSC_
FNDA:0,_ZSt3getILm1EJPNSt7__cxx1112basic_stringIcSt11char_traitsIcESaIcEEEZN8nlohmann10basic_jsonISt3mapSt6vectorS5_blmdSaNS7_14adl_serializerEE6createIS5_JRA1_KcEEEPT_DpOT0_EUlS6_E_EERNSt13tuple_elementIXT_ESt5tupleIJDpSJ_EEE4typeERSQ_
FNDA:0,_ZSt3getILm1EJPSt6vectorIN8nlohmann10basic_jsonISt3mapS0_NSt7__cxx1112basic_stringIcSt11char_traitsIcESaIcEEEblmdSaNS1_14adl_serializerEEESaISB_EEZNSB_6createISD_JEEEPT_DpOT0_EUlSE_E_EERNSt13tuple_elementIXT_ESt5tupleIJDpSI_EEE4typeERSP_
FNDA:0,_ZSt3getILm1EJPSt3mapINSt7__cxx1112basic_stringIcSt11char_traitsIcESaIcEEEN8nlohmann10basic_jsonIS0_St6vectorS6_blmdSaNS7_14adl_serializerEEESt4lessIvESaISt4pairIKS6_SB_EEEZNSB_6createISI_JEEEPT_DpOT0_EUlSJ_E_EERNSt13tuple_elementIXT_ESt5tupleIJDpSN_EEE4typeERSU_
FNDA:0,_ZSt3getILm0EJPNSt7__cxx1112basic_stringIcSt11char_traitsIcESaIcEEEZN8nlohmann10basic_jsonISt3mapSt6vectorS5_blmdSaNS7_14adl_serializerEE6createIS5_JRA1_KcEEEPT_DpOT0_EUlS6_E_EERNSt13tuple_elementIXT_ESt5tupleIJDpSJ_EEE4typeERSQ_
FNDA:2,_ZSt3getILm0EJPSt6vectorIN8nlohmann10basic_jsonISt3mapS0_NSt7__cxx1112basic_stringIcSt11char_traitsIcESaIcEEEblmdSaNS1_14adl_serializerEEESaISB_EEZNSB_6createISD_JEEEPT_DpOT0_EUlSE_E_EERNSt13tuple_elementIXT_ESt5tupleIJDpSI_EEE4typeERSP_
FNDA:1328,_ZSt3getILm0EJPSt3mapINSt7__cxx1112basic_stringIcSt11char_traitsIcESaIcEEEN8nlohmann10basic_jsonIS0_St6vectorS6_blmdSaNS7_14adl_serializerEEESt4lessIvESaISt4pairIKS6_SB_EEEZNSB_6createISI_JEEEPT_DpOT0_EUlSJ_E_EERNSt13tuple_elementIXT_ESt5tupleIJDpSN_EEE4typeERSU_
FNDA:0,_ZSt3getILm1EJPNSt7__cxx1112basic_stringIcSt11char_traitsIcESaIcEEEZN8nlohmann10basic_jsonISt3mapSt6vectorS5_blmdSaNS7_14adl_serializerEE6createIS5_JRKS5_EEEPT_DpOT0_EUlS6_E_EERNSt13tuple_elementIXT_ESt5tupleIJDpSI_EEE4typeERSP_
FNDA:0,_ZSt3getILm1EJPSt6vectorIN8nlohmann10basic_jsonISt3mapS0_NSt7__cxx1112basic_stringIcSt11char_traitsIcESaIcEEEblmdSaNS1_14adl_serializerEEESaISB_EEZNSB_6createISD_JRKSD_EEEPT_DpOT0_EUlSE_E_EERNSt13tuple_elementIXT_ESt5tupleIJDpSK_EEE4typeERSR_
FNDA:0,_ZSt3getILm1EJPSt3mapINSt7__cxx1112basic_stringIcSt11char_traitsIcESaIcEEEN8nlohmann10basic_jsonIS0_St6vectorS6_blmdSaNS7_14adl_serializerEEESt4lessIvESaISt4pairIKS6_SB_EEEZNSB_6createISI_JRKSI_EEEPT_DpOT0_EUlSJ_E_EERNSt13tuple_elementIXT_ESt5tupleIJDpSP_EEE4typeERSW_
FNDA:10624,_ZSt3getILm0EJPNSt7__cxx1112basic_stringIcSt11char_traitsIcESaIcEEEZN8nlohmann10basic_jsonISt3mapSt6vectorS5_blmdSaNS7_14adl_serializerEE6createIS5_JRKS5_EEEPT_DpOT0_EUlS6_E_EERNSt13tuple_elementIXT_ESt5tupleIJDpSI_EEE4typeERSP_
FNDA:0,_ZSt3getILm0EJPSt6vectorIN8nlohmann10basic_jsonISt3mapS0_NSt7__cxx1112basic_stringIcSt11char_traitsIcESaIcEEEblmdSaNS1_14adl_serializerEEESaISB_EEZNSB_6createISD_JRKSD_EEEPT_DpOT0_EUlSE_E_EERNSt13tuple_elementIXT_ESt5tupleIJDpSK_EEE4typeERSR_
FNDA:1328,_ZSt3getILm0EJPSt3mapINSt7__cxx1112basic_stringIcSt11char_traitsIcESaIcEEEN8nlohmann10basic_jsonIS0_St6vectorS6_blmdSaNS7_14adl_serializerEEESt4lessIvESaISt4pairIKS6_SB_EEEZNSB_6createISI_JRKSI_EEEPT_DpOT0_EUlSJ_E_EERNSt13tuple_elementIXT_ESt5tupleIJDpSP_EEE4typeERSW_
FNDA:0,_ZSt3getILm0EJPNSt7__cxx1112basic_stringIcSt11char_traitsIcESaIcEEEZN8nlohmann10basic_jsonISt3mapSt6vectorS5_blmdSaNS7_14adl_serializerEE6createIS5_JRA1_KcEEEPT_DpOT0_EUlS6_E_EERKNSt13tuple_elementIXT_ESt5tupleIJDpSJ_EEE4typeERKSQ_
FNDA:3,_ZSt3getILm0EJPSt6vectorIN8nlohmann10basic_jsonISt3mapS0_NSt7__cxx1112basic_stringIcSt11char_traitsIcESaIcEEEblmdSaNS1_14adl_serializerEEESaISB_EEZNSB_6createISD_JEEEPT_DpOT0_EUlSE_E_EERKNSt13tuple_elementIXT_ESt5tupleIJDpSI_EEE4typeERKSP_
FNDA:1992,_ZSt3getILm0EJPSt3mapINSt7__cxx1112basic_stringIcSt11char_traitsIcESaIcEEEN8nlohmann10basic_jsonIS0_St6vectorS6_blmdSaNS7_14adl_serializerEEESt4lessIvESaISt4pairIKS6_SB_EEEZNSB_6createISI_JEEEPT_DpOT0_EUlSJ_E_EERKNSt13tuple_elementIXT_ESt5tupleIJDpSN_EEE4typeERKSU_
FNDA:15936,_ZSt3getILm0EJPNSt7__cxx1112basic_stringIcSt11char_traitsIcESaIcEEEZN8nlohmann10basic_jsonISt3mapSt6vectorS5_blmdSaNS7_14adl_serializerEE6createIS5_JRKS5_EEEPT_DpOT0_EUlS6_E_EERKNSt13tuple_elementIXT_ESt5tupleIJDpSI_EEE4typeERKSP_
FNDA:0,_ZSt3getILm0EJPSt6vectorIN8nlohmann10basic_jsonISt3mapS0_NSt7__cxx1112basic_stringIcSt11char_traitsIcESaIcEEEblmdSaNS1_14adl_serializerEEESaISB_EEZNSB_6createISD_JRKSD_EEEPT_DpOT0_EUlSE_E_EERKNSt13tuple_elementIXT_ESt5tupleIJDpSK_EEE4typeERKSR_
FNDA:1992,_ZSt3getILm0EJPSt3mapINSt7__cxx1112basic_stringIcSt11char_traitsIcESaIcEEEN8nlohmann10basic_jsonIS0_St6vectorS6_blmdSaNS7_14adl_serializerEEESt4lessIvESaISt4pairIKS6_SB_EEEZNSB_6createISI_JRKSI_EEEPT_DpOT0_EUlSJ_E_EERKNSt13tuple_elementIXT_ESt5tupleIJDpSP_EEE4typeERKSW_
FNDA:20584,_ZNSt4pairIKNSt7__cxx1112basic_stringIcSt11char_traitsIcESaIcEEEN8nlohmann10basic_jsonISt3mapSt6vectorS5_blmdSaNS7_14adl_serializerEEEEC2IJRS6_EJEEESt21piecewise_construct_tSt5tupleIJDpT_EESH_IJDpT0_EE
FNDA:20584,_ZNSt4pairIKNSt7__cxx1112basic_stringIcSt11char_traitsIcESaIcEEEN8nlohmann10basic_jsonISt3mapSt6vectorS5_blmdSaNS7_14adl_serializerEEEEC2IJRS6_EJLm0EEJEJEEERSt5tupleIJDpT_EERSG_IJDpT1_EESt12_Index_tupleIJXspT0_EEESP_IJXspT2_EEE
FNF:104
FNH:60
DA:125,47809
DA:126,47809
DA:132,6641
DA:133,6641
DA:160,54450
DA:163,19923
DA:195,13282
DA:198,19923
DA:216,6641
DA:218,6641
DA:351,41168
DA:360,27225
DA:361,27225
DA:371,20584
DA:373,20584
DA:608,20584
DA:609,20584
DA:662,20584
DA:971,6641
DA:972,6641
DA:1303,33866
DA:1304,33866
DA:1308,19923
DA:1309,19923
DA:1314,33866
DA:1315,33866
DA:1320,19923
DA:1321,19923
DA:1636,20584
DA:1641,20584
DA:1642,20584
DA:1648,20584
DA:1651,20584
DA:1652,41168
DA:1653,20584
LF:35
LH:35
end_of_record
SF:/usr/include/c++/7/typeinfo
FN:120,_ZNKSt9type_infoeqERKS_
FNDA:1,_ZNKSt9type_infoeqERKS_
FNF:1
FNH:1
DA:120,1
DA:122,1
DA:123,1
DA:124,1
LF:4
LH:4
end_of_record
SF:/usr/include/x86_64-linux-gnu/c++/7/bits/gthr-default.h
FN:247,_ZL18__gthread_active_pv
FNDA:4,_ZL18__gthread_active_pv
FNF:1
FNH:1
DA:247,4
DA:251,4
LF:2
LH:2
end_of_record
SF:/home/kpit/c_workspace/project1/header.h
FN:22,_ZN6SensorC2ERKNSt7__cxx1112basic_stringIcSt11char_traitsIcESaIcEEES7_
FN:24,_ZN6SensorD0Ev
FN:24,_ZN6SensorD2Ev
FN:26,_ZN6Sensor12MaxIntensityEv
FN:28,_ZN6Sensor7Abs_accEv
FN:30,_ZN6Sensor8GetValueEv
FN:31,_ZN6Sensor9SetMaxIntEPS_
FN:44,_ZN13AccelerometerC2ERKNSt7__cxx1112basic_stringIcSt11char_traitsIcESaIcEEEdddS7_
FN:60,_ZN5SoundC2ERKNSt7__cxx1112basic_stringIcSt11char_traitsIcESaIcEEES7_d
FNDA:1328,_ZN6SensorC2ERKNSt7__cxx1112basic_stringIcSt11char_traitsIcESaIcEEES7_
FNDA:0,_ZN6SensorD0Ev
FNDA:1328,_ZN6SensorD2Ev
FNDA:0,_ZN6Sensor12MaxIntensityEv
FNDA:0,_ZN6Sensor7Abs_accEv
FNDA:0,_ZN6Sensor8GetValueEv
FNDA:0,_ZN6Sensor9SetMaxIntEPS_
FNDA:664,_ZN13AccelerometerC2ERKNSt7__cxx1112basic_stringIcSt11char_traitsIcESaIcEEEdddS7_
FNDA:664,_ZN5SoundC2ERKNSt7__cxx1112basic_stringIcSt11char_traitsIcESaIcEEES7_d
FNF:9
FNH:4
DA:22,1328
DA:23,1328
DA:24,1328
DA:26,0
DA:28,0
DA:30,0
DA:31,0
DA:44,664
DA:46,664
DA:60,664
DA:61,664
LF:11
LH:7
end_of_record
SF:/home/kpit/c_workspace/project1/json.hpp
FN:566,_ZN8nlohmann6detail9exceptionD0Ev
FN:566,_ZN8nlohmann6detail9exceptionD2Ev
FN:566,_ZN8nlohmann6detail9exceptionC2ERKS1_
FN:570,_ZNK8nlohmann6detail9exception4whatEv
FN:579,_ZN8nlohmann6detail9exceptionC2EiPKc
FN:581,_ZN8nlohmann6detail9exception4nameERKNSt7__cxx1112basic_stringIcSt11char_traitsIcESaIcEEEi
FN:634,_ZN8nlohmann6detail11parse_errorC2ERKS1_
FN:634,_ZN8nlohmann6detail11parse_errorD0Ev
FN:634,_ZN8nlohmann6detail11parse_errorD2Ev
FN:645,_ZN8nlohmann6detail11parse_error6createEimRKNSt7__cxx1112basic_stringIcSt11char_traitsIcESaIcEEE
FN:665,_ZN8nlohmann6detail11parse_errorC2EimPKc
FN:706,_ZN8nlohmann6detail16invalid_iteratorD0Ev
FN:706,_ZN8nlohmann6detail16invalid_iteratorC2ERKS1_
FN:706,_ZN8nlohmann6detail16invalid_iteratorD2Ev
FN:709,_ZN8nlohmann6detail16invalid_iterator6createEiRKNSt7__cxx1112basic_stringIcSt11char_traitsIcESaIcEEE
FN:716,_ZN8nlohmann6detail16invalid_iteratorC2EiPKc
FN:758,_ZN8nlohmann6detail10type_errorD0Ev
FN:758,_ZN8nlohmann6detail10type_errorD2Ev
FN:758,_ZN8nlohmann6detail10type_errorC2ERKS1_
FN:761,_ZN8nlohmann6detail10type_error6createEiRKNSt7__cxx1112basic_stringIcSt11char_traitsIcESaIcEEE
FN:768,_ZN8nlohmann6detail10type_errorC2EiPKc
FN:803,_ZN8nlohmann6detail12out_of_rangeD0Ev
FN:803,_ZN8nlohmann6detail12out_of_rangeD2Ev
FN:803,_ZN8nlohmann6detail12out_of_rangeC2ERKS1_
FN:806,_ZN8nlohmann6detail12out_of_range6createEiRKNSt7__cxx1112basic_stringIcSt11char_traitsIcESaIcEEE
FN:813,_ZN8nlohmann6detail12out_of_rangeC2EiPKc
FN:840,_ZN8nlohmann6detail11other_errorD2Ev
FN:840,_ZN8nlohmann6detail11other_errorD0Ev
FN:840,_ZN8nlohmann6detail11other_errorC2ERKS1_
FN:843,_ZN8nlohmann6detail11other_error6createEiRKNSt7__cxx1112basic_stringIcSt11char_traitsIcESaIcEEE
FN:850,_ZN8nlohmann6detail11other_errorC2EiPKc
FN:1013,_ZN8nlohmann6detail9from_jsonINS_10basic_jsonISt3mapSt6vectorNSt7__cxx1112basic_stringIcSt11char_traitsIcESaIcEEEblmdSaNS_14adl_serializerEEEEEvRKT_RNSD_8string_tE
FN:1198,_ZN8nlohmann6detail9from_jsonINS_10basic_jsonISt3mapSt6vectorNSt7__cxx1112basic_stringIcSt11char_traitsIcESaIcEEEblmdSaNS_14adl_serializerEEEfLi0EEEvRKT_RT0_
FN:1288,_ZNK8nlohmann6detail12from_json_fn4callINS_10basic_jsonISt3mapSt6vectorNSt7__cxx1112basic_stringIcSt11char_traitsIcESaIcEEEblmdSaNS_14adl_serializerEEESB_EEDTcmcl9from_jsonfp_fp0_Ecvv_EERKT_RT0_NS0_12priority_tagILj1EEE
FN:1288,_ZNK8nlohmann6detail12from_json_fn4callINS_10basic_jsonISt3mapSt6vectorNSt7__cxx1112basic_stringIcSt11char_traitsIcESaIcEEEblmdSaNS_14adl_serializerEEEfEEDTcmcl9from_jsonfp_fp0_Ecvv_EERKT_RT0_NS0_12priority_tagILj1EEE
FN:1310,_ZNK8nlohmann6detail12from_json_fnclINS_10basic_jsonISt3mapSt6vectorNSt7__cxx1112basic_stringIcSt11char_traitsIcESaIcEEEblmdSaNS_14adl_serializerEEESB_EEvRKT_RT0_
FN:1310,_ZNK8nlohmann6detail12from_json_fnclINS_10basic_jsonISt3mapSt6vectorNSt7__cxx1112basic_stringIcSt11char_traitsIcESaIcEEEblmdSaNS_14adl_serializerEEEfEEvRKT_RT0_
FN:1488,_ZN8nlohmann6detail20external_constructorILNS0_7value_tE4EE9constructINS_10basic_jsonISt3mapSt6vectorNSt7__cxx1112basic_stringIcSt11char_traitsIcESaIcEEEblmdSaNS_14adl_serializerEEEEEvRT_NSG_9boolean_tE
FN:1500,_ZN8nlohmann6detail20external_constructorILNS0_7value_tE3EE9constructINS_10basic_jsonISt3mapSt6vectorNSt7__cxx1112basic_stringIcSt11char_traitsIcESaIcEEEblmdSaNS_14adl_serializerEEEEEvRT_RKNSG_8string_tE
FN:1530,_ZN8nlohmann6detail20external_constructorILNS0_7value_tE7EE9constructINS_10basic_jsonISt3mapSt6vectorNSt7__cxx1112basic_stringIcSt11char_traitsIcESaIcEEEblmdSaNS_14adl_serializerEEEEEvRT_NSG_14number_float_tE
FN:1542,_ZN8nlohmann6detail20external_constructorILNS0_7value_tE6EE9constructINS_10basic_jsonISt3mapSt6vectorNSt7__cxx1112basic_stringIcSt11char_traitsIcESaIcEEEblmdSaNS_14adl_serializerEEEEEvRT_NSG_17number_unsigned_tE
FN:1554,_ZN8nlohmann6detail20external_constructorILNS0_7value_tE5EE9constructINS_10basic_jsonISt3mapSt6vectorNSt7__cxx1112basic_stringIcSt11char_traitsIcESaIcEEEblmdSaNS_14adl_serializerEEEEEvRT_NSG_16number_integer_tE
FN:1656,_ZN8nlohmann6detail7to_jsonINS_10basic_jsonISt3mapSt6vectorNSt7__cxx1112basic_stringIcSt11char_traitsIcESaIcEEEblmdSaNS_14adl_serializerEEEbLi0EEEvRT_T0_
FN:1663,_ZN8nlohmann6detail7to_jsonINS_10basic_jsonISt3mapSt6vectorNSt7__cxx1112basic_stringIcSt11char_traitsIcESaIcEEEblmdSaNS_14adl_serializerEEESA_Li0EEEvRT_RKT0_
FN:1676,_ZN8nlohmann6detail7to_jsonINS_10basic_jsonISt3mapSt6vectorNSt7__cxx1112basic_stringIcSt11char_traitsIcESaIcEEEblmdSaNS_14adl_serializerEEEdLi0EEEvRT_T0_
FN:1683,_ZN8nlohmann6detail7to_jsonINS_10basic_jsonISt3mapSt6vectorNSt7__cxx1112basic_stringIcSt11char_traitsIcESaIcEEEblmdSaNS_14adl_serializerEEEmLi0EEEvRT_T0_
FN:1690,_ZN8nlohmann6detail7to_jsonINS_10basic_jsonISt3mapSt6vectorNSt7__cxx1112basic_stringIcSt11char_traitsIcESaIcEEEblmdSaNS_14adl_serializerEEElLi0EEEvRT_T0_
FN:1781,_ZNK8nlohmann6detail10to_json_fn4callINS_10basic_jsonISt3mapSt6vectorNSt7__cxx1112basic_stringIcSt11char_traitsIcESaIcEEEblmdSaNS_14adl_serializerEEERSB_EEDTcmcl7to_jsonfp_cl7forwardIT0_Efp0_EEcvv_EERT_OSF_NS0_12priority_tagILj1EEE
FN:1781,_ZNK8nlohmann6detail10to_json_fn4callINS_10basic_jsonISt3mapSt6vectorNSt7__cxx1112basic_stringIcSt11char_traitsIcESaIcEEEblmdSaNS_14adl_serializerEEERmEEDTcmcl7to_jsonfp_cl7forwardIT0_Efp0_EEcvv_EERT_OSF_NS0_12priority_tagILj1EEE
FN:1781,_ZNK8nlohmann6detail10to_json_fn4callINS_10basic_jsonISt3mapSt6vectorNSt7__cxx1112basic_stringIcSt11char_traitsIcESaIcEEEblmdSaNS_14adl_serializerEEERdEEDTcmcl7to_jsonfp_cl7forwardIT0_Efp0_EEcvv_EERT_OSF_NS0_12priority_tagILj1EEE
FN:1781,_ZNK8nlohmann6detail10to_json_fn4callINS_10basic_jsonISt3mapSt6vectorNSt7__cxx1112basic_stringIcSt11char_traitsIcESaIcEEEblmdSaNS_14adl_serializerEEERlEEDTcmcl7to_jsonfp_cl7forwardIT0_Efp0_EEcvv_EERT_OSF_NS0_12priority_tagILj1EEE
FN:1781,_ZNK8nlohmann6detail10to_json_fn4callINS_10basic_jsonISt3mapSt6vectorNSt7__cxx1112basic_stringIcSt11char_traitsIcESaIcEEEblmdSaNS_14adl_serializerEEERbEEDTcmcl7to_jsonfp_cl7forwardIT0_Efp0_EEcvv_EERT_OSF_NS0_12priority_tagILj1EEE
FN:1803,_ZNK8nlohmann6detail10to_json_fnclINS_10basic_jsonISt3mapSt6vectorNSt7__cxx1112basic_stringIcSt11char_traitsIcESaIcEEEblmdSaNS_14adl_serializerEEERbEEvRT_OT0_
FN:1803,_ZNK8nlohmann6detail10to_json_fnclINS_10basic_jsonISt3mapSt6vectorNSt7__cxx1112basic_stringIcSt11char_traitsIcESaIcEEEblmdSaNS_14adl_serializerEEERlEEvRT_OT0_
FN:1803,_ZNK8nlohmann6detail10to_json_fnclINS_10basic_jsonISt3mapSt6vectorNSt7__cxx1112basic_stringIcSt11char_traitsIcESaIcEEEblmdSaNS_14adl_serializerEEERmEEvRT_OT0_
FN:1803,_ZNK8nlohmann6detail10to_json_fnclINS_10basic_jsonISt3mapSt6vectorNSt7__cxx1112basic_stringIcSt11char_traitsIcESaIcEEEblmdSaNS_14adl_serializerEEERSB_EEvRT_OT0_
FN:1803,_ZNK8nlohmann6detail10to_json_fnclINS_10basic_jsonISt3mapSt6vectorNSt7__cxx1112basic_stringIcSt11char_traitsIcESaIcEEEblmdSaNS_14adl_serializerEEERdEEvRT_OT0_
FN:1857,_ZN8nlohmann6detail22input_adapter_protocolC2Ev
FN:1861,_ZN8nlohmann6detail22input_adapter_protocolD2Ev
FN:1861,_ZN8nlohmann6detail22input_adapter_protocolD0Ev
FN:1879,_ZN8nlohmann6detail20input_stream_adapterD0Ev
FN:1879,_ZN8nlohmann6detail20input_stream_adapterD2Ev
FN:1886,_ZN8nlohmann6detail20input_stream_adapterC2ERSi
FN:1897,_ZN8nlohmann6detail20input_stream_adapter13get_characterEv
FN:2090,_ZN8nlohmann6detail13input_adapterD2Ev
FN:2096,_ZN8nlohmann6detail13input_adapterC2ERSi
FN:2183,_ZN8nlohmann6detail13input_adaptercvSt10shared_ptrINS0_22input_adapter_protocolEEEv
FN:2225,_ZN8nlohmann6detail5lexerINS_10basic_jsonISt3mapSt6vectorNSt7__cxx1112basic_stringIcSt11char_traitsIcESaIcEEEblmdSaNS_14adl_serializerEEEED2Ev
FN:2256,_ZN8nlohmann6detail5lexerINS_10basic_jsonISt3mapSt6vectorNSt7__cxx1112basic_stringIcSt11char_traitsIcESaIcEEEblmdSaNS_14adl_serializerEEEE15token_type_nameENSD_10token_typeE
FN:2297,_ZN8nlohmann6detail5lexerINS_10basic_jsonISt3mapSt6vectorNSt7__cxx1112basic_stringIcSt11char_traitsIcESaIcEEEblmdSaNS_14adl_serializerEEEEC2EOSt10shared_ptrINS0_22input_adapter_protocolEE
FN:2310,_ZN8nlohmann6detail5lexerINS_10basic_jsonISt3mapSt6vectorNSt7__cxx1112basic_stringIcSt11char_traitsIcESaIcEEEblmdSaNS_14adl_serializerEEEE17get_decimal_pointEv
FN:2336,_ZN8nlohmann6detail5lexerINS_10basic_jsonISt3mapSt6vectorNSt7__cxx1112basic_stringIcSt11char_traitsIcESaIcEEEblmdSaNS_14adl_serializerEEEE13get_codepointEv
FN:2384,_ZN8nlohmann6detail5lexerINS_10basic_jsonISt3mapSt6vectorNSt7__cxx1112basic_stringIcSt11char_traitsIcESaIcEEEblmdSaNS_14adl_serializerEEEE18next_byte_in_rangeESt16initializer_listIiE
FN:2421,_ZN8nlohmann6detail5lexerINS_10basic_jsonISt3mapSt6vectorNSt7__cxx1112basic_stringIcSt11char_traitsIcESaIcEEEblmdSaNS_14adl_serializerEEEE11scan_stringEv
FN:2857,_ZN8nlohmann6detail5lexerINS_10basic_jsonISt3mapSt6vectorNSt7__cxx1112basic_stringIcSt11char_traitsIcESaIcEEEblmdSaNS_14adl_serializerEEEE6strtofERdPKcPPc
FN:2907,_ZN8nlohmann6detail5lexerINS_10basic_jsonISt3mapSt6vectorNSt7__cxx1112basic_stringIcSt11char_traitsIcESaIcEEEblmdSaNS_14adl_serializerEEEE11scan_numberEv
FN:3239,_ZN8nlohmann6detail5lexerINS_10basic_jsonISt3mapSt6vectorNSt7__cxx1112basic_stringIcSt11char_traitsIcESaIcEEEblmdSaNS_14adl_serializerEEEE12scan_literalEPKcmNSD_10token_typeE
FN:3259,_ZN8nlohmann6detail5lexerINS_10basic_jsonISt3mapSt6vectorNSt7__cxx1112basic_stringIcSt11char_traitsIcESaIcEEEblmdSaNS_14adl_serializerEEEE5resetEv
FN:3276,_ZN8nlohmann6detail5lexerINS_10basic_jsonISt3mapSt6vectorNSt7__cxx1112basic_stringIcSt11char_traitsIcESaIcEEEblmdSaNS_14adl_serializerEEEE3getEv
FN:3304,_ZN8nlohmann6detail5lexerINS_10basic_jsonISt3mapSt6vectorNSt7__cxx1112basic_stringIcSt11char_traitsIcESaIcEEEblmdSaNS_14adl_serializerEEEE5ungetEv
FN:3316,_ZN8nlohmann6detail5lexerINS_10basic_jsonISt3mapSt6vectorNSt7__cxx1112basic_stringIcSt11char_traitsIcESaIcEEEblmdSaNS_14adl_serializerEEEE3addEi
FN:3327,_ZNK8nlohmann6detail5lexerINS_10basic_jsonISt3mapSt6vectorNSt7__cxx1112basic_stringIcSt11char_traitsIcESaIcEEEblmdSaNS_14adl_serializerEEEE18get_number_integerEv
FN:3333,_ZNK8nlohmann6detail5lexerINS_10basic_jsonISt3mapSt6vectorNSt7__cxx1112basic_stringIcSt11char_traitsIcESaIcEEEblmdSaNS_14adl_serializerEEEE19get_number_unsignedEv
FN:3339,_ZNK8nlohmann6detail5lexerINS_10basic_jsonISt3mapSt6vectorNSt7__cxx1112basic_stringIcSt11char_traitsIcESaIcEEEblmdSaNS_14adl_serializerEEEE16get_number_floatEv
FN:3345,_ZN8nlohmann6detail5lexerINS_10basic_jsonISt3mapSt6vectorNSt7__cxx1112basic_stringIcSt11char_traitsIcESaIcEEEblmdSaNS_14adl_serializerEEEE10get_stringEv
FN:3355,_ZNK8nlohmann6detail5lexerINS_10basic_jsonISt3mapSt6vectorNSt7__cxx1112basic_stringIcSt11char_traitsIcESaIcEEEblmdSaNS_14adl_serializerEEEE12get_positionEv
FN:3363,_ZNK8nlohmann6detail5lexerINS_10basic_jsonISt3mapSt6vectorNSt7__cxx1112basic_stringIcSt11char_traitsIcESaIcEEEblmdSaNS_14adl_serializerEEEE16get_token_stringEv
FN:3387,_ZNK8nlohmann6detail5lexerINS_10basic_jsonISt3mapSt6vectorNSt7__cxx1112basic_stringIcSt11char_traitsIcESaIcEEEblmdSaNS_14adl_serializerEEEE17get_error_messageEv
FN:3400,_ZN8nlohmann6detail5lexerINS_10basic_jsonISt3mapSt6vectorNSt7__cxx1112basic_stringIcSt11char_traitsIcESaIcEEEblmdSaNS_14adl_serializerEEEE8skip_bomEv
FN:3424,_ZN8nlohmann6detail5lexerINS_10basic_jsonISt3mapSt6vectorNSt7__cxx1112basic_stringIcSt11char_traitsIcESaIcEEEblmdSaNS_14adl_serializerEEEE4scanEv
FN:3563,_ZN8nlohmann8json_saxINS_10basic_jsonISt3mapSt6vectorNSt7__cxx1112basic_stringIcSt11char_traitsIcESaIcEEEblmdSaNS_14adl_serializerEEEEC2Ev
FN:3665,_ZN8nlohmann8json_saxINS_10basic_jsonISt3mapSt6vectorNSt7__cxx1112basic_stringIcSt11char_traitsIcESaIcEEEblmdSaNS_14adl_serializerEEEED0Ev
FN:3665,_ZN8nlohmann8json_saxINS_10basic_jsonISt3mapSt6vectorNSt7__cxx1112basic_stringIcSt11char_traitsIcESaIcEEEblmdSaNS_14adl_serializerEEEED2Ev
FN:3685,_ZN8nlohmann6detail19json_sax_dom_parserINS_10basic_jsonISt3mapSt6vectorNSt7__cxx1112basic_stringIcSt11char_traitsIcESaIcEEEblmdSaNS_14adl_serializerEEEED2Ev
FN:3685,_ZN8nlohmann6detail19json_sax_dom_parserINS_10basic_jsonISt3mapSt6vectorNSt7__cxx1112basic_stringIcSt11char_traitsIcESaIcEEEblmdSaNS_14adl_serializerEEEED0Ev
FN:3698,_ZN8nlohmann6detail19json_sax_dom_parserINS_10basic_jsonISt3mapSt6vectorNSt7__cxx1112basic_stringIcSt11char_traitsIcESaIcEEEblmdSaNS_14adl_serializerEEEEC2ERSC_b
FN:3702,_ZN8nlohmann6detail19json_sax_dom_parserINS_10basic_jsonISt3mapSt6vectorNSt7__cxx1112basic_stringIcSt11char_traitsIcESaIcEEEblmdSaNS_14adl_serializerEEEE4nullEv
FN:3708,_ZN8nlohmann6detail19json_sax_dom_parserINS_10basic_jsonISt3mapSt6vectorNSt7__cxx1112basic_stringIcSt11char_traitsIcESaIcEEEblmdSaNS_14adl_serializerEEEE7booleanEb
FN:3714,_ZN8nlohmann6detail19json_sax_dom_parserINS_10basic_jsonISt3mapSt6vectorNSt7__cxx1112basic_stringIcSt11char_traitsIcESaIcEEEblmdSaNS_14adl_serializerEEEE14number_integerEl
FN:3720,_ZN8nlohmann6detail19json_sax_dom_parserINS_10basic_jsonISt3mapSt6vectorNSt7__cxx1112basic_stringIcSt11char_traitsIcESaIcEEEblmdSaNS_14adl_serializerEEEE15number_unsignedEm
FN:3726,_ZN8nlohmann6detail19json_sax_dom_parserINS_10basic_jsonISt3mapSt6vectorNSt7__cxx1112basic_stringIcSt11char_traitsIcESaIcEEEblmdSaNS_14adl_serializerEEEE12number_floatEdRKSA_
FN:3732,_ZN8nlohmann6detail19json_sax_dom_parserINS_10basic_jsonISt3mapSt6vectorNSt7__cxx1112basic_stringIcSt11char_traitsIcESaIcEEEblmdSaNS_14adl_serializerEEEE6stringERSA_
FN:3738,_ZN8nlohmann6detail19json_sax_dom_parserINS_10basic_jsonISt3mapSt6vectorNSt7__cxx1112basic_stringIcSt11char_traitsIcESaIcEEEblmdSaNS_14adl_serializerEEEE12start_objectEm
FN:3751,_ZN8nlohmann6detail19json_sax_dom_parserINS_10basic_jsonISt3mapSt6vectorNSt7__cxx1112basic_stringIcSt11char_traitsIcESaIcEEEblmdSaNS_14adl_serializerEEEE3keyERSA_
FN:3758,_ZN8nlohmann6detail19json_sax_dom_parserINS_10basic_jsonISt3mapSt6vectorNSt7__cxx1112basic_stringIcSt11char_traitsIcESaIcEEEblmdSaNS_14adl_serializerEEEE10end_objectEv
FN:3764,_ZN8nlohmann6detail19json_sax_dom_parserINS_10basic_jsonISt3mapSt6vectorNSt7__cxx1112basic_stringIcSt11char_traitsIcESaIcEEEblmdSaNS_14adl_serializerEEEE11start_arrayEm
FN:3777,_ZN8nlohmann6detail19json_sax_dom_parserINS_10basic_jsonISt3mapSt6vectorNSt7__cxx1112basic_stringIcSt11char_traitsIcESaIcEEEblmdSaNS_14adl_serializerEEEE9end_arrayEv
FN:3783,_ZN8nlohmann6detail19json_sax_dom_parserINS_10basic_jsonISt3mapSt6vectorNSt7__cxx1112basic_stringIcSt11char_traitsIcESaIcEEEblmdSaNS_14adl_serializerEEEE11parse_errorEmRKSA_RKNS0_9exceptionE
FN:3809,_ZNK8nlohmann6detail19json_sax_dom_parserINS_10basic_jsonISt3mapSt6vectorNSt7__cxx1112basic_stringIcSt11char_traitsIcESaIcEEEblmdSaNS_14adl_serializerEEEE10is_erroredEv
FN:3822,_ZN8nlohmann6detail19json_sax_dom_parserINS_10basic_jsonISt3mapSt6vectorNSt7__cxx1112basic_stringIcSt11char_traitsIcESaIcEEEblmdSaNS_14adl_serializerEEEE12handle_valueIRmEEPSC_OT_
FN:3822,_ZN8nlohmann6detail19json_sax_dom_parserINS_10basic_jsonISt3mapSt6vectorNSt7__cxx1112basic_stringIcSt11char_traitsIcESaIcEEEblmdSaNS_14adl_serializerEEEE12handle_valueIRbEEPSC_OT_
FN:3822,_ZN8nlohmann6detail19json_sax_dom_parserINS_10basic_jsonISt3mapSt6vectorNSt7__cxx1112basic_stringIcSt11char_traitsIcESaIcEEEblmdSaNS_14adl_serializerEEEE12handle_valueIRlEEPSC_OT_
FN:3822,_ZN8nlohmann6detail19json_sax_dom_parserINS_10basic_jsonISt3mapSt6vectorNSt7__cxx1112basic_stringIcSt11char_traitsIcESaIcEEEblmdSaNS_14adl_serializerEEEE12handle_valueINS0_7value_tEEEPSC_OT_
FN:3822,_ZN8nlohmann6detail19json_sax_dom_parserINS_10basic_jsonISt3mapSt6vectorNSt7__cxx1112basic_stringIcSt11char_traitsIcESaIcEEEblmdSaNS_14adl_serializerEEEE12handle_valueIRdEEPSC_OT_
FN:3822,_ZN8nlohmann6detail19json_sax_dom_parserINS_10basic_jsonISt3mapSt6vectorNSt7__cxx1112basic_stringIcSt11char_traitsIcESaIcEEEblmdSaNS_14adl_serializerEEEE12handle_valueIDnEEPSC_OT_
FN:3822,_ZN8nlohmann6detail19json_sax_dom_parserINS_10basic_jsonISt3mapSt6vectorNSt7__cxx1112basic_stringIcSt11char_traitsIcESaIcEEEblmdSaNS_14adl_serializerEEEE12handle_valueIRSA_EEPSC_OT_
FN:3859,_ZN8nlohmann6detail28json_sax_dom_callback_parserINS_10basic_jsonISt3mapSt6vectorNSt7__cxx1112basic_stringIcSt11char_traitsIcESaIcEEEblmdSaNS_14adl_serializerEEEED2Ev
FN:3859,_ZN8nlohmann6detail28json_sax_dom_callback_parserINS_10basic_jsonISt3mapSt6vectorNSt7__cxx1112basic_stringIcSt11char_traitsIcESaIcEEEblmdSaNS_14adl_serializerEEEED0Ev
FN:3869,_ZN8nlohmann6detail28json_sax_dom_callback_parserINS_10basic_jsonISt3mapSt6vectorNSt7__cxx1112basic_stringIcSt11char_traitsIcESaIcEEEblmdSaNS_14adl_serializerEEEEC2ERSC_St8functionIFbiNS0_6parserISC_E13parse_event_tESE_EEb
FN:3877,_ZN8nlohmann6detail28json_sax_dom_callback_parserINS_10basic_jsonISt3mapSt6vectorNSt7__cxx1112basic_stringIcSt11char_traitsIcESaIcEEEblmdSaNS_14adl_serializerEEEE4nullEv
FN:3883,_ZN8nlohmann6detail28json_sax_dom_callback_parserINS_10basic_jsonISt3mapSt6vectorNSt7__cxx1112basic_stringIcSt11char_traitsIcESaIcEEEblmdSaNS_14adl_serializerEEEE7booleanEb
FN:3889,_ZN8nlohmann6detail28json_sax_dom_callback_parserINS_10basic_jsonISt3mapSt6vectorNSt7__cxx1112basic_stringIcSt11char_traitsIcESaIcEEEblmdSaNS_14adl_serializerEEEE14number_integerEl
FN:3895,_ZN8nlohmann6detail28json_sax_dom_callback_parserINS_10basic_jsonISt3mapSt6vectorNSt7__cxx1112basic_stringIcSt11char_traitsIcESaIcEEEblmdSaNS_14adl_serializerEEEE15number_unsignedEm
FN:3901,_ZN8nlohmann6detail28json_sax_dom_callback_parserINS_10basic_jsonISt3mapSt6vectorNSt7__cxx1112basic_stringIcSt11char_traitsIcESaIcEEEblmdSaNS_14adl_serializerEEEE12number_floatEdRKSA_
FN:3907,_ZN8nlohmann6detail28json_sax_dom_callback_parserINS_10basic_jsonISt3mapSt6vectorNSt7__cxx1112basic_stringIcSt11char_traitsIcESaIcEEEblmdSaNS_14adl_serializerEEEE6stringERSA_
FN:3913,_ZN8nlohmann6detail28json_sax_dom_callback_parserINS_10basic_jsonISt3mapSt6vectorNSt7__cxx1112basic_stringIcSt11char_traitsIcESaIcEEEblmdSaNS_14adl_serializerEEEE12start_objectEm
FN:3935,_ZN8nlohmann6detail28json_sax_dom_callback_parserINS_10basic_jsonISt3mapSt6vectorNSt7__cxx1112basic_stringIcSt11char_traitsIcESaIcEEEblmdSaNS_14adl_serializerEEEE3keyERSA_
FN:3952,_ZN8nlohmann6detail28json_sax_dom_callback_parserINS_10basic_jsonISt3mapSt6vectorNSt7__cxx1112basic_stringIcSt11char_traitsIcESaIcEEEblmdSaNS_14adl_serializerEEEE10end_objectEv
FN:3987,_ZN8nlohmann6detail28json_sax_dom_callback_parserINS_10basic_jsonISt3mapSt6vectorNSt7__cxx1112basic_stringIcSt11char_traitsIcESaIcEEEblmdSaNS_14adl_serializerEEEE11start_arrayEm
FN:4008,_ZN8nlohmann6detail28json_sax_dom_callback_parserINS_10basic_jsonISt3mapSt6vectorNSt7__cxx1112basic_stringIcSt11char_traitsIcESaIcEEEblmdSaNS_14adl_serializerEEEE9end_arrayEv
FN:4039,_ZN8nlohmann6detail28json_sax_dom_callback_parserINS_10basic_jsonISt3mapSt6vectorNSt7__cxx1112basic_stringIcSt11char_traitsIcESaIcEEEblmdSaNS_14adl_serializerEEEE11parse_errorEmRKSA_RKNS0_9exceptionE
FN:4065,_ZNK8nlohmann6detail28json_sax_dom_callback_parserINS_10basic_jsonISt3mapSt6vectorNSt7__cxx1112basic_stringIcSt11char_traitsIcESaIcEEEblmdSaNS_14adl_serializerEEEE10is_erroredEv
FN:4087,_ZN8nlohmann6detail28json_sax_dom_callback_parserINS_10basic_jsonISt3mapSt6vectorNSt7__cxx1112basic_stringIcSt11char_traitsIcESaIcEEEblmdSaNS_14adl_serializerEEEE12handle_valueIRbEESt4pairIbPSC_EOT_b
FN:4087,_ZN8nlohmann6detail28json_sax_dom_callback_parserINS_10basic_jsonISt3mapSt6vectorNSt7__cxx1112basic_stringIcSt11char_traitsIcESaIcEEEblmdSaNS_14adl_serializerEEEE12handle_valueIRSA_EESt4pairIbPSC_EOT_b
FN:4087,_ZN8nlohmann6detail28json_sax_dom_callback_parserINS_10basic_jsonISt3mapSt6vectorNSt7__cxx1112basic_stringIcSt11char_traitsIcESaIcEEEblmdSaNS_14adl_serializerEEEE12handle_valueINS0_7value_tEEESt4pairIbPSC_EOT_b
FN:4087,_ZN8nlohmann6detail28json_sax_dom_callback_parserINS_10basic_jsonISt3mapSt6vectorNSt7__cxx1112basic_stringIcSt11char_traitsIcESaIcEEEblmdSaNS_14adl_serializerEEEE12handle_valueIRmEESt4pairIbPSC_EOT_b
FN:4087,_ZN8nlohmann6detail28json_sax_dom_callback_parserINS_10basic_jsonISt3mapSt6vectorNSt7__cxx1112basic_stringIcSt11char_traitsIcESaIcEEEblmdSaNS_14adl_serializerEEEE12handle_valueIRdEESt4pairIbPSC_EOT_b
FN:4087,_ZN8nlohmann6detail28json_sax_dom_callback_parserINS_10basic_jsonISt3mapSt6vectorNSt7__cxx1112basic_stringIcSt11char_traitsIcESaIcEEEblmdSaNS_14adl_serializerEEEE12handle_valueIDnEESt4pairIbPSC_EOT_b
FN:4087,_ZN8nlohmann6detail28json_sax_dom_callback_parserINS_10basic_jsonISt3mapSt6vectorNSt7__cxx1112basic_stringIcSt11char_traitsIcESaIcEEEblmdSaNS_14adl_serializerEEEE12handle_valueIRlEESt4pairIbPSC_EOT_b
FN:4254,_ZN8nlohmann6detail6parserINS_10basic_jsonISt3mapSt6vectorNSt7__cxx1112basic_stringIcSt11char_traitsIcESaIcEEEblmdSaNS_14adl_serializerEEEED2Ev
FN:4286,_ZN8nlohmann6detail6parserINS_10basic_jsonISt3mapSt6vectorNSt7__cxx1112basic_stringIcSt11char_traitsIcESaIcEEEblmdSaNS_14adl_serializerEEEEC2EOSt10shared_ptrINS0_22input_adapter_protocolEESt8functionIFbiNSD_13parse_event_tERSC_EEb
FN:4305,_ZN8nlohmann6detail6parserINS_10basic_jsonISt3mapSt6vectorNSt7__cxx1112basic_stringIcSt11char_traitsIcESaIcEEEblmdSaNS_14adl_serializerEEEE5parseEbRSC_
FN:4386,_ZN8nlohmann6detail6parserINS_10basic_jsonISt3mapSt6vectorNSt7__cxx1112basic_stringIcSt11char_traitsIcESaIcEEEblmdSaNS_14adl_serializerEEEE18sax_parse_internalEPNS_8json_saxISC_EE
FN:4672,_ZN8nlohmann6detail6parserINS_10basic_jsonISt3mapSt6vectorNSt7__cxx1112basic_stringIcSt11char_traitsIcESaIcEEEblmdSaNS_14adl_serializerEEEE9get_tokenEv
FN:4677,_ZN8nlohmann6detail6parserINS_10basic_jsonISt3mapSt6vectorNSt7__cxx1112basic_stringIcSt11char_traitsIcESaIcEEEblmdSaNS_14adl_serializerEEEE17exception_messageENS0_5lexerISC_E10token_typeE
FN:4730,_ZN8nlohmann6detail20primitive_iterator_tC2Ev
FN:4747,_ZN8nlohmann6detail20primitive_iterator_t9set_beginEv
FN:4753,_ZN8nlohmann6detail20primitive_iterator_t7set_endEv
FN:4759,_ZNK8nlohmann6detail20primitive_iterator_t8is_beginEv
FN:4770,_ZN8nlohmann6detaileqENS0_20primitive_iterator_tES1_
FN:4792,_ZN8nlohmann6detail20primitive_iterator_tppEv
FN:4849,_ZN8nlohmann6detail17internal_iteratorINS_10basic_jsonISt3mapSt6vectorNSt7__cxx1112basic_stringIcSt11char_traitsIcESaIcEEEblmdSaNS_14adl_serializerEEEEC2Ev
FN:4954,_ZN8nlohmann6detail9iter_implINS_10basic_jsonISt3mapSt6vectorNSt7__cxx1112basic_stringIcSt11char_traitsIcESaIcEEEblmdSaNS_14adl_serializerEEEEC2EPSC_
FN:4954,_ZN8nlohmann6detail9iter_implIKNS_10basic_jsonISt3mapSt6vectorNSt7__cxx1112basic_stringIcSt11char_traitsIcESaIcEEEblmdSaNS_14adl_serializerEEEEC2EPSD_
FN:4994,_ZN8nlohmann6detail9iter_implINS_10basic_jsonISt3mapSt6vectorNSt7__cxx1112basic_stringIcSt11char_traitsIcESaIcEEEblmdSaNS_14adl_serializerEEEEC2ERKSD_
FN:5015,_ZN8nlohmann6detail9iter_implINS_10basic_jsonISt3mapSt6vectorNSt7__cxx1112basic_stringIcSt11char_traitsIcESaIcEEEblmdSaNS_14adl_serializerEEEE9set_beginEv
FN:5052,_ZN8nlohmann6detail9iter_implINS_10basic_jsonISt3mapSt6vectorNSt7__cxx1112basic_stringIcSt11char_traitsIcESaIcEEEblmdSaNS_14adl_serializerEEEE7set_endEv
FN:5052,_ZN8nlohmann6detail9iter_implIKNS_10basic_jsonISt3mapSt6vectorNSt7__cxx1112basic_stringIcSt11char_traitsIcESaIcEEEblmdSaNS_14adl_serializerEEEE7set_endEv
FN:5083,_ZNK8nlohmann6detail9iter_implINS_10basic_jsonISt3mapSt6vectorNSt7__cxx1112basic_stringIcSt11char_traitsIcESaIcEEEblmdSaNS_14adl_serializerEEEEdeEv
FN:5083,_ZNK8nlohmann6detail9iter_implIKNS_10basic_jsonISt3mapSt6vectorNSt7__cxx1112basic_stringIcSt11char_traitsIcESaIcEEEblmdSaNS_14adl_serializerEEEEdeEv
FN:5120,_ZNK8nlohmann6detail9iter_implINS_10basic_jsonISt3mapSt6vectorNSt7__cxx1112basic_stringIcSt11char_traitsIcESaIcEEEblmdSaNS_14adl_serializerEEEEptEv
FN:5165,_ZN8nlohmann6detail9iter_implINS_10basic_jsonISt3mapSt6vectorNSt7__cxx1112basic_stringIcSt11char_traitsIcESaIcEEEblmdSaNS_14adl_serializerEEEEppEv
FN:5240,_ZNK8nlohmann6detail9iter_implIKNS_10basic_jsonISt3mapSt6vectorNSt7__cxx1112basic_stringIcSt11char_traitsIcESaIcEEEblmdSaNS_14adl_serializerEEEEeqERKSE_
FN:5240,_ZNK8nlohmann6detail9iter_implINS_10basic_jsonISt3mapSt6vectorNSt7__cxx1112basic_stringIcSt11char_traitsIcESaIcEEEblmdSaNS_14adl_serializerEEEEeqERKSD_
FN:5267,_ZNK8nlohmann6detail9iter_implIKNS_10basic_jsonISt3mapSt6vectorNSt7__cxx1112basic_stringIcSt11char_traitsIcESaIcEEEblmdSaNS_14adl_serializerEEEEneERKSE_
FN:5267,_ZNK8nlohmann6detail9iter_implINS_10basic_jsonISt3mapSt6vectorNSt7__cxx1112basic_stringIcSt11char_traitsIcESaIcEEEblmdSaNS_14adl_serializerEEEEneERKSD_
FN:10899,_ZN8nlohmann14adl_serializerIfvE9from_jsonIRKNS_10basic_jsonISt3mapSt6vectorNSt7__cxx1112basic_stringIcSt11char_traitsIcESaIcEEEblmdSaS0_EEfEEvOT_RT0_
FN:10899,_ZN8nlohmann14adl_serializerINSt7__cxx1112basic_stringIcSt11char_traitsIcESaIcEEEvE9from_jsonIRKNS_10basic_jsonISt3mapSt6vectorS6_blmdSaS0_EES6_EEvOT_RT0_
FN:10915,_ZN8nlohmann14adl_serializerIlvE7to_jsonINS_10basic_jsonISt3mapSt6vectorNSt7__cxx1112basic_stringIcSt11char_traitsIcESaIcEEEblmdSaS0_EERlEEvRT_OT0_
FN:10915,_ZN8nlohmann14adl_serializerImvE7to_jsonINS_10basic_jsonISt3mapSt6vectorNSt7__cxx1112basic_stringIcSt11char_traitsIcESaIcEEEblmdSaS0_EERmEEvRT_OT0_
FN:10915,_ZN8nlohmann14adl_serializerINSt7__cxx1112basic_stringIcSt11char_traitsIcESaIcEEEvE7to_jsonINS_10basic_jsonISt3mapSt6vectorS6_blmdSaS0_EERS6_EEvRT_OT0_
FN:10915,_ZN8nlohmann14adl_serializerIdvE7to_jsonINS_10basic_jsonISt3mapSt6vectorNSt7__cxx1112basic_stringIcSt11char_traitsIcESaIcEEEblmdSaS0_EERdEEvRT_OT0_
FN:10915,_ZN8nlohmann14adl_serializerIbvE7to_jsonINS_10basic_jsonISt3mapSt6vectorNSt7__cxx1112basic_stringIcSt11char_traitsIcESaIcEEEblmdSaS0_EERbEEvRT_OT0_
FN:11671,_ZN8nlohmann10basic_jsonISt3mapSt6vectorNSt7__cxx1112basic_stringIcSt11char_traitsIcESaIcEEEblmdSaNS_14adl_serializerEE6createIS1_IS8_SA_St4lessIvESaISt4pairIKS8_SA_EEEJRKSI_EEEPT_DpOT0_
FN:11671,_ZN8nlohmann10basic_jsonISt3mapSt6vectorNSt7__cxx1112basic_stringIcSt11char_traitsIcESaIcEEEblmdSaNS_14adl_serializerEE6createIS8_JRKS8_EEEPT_DpOT0_
FN:11671,_ZN8nlohmann10basic_jsonISt3mapSt6vectorNSt7__cxx1112basic_stringIcSt11char_traitsIcESaIcEEEblmdSaNS_14adl_serializerEE6createIS2_ISA_SaISA_EEJRKSD_EEEPT_DpOT0_
FN:11671,_ZN8nlohmann10basic_jsonISt3mapSt6vectorNSt7__cxx1112basic_stringIcSt11char_traitsIcESaIcEEEblmdSaNS_14adl_serializerEE6createIS2_ISA_SaISA_EEJEEEPT_DpOT0_
FN:11671,_ZN8nlohmann10basic_jsonISt3mapSt6vectorNSt7__cxx1112basic_stringIcSt11char_traitsIcESaIcEEEblmdSaNS_14adl_serializerEE6createIS8_JRA1_KcEEEPT_DpOT0_
FN:11671,_ZN8nlohmann10basic_jsonISt3mapSt6vectorNSt7__cxx1112basic_stringIcSt11char_traitsIcESaIcEEEblmdSaNS_14adl_serializerEE6createIS1_IS8_SA_St4lessIvESaISt4pairIKS8_SA_EEEJEEEPT_DpOT0_
FN:11676,_ZZN8nlohmann10basic_jsonISt3mapSt6vectorNSt7__cxx1112basic_stringIcSt11char_traitsIcESaIcEEEblmdSaNS_14adl_serializerEE6createIS1_IS8_SA_St4lessIvESaISt4pairIKS8_SA_EEEJRKSI_EEEPT_DpOT0_ENKUlPSI_E_clESQ_
FN:11676,_ZZN8nlohmann10basic_jsonISt3mapSt6vectorNSt7__cxx1112basic_stringIcSt11char_traitsIcESaIcEEEblmdSaNS_14adl_serializerEE6createIS2_ISA_SaISA_EEJRKSD_EEEPT_DpOT0_ENKUlPSD_E_clESL_
FN:11676,_ZZN8nlohmann10basic_jsonISt3mapSt6vectorNSt7__cxx1112basic_stringIcSt11char_traitsIcESaIcEEEblmdSaNS_14adl_serializerEE6createIS8_JRKS8_EEEPT_DpOT0_ENKUlPS8_E_clESJ_
FN:11676,_ZZN8nlohmann10basic_jsonISt3mapSt6vectorNSt7__cxx1112basic_stringIcSt11char_traitsIcESaIcEEEblmdSaNS_14adl_serializerEE6createIS2_ISA_SaISA_EEJEEEPT_DpOT0_ENKUlPSD_E_clESJ_
FN:11676,_ZZN8nlohmann10basic_jsonISt3mapSt6vectorNSt7__cxx1112basic_stringIcSt11char_traitsIcESaIcEEEblmdSaNS_14adl_serializerEE6createIS1_IS8_SA_St4lessIvESaISt4pairIKS8_SA_EEEJEEEPT_DpOT0_ENKUlPSI_E_clESO_
FN:11676,_ZZN8nlohmann10basic_jsonISt3mapSt6vectorNSt7__cxx1112basic_stringIcSt11char_traitsIcESaIcEEEblmdSaNS_14adl_serializerEE6createIS8_JRA1_KcEEEPT_DpOT0_ENKUlPS8_E_clESK_
FN:11734,_ZN8nlohmann10basic_jsonISt3mapSt6vectorNSt7__cxx1112basic_stringIcSt11char_traitsIcESaIcEEEblmdSaNS_14adl_serializerEE10json_valueC2Eb
FN:11736,_ZN8nlohmann10basic_jsonISt3mapSt6vectorNSt7__cxx1112basic_stringIcSt11char_traitsIcESaIcEEEblmdSaNS_14adl_serializerEE10json_valueC2El
FN:11738,_ZN8nlohmann10basic_jsonISt3mapSt6vectorNSt7__cxx1112basic_stringIcSt11char_traitsIcESaIcEEEblmdSaNS_14adl_serializerEE10json_valueC2Em
FN:11740,_ZN8nlohmann10basic_jsonISt3mapSt6vectorNSt7__cxx1112basic_stringIcSt11char_traitsIcESaIcEEEblmdSaNS_14adl_serializerEE10json_valueC2Ed
FN:11742,_ZN8nlohmann10basic_jsonISt3mapSt6vectorNSt7__cxx1112basic_stringIcSt11char_traitsIcESaIcEEEblmdSaNS_14adl_serializerEE10json_valueC2ENS_6detail7value_tE
FN:11807,_ZN8nlohmann10basic_jsonISt3mapSt6vectorNSt7__cxx1112basic_stringIcSt11char_traitsIcESaIcEEEblmdSaNS_14adl_serializerEE10json_valueC2ERKS8_
FN:11819,_ZN8nlohmann10basic_jsonISt3mapSt6vectorNSt7__cxx1112basic_stringIcSt11char_traitsIcESaIcEEEblmdSaNS_14adl_serializerEE10json_valueC2ERKS1_IS8_SA_St4lessIvESaISt4pairIKS8_SA_EEE
FN:11831,_ZN8nlohmann10basic_jsonISt3mapSt6vectorNSt7__cxx1112basic_stringIcSt11char_traitsIcESaIcEEEblmdSaNS_14adl_serializerEE10json_valueC2ERKS2_ISA_SaISA_EE
FN:11842,_ZN8nlohmann10basic_jsonISt3mapSt6vectorNSt7__cxx1112basic_stringIcSt11char_traitsIcESaIcEEEblmdSaNS_14adl_serializerEE10json_value7destroyENS_6detail7value_tE
FN:11887,_ZNK8nlohmann10basic_jsonISt3mapSt6vectorNSt7__cxx1112basic_stringIcSt11char_traitsIcESaIcEEEblmdSaNS_14adl_serializerEE16assert_invariantEv
FN:12007,_ZN8nlohmann10basic_jsonISt3mapSt6vectorNSt7__cxx1112basic_stringIcSt11char_traitsIcESaIcEEEblmdSaNS_14adl_serializerEEC2ENS_6detail7value_tE
FN:12031,_ZN8nlohmann10basic_jsonISt3mapSt6vectorNSt7__cxx1112basic_stringIcSt11char_traitsIcESaIcEEEblmdSaNS_14adl_serializerEEC2EDn
FN:12098,_ZN8nlohmann10basic_jsonISt3mapSt6vectorNSt7__cxx1112basic_stringIcSt11char_traitsIcESaIcEEEblmdSaNS_14adl_serializerEEC2IRmmLi0EEEOT_
FN:12098,_ZN8nlohmann10basic_jsonISt3mapSt6vectorNSt7__cxx1112basic_stringIcSt11char_traitsIcESaIcEEEblmdSaNS_14adl_serializerEEC2IRbbLi0EEEOT_
FN:12098,_ZN8nlohmann10basic_jsonISt3mapSt6vectorNSt7__cxx1112basic_stringIcSt11char_traitsIcESaIcEEEblmdSaNS_14adl_serializerEEC2IRS8_S8_Li0EEEOT_
FN:12098,_ZN8nlohmann10basic_jsonISt3mapSt6vectorNSt7__cxx1112basic_stringIcSt11char_traitsIcESaIcEEEblmdSaNS_14adl_serializerEEC2IRddLi0EEEOT_
FN:12098,_ZN8nlohmann10basic_jsonISt3mapSt6vectorNSt7__cxx1112basic_stringIcSt11char_traitsIcESaIcEEEblmdSaNS_14adl_serializerEEC2IRllLi0EEEOT_
FN:12600,_ZN8nlohmann10basic_jsonISt3mapSt6vectorNSt7__cxx1112basic_stringIcSt11char_traitsIcESaIcEEEblmdSaNS_14adl_serializerEEC2ERKSA_
FN:12683,_ZN8nlohmann10basic_jsonISt3mapSt6vectorNSt7__cxx1112basic_stringIcSt11char_traitsIcESaIcEEEblmdSaNS_14adl_serializerEEC2EOSA_
FN:12720,_ZN8nlohmann10basic_jsonISt3mapSt6vectorNSt7__cxx1112basic_stringIcSt11char_traitsIcESaIcEEEblmdSaNS_14adl_serializerEEaSESA_
FN:12753,_ZN8nlohmann10basic_jsonISt3mapSt6vectorNSt7__cxx1112basic_stringIcSt11char_traitsIcESaIcEEEblmdSaNS_14adl_serializerEED2Ev
FN:12957,_ZNK8nlohmann10basic_jsonISt3mapSt6vectorNSt7__cxx1112basic_stringIcSt11char_traitsIcESaIcEEEblmdSaNS_14adl_serializerEE10is_booleanEv
FN:13016,_ZNK8nlohmann10basic_jsonISt3mapSt6vectorNSt7__cxx1112basic_stringIcSt11char_traitsIcESaIcEEEblmdSaNS_14adl_serializerEE17is_number_integerEv
FN:13044,_ZNK8nlohmann10basic_jsonISt3mapSt6vectorNSt7__cxx1112basic_stringIcSt11char_traitsIcESaIcEEEblmdSaNS_14adl_serializerEE18is_number_unsignedEv
FN:13072,_ZNK8nlohmann10basic_jsonISt3mapSt6vectorNSt7__cxx1112basic_stringIcSt11char_traitsIcESaIcEEEblmdSaNS_14adl_serializerEE15is_number_floatEv
FN:13094,_ZNK8nlohmann10basic_jsonISt3mapSt6vectorNSt7__cxx1112basic_stringIcSt11char_traitsIcESaIcEEEblmdSaNS_14adl_serializerEE9is_objectEv
FN:13116,_ZNK8nlohmann10basic_jsonISt3mapSt6vectorNSt7__cxx1112basic_stringIcSt11char_traitsIcESaIcEEEblmdSaNS_14adl_serializerEE8is_arrayEv
FN:13138,_ZNK8nlohmann10basic_jsonISt3mapSt6vectorNSt7__cxx1112basic_stringIcSt11char_traitsIcESaIcEEEblmdSaNS_14adl_serializerEE9is_stringEv
FN:13165,_ZNK8nlohmann10basic_jsonISt3mapSt6vectorNSt7__cxx1112basic_stringIcSt11char_traitsIcESaIcEEEblmdSaNS_14adl_serializerEE12is_discardedEv
FN:13191,_ZNK8nlohmann10basic_jsonISt3mapSt6vectorNSt7__cxx1112basic_stringIcSt11char_traitsIcESaIcEEEblmdSaNS_14adl_serializerEEcvNS_6detail7value_tEEv
FN:13245,_ZNK8nlohmann10basic_jsonISt3mapSt6vectorNSt7__cxx1112basic_stringIcSt11char_traitsIcESaIcEEEblmdSaNS_14adl_serializerEE12get_impl_ptrEPKS8_
FN:13257,_ZNK8nlohmann10basic_jsonISt3mapSt6vectorNSt7__cxx1112basic_stringIcSt11char_traitsIcESaIcEEEblmdSaNS_14adl_serializerEE12get_impl_ptrEPKb
FN:13269,_ZNK8nlohmann10basic_jsonISt3mapSt6vectorNSt7__cxx1112basic_stringIcSt11char_traitsIcESaIcEEEblmdSaNS_14adl_serializerEE12get_impl_ptrEPKl
FN:13281,_ZNK8nlohmann10basic_jsonISt3mapSt6vectorNSt7__cxx1112basic_stringIcSt11char_traitsIcESaIcEEEblmdSaNS_14adl_serializerEE12get_impl_ptrEPKm
FN:13293,_ZNK8nlohmann10basic_jsonISt3mapSt6vectorNSt7__cxx1112basic_stringIcSt11char_traitsIcESaIcEEEblmdSaNS_14adl_serializerEE12get_impl_ptrEPKd
FN:13418,_ZNK8nlohmann10basic_jsonISt3mapSt6vectorNSt7__cxx1112basic_stringIcSt11char_traitsIcESaIcEEEblmdSaNS_14adl_serializerEE3getIS8_S8_Li0EEET0_v
FN:13418,_ZNK8nlohmann10basic_jsonISt3mapSt6vectorNSt7__cxx1112basic_stringIcSt11char_traitsIcESaIcEEEblmdSaNS_14adl_serializerEE3getIffLi0EEET0_v
FN:13580,_ZNK8nlohmann10basic_jsonISt3mapSt6vectorNSt7__cxx1112basic_stringIcSt11char_traitsIcESaIcEEEblmdSaNS_14adl_serializerEE7get_ptrIPKdLi0EEEKT_v
FN:13580,_ZNK8nlohmann10basic_jsonISt3mapSt6vectorNSt7__cxx1112basic_stringIcSt11char_traitsIcESaIcEEEblmdSaNS_14adl_serializerEE7get_ptrIPKmLi0EEEKT_v
FN:13580,_ZNK8nlohmann10basic_jsonISt3mapSt6vectorNSt7__cxx1112basic_stringIcSt11char_traitsIcESaIcEEEblmdSaNS_14adl_serializerEE7get_ptrIPKS8_Li0EEEKT_v
FN:13580,_ZNK8nlohmann10basic_jsonISt3mapSt6vectorNSt7__cxx1112basic_stringIcSt11char_traitsIcESaIcEEEblmdSaNS_14adl_serializerEE7get_ptrIPKbLi0EEEKT_v
FN:13580,_ZNK8nlohmann10basic_jsonISt3mapSt6vectorNSt7__cxx1112basic_stringIcSt11char_traitsIcESaIcEEEblmdSaNS_14adl_serializerEE7get_ptrIPKlLi0EEEKT_v
FN:13689,_ZNK8nlohmann10basic_jsonISt3mapSt6vectorNSt7__cxx1112basic_stringIcSt11char_traitsIcESaIcEEEblmdSaNS_14adl_serializerEEcvT_IfLi0EEEv
FN:13689,_ZNK8nlohmann10basic_jsonISt3mapSt6vectorNSt7__cxx1112basic_stringIcSt11char_traitsIcESaIcEEEblmdSaNS_14adl_serializerEEcvT_IS8_Li0EEEv
FN:14212,_ZNK8nlohmann10basic_jsonISt3mapSt6vectorNSt7__cxx1112basic_stringIcSt11char_traitsIcESaIcEEEblmdSaNS_14adl_serializerEE5valueIS8_Li0EEET_RKS8_RKSC_
FN:14212,_ZNK8nlohmann10basic_jsonISt3mapSt6vectorNSt7__cxx1112basic_stringIcSt11char_traitsIcESaIcEEEblmdSaNS_14adl_serializerEE5valueIfLi0EEET_RKS8_RKSC_
FN:14234,_ZNK8nlohmann10basic_jsonISt3mapSt6vectorNSt7__cxx1112basic_stringIcSt11char_traitsIcESaIcEEEblmdSaNS_14adl_serializerEE5valueERKS8_PKc
FN:14446,_ZN8nlohmann10basic_jsonISt3mapSt6vectorNSt7__cxx1112basic_stringIcSt11char_traitsIcESaIcEEEblmdSaNS_14adl_serializerEE5eraseINS_6detail9iter_implISA_EELi0EEET_SF_
FN:14741,_ZNK8nlohmann10basic_jsonISt3mapSt6vectorNSt7__cxx1112basic_stringIcSt11char_traitsIcESaIcEEEblmdSaNS_14adl_serializerEE4findIRKS8_EENS_6detail9iter_implIKSA_EEOT_
FN:14815,_ZN8nlohmann10basic_jsonISt3mapSt6vectorNSt7__cxx1112basic_stringIcSt11char_traitsIcESaIcEEEblmdSaNS_14adl_serializerEE5beginEv
FN:14886,_ZN8nlohmann10basic_jsonISt3mapSt6vectorNSt7__cxx1112basic_stringIcSt11char_traitsIcESaIcEEEblmdSaNS_14adl_serializerEE3endEv
FN:14896,_ZNK8nlohmann10basic_jsonISt3mapSt6vectorNSt7__cxx1112basic_stringIcSt11char_traitsIcESaIcEEEblmdSaNS_14adl_serializerEE3endEv
FN:14926,_ZNK8nlohmann10basic_jsonISt3mapSt6vectorNSt7__cxx1112basic_stringIcSt11char_traitsIcESaIcEEEblmdSaNS_14adl_serializerEE4cendEv
FN:15325,_ZNK8nlohmann10basic_jsonISt3mapSt6vectorNSt7__cxx1112basic_stringIcSt11char_traitsIcESaIcEEEblmdSaNS_14adl_serializerEE4sizeEv
FN:15395,_ZNK8nlohmann10basic_jsonISt3mapSt6vectorNSt7__cxx1112basic_stringIcSt11char_traitsIcESaIcEEEblmdSaNS_14adl_serializerEE8max_sizeEv
FN:16854,_ZN8nlohmann10basic_jsonISt3mapSt6vectorNSt7__cxx1112basic_stringIcSt11char_traitsIcESaIcEEEblmdSaNS_14adl_serializerEE5parseEONS_6detail13input_adapterESt8functionIFbiNSB_6parserISA_E13parse_event_tERSA_EEb
FN:17041,_ZNK8nlohmann10basic_jsonISt3mapSt6vectorNSt7__cxx1112basic_stringIcSt11char_traitsIcESaIcEEEblmdSaNS_14adl_serializerEE9type_nameEv
FNDA:0,_ZN8nlohmann6detail9exceptionC2ERKS1_
FNDA:0,_ZN8nlohmann6detail9exceptionD0Ev
FNDA:0,_ZN8nlohmann6detail9exceptionD2Ev
FNDA:0,_ZNK8nlohmann6detail9exception4whatEv
FNDA:0,_ZN8nlohmann6detail9exceptionC2EiPKc
FNDA:0,_ZN8nlohmann6detail9exception4nameERKNSt7__cxx1112basic_stringIcSt11char_traitsIcESaIcEEEi
FNDA:0,_ZN8nlohmann6detail11parse_errorD0Ev
FNDA:0,_ZN8nlohmann6detail11parse_errorD2Ev
FNDA:0,_ZN8nlohmann6detail11parse_errorC2ERKS1_
FNDA:0,_ZN8nlohmann6detail11parse_error6createEimRKNSt7__cxx1112basic_stringIcSt11char_traitsIcESaIcEEE
FNDA:0,_ZN8nlohmann6detail11parse_errorC2EimPKc
FNDA:0,_ZN8nlohmann6detail16invalid_iteratorD0Ev
FNDA:0,_ZN8nlohmann6detail16invalid_iteratorD2Ev
FNDA:0,_ZN8nlohmann6detail16invalid_iteratorC2ERKS1_
FNDA:0,_ZN8nlohmann6detail16invalid_iterator6createEiRKNSt7__cxx1112basic_stringIcSt11char_traitsIcESaIcEEE
FNDA:0,_ZN8nlohmann6detail16invalid_iteratorC2EiPKc
FNDA:0,_ZN8nlohmann6detail10type_errorD0Ev
FNDA:0,_ZN8nlohmann6detail10type_errorD2Ev
FNDA:0,_ZN8nlohmann6detail10type_errorC2ERKS1_
FNDA:0,_ZN8nlohmann6detail10type_error6createEiRKNSt7__cxx1112basic_stringIcSt11char_traitsIcESaIcEEE
FNDA:0,_ZN8nlohmann6detail10type_errorC2EiPKc
FNDA:0,_ZN8nlohmann6detail12out_of_rangeD0Ev
FNDA:0,_ZN8nlohmann6detail12out_of_rangeD2Ev
FNDA:0,_ZN8nlohmann6detail12out_of_rangeC2ERKS1_
FNDA:0,_ZN8nlohmann6detail12out_of_range6createEiRKNSt7__cxx1112basic_stringIcSt11char_traitsIcESaIcEEE
FNDA:0,_ZN8nlohmann6detail12out_of_rangeC2EiPKc
FNDA:0,_ZN8nlohmann6detail11other_errorD0Ev
FNDA:0,_ZN8nlohmann6detail11other_errorD2Ev
FNDA:0,_ZN8nlohmann6detail11other_errorC2ERKS1_
FNDA:0,_ZN8nlohmann6detail11other_error6createEiRKNSt7__cxx1112basic_stringIcSt11char_traitsIcESaIcEEE
FNDA:0,_ZN8nlohmann6detail11other_errorC2EiPKc
FNDA:1328,_ZN8nlohmann6detail9from_jsonINS_10basic_jsonISt3mapSt6vectorNSt7__cxx1112basic_stringIcSt11char_traitsIcESaIcEEEblmdSaNS_14adl_serializerEEEEEvRKT_RNSD_8string_tE
FNDA:2656,_ZN8nlohmann6detail9from_jsonINS_10basic_jsonISt3mapSt6vectorNSt7__cxx1112basic_stringIcSt11char_traitsIcESaIcEEEblmdSaNS_14adl_serializerEEEfLi0EEEvRKT_RT0_
FNDA:1328,_ZNK8nlohmann6detail12from_json_fn4callINS_10basic_jsonISt3mapSt6vectorNSt7__cxx1112basic_stringIcSt11char_traitsIcESaIcEEEblmdSaNS_14adl_serializerEEESB_EEDTcmcl9from_jsonfp_fp0_Ecvv_EERKT_RT0_NS0_12priority_tagILj1EEE
FNDA:2656,_ZNK8nlohmann6detail12from_json_fn4callINS_10basic_jsonISt3mapSt6vectorNSt7__cxx1112basic_stringIcSt11char_traitsIcESaIcEEEblmdSaNS_14adl_serializerEEEfEEDTcmcl9from_jsonfp_fp0_Ecvv_EERKT_RT0_NS0_12priority_tagILj1EEE
FNDA:1328,_ZNK8nlohmann6detail12from_json_fnclINS_10basic_jsonISt3mapSt6vectorNSt7__cxx1112basic_stringIcSt11char_traitsIcESaIcEEEblmdSaNS_14adl_serializerEEESB_EEvRKT_RT0_
FNDA:2656,_ZNK8nlohmann6detail12from_json_fnclINS_10basic_jsonISt3mapSt6vectorNSt7__cxx1112basic_stringIcSt11char_traitsIcESaIcEEEblmdSaNS_14adl_serializerEEEfEEvRKT_RT0_
FNDA:0,_ZN8nlohmann6detail20external_constructorILNS0_7value_tE4EE9constructINS_10basic_jsonISt3mapSt6vectorNSt7__cxx1112basic_stringIcSt11char_traitsIcESaIcEEEblmdSaNS_14adl_serializerEEEEEvRT_NSG_9boolean_tE
FNDA:2656,_ZN8nlohmann6detail20external_constructorILNS0_7value_tE3EE9constructINS_10basic_jsonISt3mapSt6vectorNSt7__cxx1112basic_stringIcSt11char_traitsIcESaIcEEEblmdSaNS_14adl_serializerEEEEEvRT_RKNSG_8string_tE
FNDA:16475,_ZN8nlohmann6detail20external_constructorILNS0_7value_tE7EE9constructINS_10basic_jsonISt3mapSt6vectorNSt7__cxx1112basic_stringIcSt11char_traitsIcESaIcEEEblmdSaNS_14adl_serializerEEEEEvRT_NSG_14number_float_tE
FNDA:1380,_ZN8nlohmann6detail20external_constructorILNS0_7value_tE6EE9constructINS_10basic_jsonISt3mapSt6vectorNSt7__cxx1112basic_stringIcSt11char_traitsIcESaIcEEEblmdSaNS_14adl_serializerEEEEEvRT_NSG_17number_unsigned_tE
FNDA:73,_ZN8nlohmann6detail20external_constructorILNS0_7value_tE5EE9constructINS_10basic_jsonISt3mapSt6vectorNSt7__cxx1112basic_stringIcSt11char_traitsIcESaIcEEEblmdSaNS_14adl_serializerEEEEEvRT_NSG_16number_integer_tE
FNDA:0,_ZN8nlohmann6detail7to_jsonINS_10basic_jsonISt3mapSt6vectorNSt7__cxx1112basic_stringIcSt11char_traitsIcESaIcEEEblmdSaNS_14adl_serializerEEEbLi0EEEvRT_T0_
FNDA:2656,_ZN8nlohmann6detail7to_jsonINS_10basic_jsonISt3mapSt6vectorNSt7__cxx1112basic_stringIcSt11char_traitsIcESaIcEEEblmdSaNS_14adl_serializerEEESA_Li0EEEvRT_RKT0_
FNDA:16475,_ZN8nlohmann6detail7to_jsonINS_10basic_jsonISt3mapSt6vectorNSt7__cxx1112basic_stringIcSt11char_traitsIcESaIcEEEblmdSaNS_14adl_serializerEEEdLi0EEEvRT_T0_
FNDA:1380,_ZN8nlohmann6detail7to_jsonINS_10basic_jsonISt3mapSt6vectorNSt7__cxx1112basic_stringIcSt11char_traitsIcESaIcEEEblmdSaNS_14adl_serializerEEEmLi0EEEvRT_T0_
FNDA:73,_ZN8nlohmann6detail7to_jsonINS_10basic_jsonISt3mapSt6vectorNSt7__cxx1112basic_stringIcSt11char_traitsIcESaIcEEEblmdSaNS_14adl_serializerEEElLi0EEEvRT_T0_
FNDA:16475,_ZNK8nlohmann6detail10to_json_fn4callINS_10basic_jsonISt3mapSt6vectorNSt7__cxx1112basic_stringIcSt11char_traitsIcESaIcEEEblmdSaNS_14adl_serializerEEERdEEDTcmcl7to_jsonfp_cl7forwardIT0_Efp0_EEcvv_EERT_OSF_NS0_12priority_tagILj1EEE
FNDA:1380,_ZNK8nlohmann6detail10to_json_fn4callINS_10basic_jsonISt3mapSt6vectorNSt7__cxx1112basic_stringIcSt11char_traitsIcESaIcEEEblmdSaNS_14adl_serializerEEERmEEDTcmcl7to_jsonfp_cl7forwardIT0_Efp0_EEcvv_EERT_OSF_NS0_12priority_tagILj1EEE
FNDA:73,_ZNK8nlohmann6detail10to_json_fn4callINS_10basic_jsonISt3mapSt6vectorNSt7__cxx1112basic_stringIcSt11char_traitsIcESaIcEEEblmdSaNS_14adl_serializerEEERlEEDTcmcl7to_jsonfp_cl7forwardIT0_Efp0_EEcvv_EERT_OSF_NS0_12priority_tagILj1EEE
FNDA:0,_ZNK8nlohmann6detail10to_json_fn4callINS_10basic_jsonISt3mapSt6vectorNSt7__cxx1112basic_stringIcSt11char_traitsIcESaIcEEEblmdSaNS_14adl_serializerEEERbEEDTcmcl7to_jsonfp_cl7forwardIT0_Efp0_EEcvv_EERT_OSF_NS0_12priority_tagILj1EEE
FNDA:2656,_ZNK8nlohmann6detail10to_json_fn4callINS_10basic_jsonISt3mapSt6vectorNSt7__cxx1112basic_stringIcSt11char_traitsIcESaIcEEEblmdSaNS_14adl_serializerEEERSB_EEDTcmcl7to_jsonfp_cl7forwardIT0_Efp0_EEcvv_EERT_OSF_NS0_12priority_tagILj1EEE
FNDA:16475,_ZNK8nlohmann6detail10to_json_fnclINS_10basic_jsonISt3mapSt6vectorNSt7__cxx1112basic_stringIcSt11char_traitsIcESaIcEEEblmdSaNS_14adl_serializerEEERdEEvRT_OT0_
FNDA:1380,_ZNK8nlohmann6detail10to_json_fnclINS_10basic_jsonISt3mapSt6vectorNSt7__cxx1112basic_stringIcSt11char_traitsIcESaIcEEEblmdSaNS_14adl_serializerEEERmEEvRT_OT0_
FNDA:73,_ZNK8nlohmann6detail10to_json_fnclINS_10basic_jsonISt3mapSt6vectorNSt7__cxx1112basic_stringIcSt11char_traitsIcESaIcEEEblmdSaNS_14adl_serializerEEERlEEvRT_OT0_
FNDA:0,_ZNK8nlohmann6detail10to_json_fnclINS_10basic_jsonISt3mapSt6vectorNSt7__cxx1112basic_stringIcSt11char_traitsIcESaIcEEEblmdSaNS_14adl_serializerEEERbEEvRT_OT0_
FNDA:2656,_ZNK8nlohmann6detail10to_json_fnclINS_10basic_jsonISt3mapSt6vectorNSt7__cxx1112basic_stringIcSt11char_traitsIcESaIcEEEblmdSaNS_14adl_serializerEEERSB_EEvRT_OT0_
FNDA:1,_ZN8nlohmann6detail22input_adapter_protocolC2Ev
FNDA:0,_ZN8nlohmann6detail22input_adapter_protocolD0Ev
FNDA:1,_ZN8nlohmann6detail22input_adapter_protocolD2Ev
FNDA:0,_ZN8nlohmann6detail20input_stream_adapterD0Ev
FNDA:1,_ZN8nlohmann6detail20input_stream_adapterD2Ev
FNDA:1,_ZN8nlohmann6detail20input_stream_adapterC2ERSi
FNDA:802298,_ZN8nlohmann6detail20input_stream_adapter13get_characterEv
FNDA:1,_ZN8nlohmann6detail13input_adapterD2Ev
FNDA:1,_ZN8nlohmann6detail13input_adapterC2ERSi
FNDA:1,_ZN8nlohmann6detail13input_adaptercvSt10shared_ptrINS0_22input_adapter_protocolEEEv
FNDA:1,_ZN8nlohmann6detail5lexerINS_10basic_jsonISt3mapSt6vectorNSt7__cxx1112basic_stringIcSt11char_traitsIcESaIcEEEblmdSaNS_14adl_serializerEEEED2Ev
FNDA:0,_ZN8nlohmann6detail5lexerINS_10basic_jsonISt3mapSt6vectorNSt7__cxx1112basic_stringIcSt11char_traitsIcESaIcEEEblmdSaNS_14adl_serializerEEEE15token_type_nameENSD_10token_typeE
FNDA:1,_ZN8nlohmann6detail5lexerINS_10basic_jsonISt3mapSt6vectorNSt7__cxx1112basic_stringIcSt11char_traitsIcESaIcEEEblmdSaNS_14adl_serializerEEEEC2EOSt10shared_ptrINS0_22input_adapter_protocolEE
FNDA:1,_ZN8nlohmann6detail5lexerINS_10basic_jsonISt3mapSt6vectorNSt7__cxx1112basic_stringIcSt11char_traitsIcESaIcEEEblmdSaNS_14adl_serializerEEEE17get_decimal_pointEv
FNDA:0,_ZN8nlohmann6detail5lexerINS_10basic_jsonISt3mapSt6vectorNSt7__cxx1112basic_stringIcSt11char_traitsIcESaIcEEEblmdSaNS_14adl_serializerEEEE13get_codepointEv
FNDA:10624,_ZN8nlohmann6detail5lexerINS_10basic_jsonISt3mapSt6vectorNSt7__cxx1112basic_stringIcSt11char_traitsIcESaIcEEEblmdSaNS_14adl_serializerEEEE18next_byte_in_rangeESt16initializer_listIiE
FNDA:23240,_ZN8nlohmann6detail5lexerINS_10basic_jsonISt3mapSt6vectorNSt7__cxx1112basic_stringIcSt11char_traitsIcESaIcEEEblmdSaNS_14adl_serializerEEEE11scan_stringEv
FNDA:16475,_ZN8nlohmann6detail5lexerINS_10basic_jsonISt3mapSt6vectorNSt7__cxx1112basic_stringIcSt11char_traitsIcESaIcEEEblmdSaNS_14adl_serializerEEEE6strtofERdPKcPPc
FNDA:17928,_ZN8nlohmann6detail5lexerINS_10basic_jsonISt3mapSt6vectorNSt7__cxx1112basic_stringIcSt11char_traitsIcESaIcEEEblmdSaNS_14adl_serializerEEEE11scan_numberEv
FNDA:0,_ZN8nlohmann6detail5lexerINS_10basic_jsonISt3mapSt6vectorNSt7__cxx1112basic_stringIcSt11char_traitsIcESaIcEEEblmdSaNS_14adl_serializerEEEE12scan_literalEPKcmNSD_10token_typeE
FNDA:41168,_ZN8nlohmann6detail5lexerINS_10basic_jsonISt3mapSt6vectorNSt7__cxx1112basic_stringIcSt11char_traitsIcESaIcEEEblmdSaNS_14adl_serializerEEEE5resetEv
FNDA:820227,_ZN8nlohmann6detail5lexerINS_10basic_jsonISt3mapSt6vectorNSt7__cxx1112basic_stringIcSt11char_traitsIcESaIcEEEblmdSaNS_14adl_serializerEEEE3getEv
FNDA:17929,_ZN8nlohmann6detail5lexerINS_10basic_jsonISt3mapSt6vectorNSt7__cxx1112basic_stringIcSt11char_traitsIcESaIcEEEblmdSaNS_14adl_serializerEEEE5ungetEv
FNDA:585831,_ZN8nlohmann6detail5lexerINS_10basic_jsonISt3mapSt6vectorNSt7__cxx1112basic_stringIcSt11char_traitsIcESaIcEEEblmdSaNS_14adl_serializerEEEE3addEi
FNDA:73,_ZNK8nlohmann6detail5lexerINS_10basic_jsonISt3mapSt6vectorNSt7__cxx1112basic_stringIcSt11char_traitsIcESaIcEEEblmdSaNS_14adl_serializerEEEE18get_number_integerEv
FNDA:1380,_ZNK8nlohmann6detail5lexerINS_10basic_jsonISt3mapSt6vectorNSt7__cxx1112basic_stringIcSt11char_traitsIcESaIcEEEblmdSaNS_14adl_serializerEEEE19get_number_unsignedEv
FNDA:16475,_ZNK8nlohmann6detail5lexerINS_10basic_jsonISt3mapSt6vectorNSt7__cxx1112basic_stringIcSt11char_traitsIcESaIcEEEblmdSaNS_14adl_serializerEEEE16get_number_floatEv
FNDA:39715,_ZN8nlohmann6detail5lexerINS_10basic_jsonISt3mapSt6vectorNSt7__cxx1112basic_stringIcSt11char_traitsIcESaIcEEEblmdSaNS_14adl_serializerEEEE10get_stringEv
FNDA:0,_ZNK8nlohmann6detail5lexerINS_10basic_jsonISt3mapSt6vectorNSt7__cxx1112basic_stringIcSt11char_traitsIcESaIcEEEblmdSaNS_14adl_serializerEEEE12get_positionEv
FNDA:0,_ZNK8nlohmann6detail5lexerINS_10basic_jsonISt3mapSt6vectorNSt7__cxx1112basic_stringIcSt11char_traitsIcESaIcEEEblmdSaNS_14adl_serializerEEEE16get_token_stringEv
FNDA:0,_ZNK8nlohmann6detail5lexerINS_10basic_jsonISt3mapSt6vectorNSt7__cxx1112basic_stringIcSt11char_traitsIcESaIcEEEblmdSaNS_14adl_serializerEEEE17get_error_messageEv
FNDA:1,_ZN8nlohmann6detail5lexerINS_10basic_jsonISt3mapSt6vectorNSt7__cxx1112basic_stringIcSt11char_traitsIcESaIcEEEblmdSaNS_14adl_serializerEEEE8skip_bomEv
FNDA:83666,_ZN8nlohmann6detail5lexerINS_10basic_jsonISt3mapSt6vectorNSt7__cxx1112basic_stringIcSt11char_traitsIcESaIcEEEblmdSaNS_14adl_serializerEEEE4scanEv
FNDA:1,_ZN8nlohmann8json_saxINS_10basic_jsonISt3mapSt6vectorNSt7__cxx1112basic_stringIcSt11char_traitsIcESaIcEEEblmdSaNS_14adl_serializerEEEEC2Ev
FNDA:0,_ZN8nlohmann8json_saxINS_10basic_jsonISt3mapSt6vectorNSt7__cxx1112basic_stringIcSt11char_traitsIcESaIcEEEblmdSaNS_14adl_serializerEEEED0Ev
FNDA:1,_ZN8nlohmann8json_saxINS_10basic_jsonISt3mapSt6vectorNSt7__cxx1112basic_stringIcSt11char_traitsIcESaIcEEEblmdSaNS_14adl_serializerEEEED2Ev
FNDA:0,_ZN8nlohmann6detail19json_sax_dom_parserINS_10basic_jsonISt3mapSt6vectorNSt7__cxx1112basic_stringIcSt11char_traitsIcESaIcEEEblmdSaNS_14adl_serializerEEEED0Ev
FNDA:1,_ZN8nlohmann6detail19json_sax_dom_parserINS_10basic_jsonISt3mapSt6vectorNSt7__cxx1112basic_stringIcSt11char_traitsIcESaIcEEEblmdSaNS_14adl_serializerEEEED2Ev
FNDA:1,_ZN8nlohmann6detail19json_sax_dom_parserINS_10basic_jsonISt3mapSt6vectorNSt7__cxx1112basic_stringIcSt11char_traitsIcESaIcEEEblmdSaNS_14adl_serializerEEEEC2ERSC_b
FNDA:0,_ZN8nlohmann6detail19json_sax_dom_parserINS_10basic_jsonISt3mapSt6vectorNSt7__cxx1112basic_stringIcSt11char_traitsIcESaIcEEEblmdSaNS_14adl_serializerEEEE4nullEv
FNDA:0,_ZN8nlohmann6detail19json_sax_dom_parserINS_10basic_jsonISt3mapSt6vectorNSt7__cxx1112basic_stringIcSt11char_traitsIcESaIcEEEblmdSaNS_14adl_serializerEEEE7booleanEb
FNDA:73,_ZN8nlohmann6detail19json_sax_dom_parserINS_10basic_jsonISt3mapSt6vectorNSt7__cxx1112basic_stringIcSt11char_traitsIcESaIcEEEblmdSaNS_14adl_serializerEEEE14number_integerEl
FNDA:1380,_ZN8nlohmann6detail19json_sax_dom_parserINS_10basic_jsonISt3mapSt6vectorNSt7__cxx1112basic_stringIcSt11char_traitsIcESaIcEEEblmdSaNS_14adl_serializerEEEE15number_unsignedEm
FNDA:16475,_ZN8nlohmann6detail19json_sax_dom_parserINS_10basic_jsonISt3mapSt6vectorNSt7__cxx1112basic_stringIcSt11char_traitsIcESaIcEEEblmdSaNS_14adl_serializerEEEE12number_floatEdRKSA_
FNDA:2656,_ZN8nlohmann6detail19json_sax_dom_parserINS_10basic_jsonISt3mapSt6vectorNSt7__cxx1112basic_stringIcSt11char_traitsIcESaIcEEEblmdSaNS_14adl_serializerEEEE6stringERSA_
FNDA:664,_ZN8nlohmann6detail19json_sax_dom_parserINS_10basic_jsonISt3mapSt6vectorNSt7__cxx1112basic_stringIcSt11char_traitsIcESaIcEEEblmdSaNS_14adl_serializerEEEE12start_objectEm
FNDA:20584,_ZN8nlohmann6detail19json_sax_dom_parserINS_10basic_jsonISt3mapSt6vectorNSt7__cxx1112basic_stringIcSt11char_traitsIcESaIcEEEblmdSaNS_14adl_serializerEEEE3keyERSA_
FNDA:664,_ZN8nlohmann6detail19json_sax_dom_parserINS_10basic_jsonISt3mapSt6vectorNSt7__cxx1112basic_stringIcSt11char_traitsIcESaIcEEEblmdSaNS_14adl_serializerEEEE10end_objectEv
FNDA:1,_ZN8nlohmann6detail19json_sax_dom_parserINS_10basic_jsonISt3mapSt6vectorNSt7__cxx1112basic_stringIcSt11char_traitsIcESaIcEEEblmdSaNS_14adl_serializerEEEE11start_arrayEm
FNDA:1,_ZN8nlohmann6detail19json_sax_dom_parserINS_10basic_jsonISt3mapSt6vectorNSt7__cxx1112basic_stringIcSt11char_traitsIcESaIcEEEblmdSaNS_14adl_serializerEEEE9end_arrayEv
FNDA:0,_ZN8nlohmann6detail19json_sax_dom_parserINS_10basic_jsonISt3mapSt6vectorNSt7__cxx1112basic_stringIcSt11char_traitsIcESaIcEEEblmdSaNS_14adl_serializerEEEE11parse_errorEmRKSA_RKNS0_9exceptionE
FNDA:1,_ZNK8nlohmann6detail19json_sax_dom_parserINS_10basic_jsonISt3mapSt6vectorNSt7__cxx1112basic_stringIcSt11char_traitsIcESaIcEEEblmdSaNS_14adl_serializerEEEE10is_erroredEv
FNDA:665,_ZN8nlohmann6detail19json_sax_dom_parserINS_10basic_jsonISt3mapSt6vectorNSt7__cxx1112basic_stringIcSt11char_traitsIcESaIcEEEblmdSaNS_14adl_serializerEEEE12handle_valueINS0_7value_tEEEPSC_OT_
FNDA:2656,_ZN8nlohmann6detail19json_sax_dom_parserINS_10basic_jsonISt3mapSt6vectorNSt7__cxx1112basic_stringIcSt11char_traitsIcESaIcEEEblmdSaNS_14adl_serializerEEEE12handle_valueIRSA_EEPSC_OT_
FNDA:16475,_ZN8nlohmann6detail19json_sax_dom_parserINS_10basic_jsonISt3mapSt6vectorNSt7__cxx1112basic_stringIcSt11char_traitsIcESaIcEEEblmdSaNS_14adl_serializerEEEE12handle_valueIRdEEPSC_OT_
FNDA:1380,_ZN8nlohmann6detail19json_sax_dom_parserINS_10basic_jsonISt3mapSt6vectorNSt7__cxx1112basic_stringIcSt11char_traitsIcESaIcEEEblmdSaNS_14adl_serializerEEEE12handle_valueIRmEEPSC_OT_
FNDA:73,_ZN8nlohmann6detail19json_sax_dom_parserINS_10basic_jsonISt3mapSt6vectorNSt7__cxx1112basic_stringIcSt11char_traitsIcESaIcEEEblmdSaNS_14adl_serializerEEEE12handle_valueIRlEEPSC_OT_
FNDA:0,_ZN8nlohmann6detail19json_sax_dom_parserINS_10basic_jsonISt3mapSt6vectorNSt7__cxx1112basic_stringIcSt11char_traitsIcESaIcEEEblmdSaNS_14adl_serializerEEEE12handle_valueIRbEEPSC_OT_
FNDA:0,_ZN8nlohmann6detail19json_sax_dom_parserINS_10basic_jsonISt3mapSt6vectorNSt7__cxx1112basic_stringIcSt11char_traitsIcESaIcEEEblmdSaNS_14adl_serializerEEEE12handle_valueIDnEEPSC_OT_
FNDA:0,_ZN8nlohmann6detail28json_sax_dom_callback_parserINS_10basic_jsonISt3mapSt6vectorNSt7__cxx1112basic_stringIcSt11char_traitsIcESaIcEEEblmdSaNS_14adl_serializerEEEED0Ev
FNDA:0,_ZN8nlohmann6detail28json_sax_dom_callback_parserINS_10basic_jsonISt3mapSt6vectorNSt7__cxx1112basic_stringIcSt11char_traitsIcESaIcEEEblmdSaNS_14adl_serializerEEEED2Ev
FNDA:0,_ZN8nlohmann6detail28json_sax_dom_callback_parserINS_10basic_jsonISt3mapSt6vectorNSt7__cxx1112basic_stringIcSt11char_traitsIcESaIcEEEblmdSaNS_14adl_serializerEEEEC2ERSC_St8functionIFbiNS0_6parserISC_E13parse_event_tESE_EEb
FNDA:0,_ZN8nlohmann6detail28json_sax_dom_callback_parserINS_10basic_jsonISt3mapSt6vectorNSt7__cxx1112basic_stringIcSt11char_traitsIcESaIcEEEblmdSaNS_14adl_serializerEEEE4nullEv
FNDA:0,_ZN8nlohmann6detail28json_sax_dom_callback_parserINS_10basic_jsonISt3mapSt6vectorNSt7__cxx1112basic_stringIcSt11char_traitsIcESaIcEEEblmdSaNS_14adl_serializerEEEE7booleanEb
FNDA:0,_ZN8nlohmann6detail28json_sax_dom_callback_parserINS_10basic_jsonISt3mapSt6vectorNSt7__cxx1112basic_stringIcSt11char_traitsIcESaIcEEEblmdSaNS_14adl_serializerEEEE14number_integerEl
FNDA:0,_ZN8nlohmann6detail28json_sax_dom_callback_parserINS_10basic_jsonISt3mapSt6vectorNSt7__cxx1112basic_stringIcSt11char_traitsIcESaIcEEEblmdSaNS_14adl_serializerEEEE15number_unsignedEm
FNDA:0,_ZN8nlohmann6detail28json_sax_dom_callback_parserINS_10basic_jsonISt3mapSt6vectorNSt7__cxx1112basic_stringIcSt11char_traitsIcESaIcEEEblmdSaNS_14adl_serializerEEEE12number_floatEdRKSA_
FNDA:0,_ZN8nlohmann6detail28json_sax_dom_callback_parserINS_10basic_jsonISt3mapSt6vectorNSt7__cxx1112basic_stringIcSt11char_traitsIcESaIcEEEblmdSaNS_14adl_serializerEEEE6stringERSA_
FNDA:0,_ZN8nlohmann6detail28json_sax_dom_callback_parserINS_10basic_jsonISt3mapSt6vectorNSt7__cxx1112basic_stringIcSt11char_traitsIcESaIcEEEblmdSaNS_14adl_serializerEEEE12start_objectEm
FNDA:0,_ZN8nlohmann6detail28json_sax_dom_callback_parserINS_10basic_jsonISt3mapSt6vectorNSt7__cxx1112basic_stringIcSt11char_traitsIcESaIcEEEblmdSaNS_14adl_serializerEEEE3keyERSA_
FNDA:0,_ZN8nlohmann6detail28json_sax_dom_callback_parserINS_10basic_jsonISt3mapSt6vectorNSt7__cxx1112basic_stringIcSt11char_traitsIcESaIcEEEblmdSaNS_14adl_serializerEEEE10end_objectEv
FNDA:0,_ZN8nlohmann6detail28json_sax_dom_callback_parserINS_10basic_jsonISt3mapSt6vectorNSt7__cxx1112basic_stringIcSt11char_traitsIcESaIcEEEblmdSaNS_14adl_serializerEEEE11start_arrayEm
FNDA:0,_ZN8nlohmann6detail28json_sax_dom_callback_parserINS_10basic_jsonISt3mapSt6vectorNSt7__cxx1112basic_stringIcSt11char_traitsIcESaIcEEEblmdSaNS_14adl_serializerEEEE9end_arrayEv
FNDA:0,_ZN8nlohmann6detail28json_sax_dom_callback_parserINS_10basic_jsonISt3mapSt6vectorNSt7__cxx1112basic_stringIcSt11char_traitsIcESaIcEEEblmdSaNS_14adl_serializerEEEE11parse_errorEmRKSA_RKNS0_9exceptionE
FNDA:0,_ZNK8nlohmann6detail28json_sax_dom_callback_parserINS_10basic_jsonISt3mapSt6vectorNSt7__cxx1112basic_stringIcSt11char_traitsIcESaIcEEEblmdSaNS_14adl_serializerEEEE10is_erroredEv
FNDA:0,_ZN8nlohmann6detail28json_sax_dom_callback_parserINS_10basic_jsonISt3mapSt6vectorNSt7__cxx1112basic_stringIcSt11char_traitsIcESaIcEEEblmdSaNS_14adl_serializerEEEE12handle_valueINS0_7value_tEEESt4pairIbPSC_EOT_b
FNDA:0,_ZN8nlohmann6detail28json_sax_dom_callback_parserINS_10basic_jsonISt3mapSt6vectorNSt7__cxx1112basic_stringIcSt11char_traitsIcESaIcEEEblmdSaNS_14adl_serializerEEEE12handle_valueIRSA_EESt4pairIbPSC_EOT_b
FNDA:0,_ZN8nlohmann6detail28json_sax_dom_callback_parserINS_10basic_jsonISt3mapSt6vectorNSt7__cxx1112basic_stringIcSt11char_traitsIcESaIcEEEblmdSaNS_14adl_serializerEEEE12handle_valueIRdEESt4pairIbPSC_EOT_b
FNDA:0,_ZN8nlohmann6detail28json_sax_dom_callback_parserINS_10basic_jsonISt3mapSt6vectorNSt7__cxx1112basic_stringIcSt11char_traitsIcESaIcEEEblmdSaNS_14adl_serializerEEEE12handle_valueIRmEESt4pairIbPSC_EOT_b
FNDA:0,_ZN8nlohmann6detail28json_sax_dom_callback_parserINS_10basic_jsonISt3mapSt6vectorNSt7__cxx1112basic_stringIcSt11char_traitsIcESaIcEEEblmdSaNS_14adl_serializerEEEE12handle_valueIRlEESt4pairIbPSC_EOT_b
FNDA:0,_ZN8nlohmann6detail28json_sax_dom_callback_parserINS_10basic_jsonISt3mapSt6vectorNSt7__cxx1112basic_stringIcSt11char_traitsIcESaIcEEEblmdSaNS_14adl_serializerEEEE12handle_valueIRbEESt4pairIbPSC_EOT_b
FNDA:0,_ZN8nlohmann6detail28json_sax_dom_callback_parserINS_10basic_jsonISt3mapSt6vectorNSt7__cxx1112basic_stringIcSt11char_traitsIcESaIcEEEblmdSaNS_14adl_serializerEEEE12handle_valueIDnEESt4pairIbPSC_EOT_b
FNDA:1,_ZN8nlohmann6detail6parserINS_10basic_jsonISt3mapSt6vectorNSt7__cxx1112basic_stringIcSt11char_traitsIcESaIcEEEblmdSaNS_14adl_serializerEEEED2Ev
FNDA:1,_ZN8nlohmann6detail6parserINS_10basic_jsonISt3mapSt6vectorNSt7__cxx1112basic_stringIcSt11char_traitsIcESaIcEEEblmdSaNS_14adl_serializerEEEEC2EOSt10shared_ptrINS0_22input_adapter_protocolEESt8functionIFbiNSD_13parse_event_tERSC_EEb
FNDA:1,_ZN8nlohmann6detail6parserINS_10basic_jsonISt3mapSt6vectorNSt7__cxx1112basic_stringIcSt11char_traitsIcESaIcEEEblmdSaNS_14adl_serializerEEEE5parseEbRSC_
FNDA:1,_ZN8nlohmann6detail6parserINS_10basic_jsonISt3mapSt6vectorNSt7__cxx1112basic_stringIcSt11char_traitsIcESaIcEEEblmdSaNS_14adl_serializerEEEE18sax_parse_internalEPNS_8json_saxISC_EE
FNDA:83666,_ZN8nlohmann6detail6parserINS_10basic_jsonISt3mapSt6vectorNSt7__cxx1112basic_stringIcSt11char_traitsIcESaIcEEEblmdSaNS_14adl_serializerEEEE9get_tokenEv
FNDA:0,_ZN8nlohmann6detail6parserINS_10basic_jsonISt3mapSt6vectorNSt7__cxx1112basic_stringIcSt11char_traitsIcESaIcEEEblmdSaNS_14adl_serializerEEEE17exception_messageENS0_5lexerISC_E10token_typeE
FNDA:7970,_ZN8nlohmann6detail20primitive_iterator_tC2Ev
FNDA:0,_ZN8nlohmann6detail20primitive_iterator_t9set_beginEv
FNDA:0,_ZN8nlohmann6detail20primitive_iterator_t7set_endEv
FNDA:0,_ZNK8nlohmann6detail20primitive_iterator_t8is_beginEv
FNDA:0,_ZN8nlohmann6detaileqENS0_20primitive_iterator_tES1_
FNDA:0,_ZN8nlohmann6detail20primitive_iterator_tppEv
FNDA:7970,_ZN8nlohmann6detail17internal_iteratorINS_10basic_jsonISt3mapSt6vectorNSt7__cxx1112basic_stringIcSt11char_traitsIcESaIcEEEblmdSaNS_14adl_serializerEEEEC2Ev
FNDA:7968,_ZN8nlohmann6detail9iter_implIKNS_10basic_jsonISt3mapSt6vectorNSt7__cxx1112basic_stringIcSt11char_traitsIcESaIcEEEblmdSaNS_14adl_serializerEEEEC2EPSD_
FNDA:2,_ZN8nlohmann6detail9iter_implINS_10basic_jsonISt3mapSt6vectorNSt7__cxx1112basic_stringIcSt11char_traitsIcESaIcEEEblmdSaNS_14adl_serializerEEEEC2EPSC_
FNDA:0,_ZN8nlohmann6detail9iter_implINS_10basic_jsonISt3mapSt6vectorNSt7__cxx1112basic_stringIcSt11char_traitsIcESaIcEEEblmdSaNS_14adl_serializerEEEEC2ERKSD_
FNDA:1,_ZN8nlohmann6detail9iter_implINS_10basic_jsonISt3mapSt6vectorNSt7__cxx1112basic_stringIcSt11char_traitsIcESaIcEEEblmdSaNS_14adl_serializerEEEE9set_beginEv
FNDA:7968,_ZN8nlohmann6detail9iter_implIKNS_10basic_jsonISt3mapSt6vectorNSt7__cxx1112basic_stringIcSt11char_traitsIcESaIcEEEblmdSaNS_14adl_serializerEEEE7set_endEv
FNDA:1,_ZN8nlohmann6detail9iter_implINS_10basic_jsonISt3mapSt6vectorNSt7__cxx1112basic_stringIcSt11char_traitsIcESaIcEEEblmdSaNS_14adl_serializerEEEE7set_endEv
FNDA:3984,_ZNK8nlohmann6detail9iter_implIKNS_10basic_jsonISt3mapSt6vectorNSt7__cxx1112basic_stringIcSt11char_traitsIcESaIcEEEblmdSaNS_14adl_serializerEEEEdeEv
FNDA:664,_ZNK8nlohmann6detail9iter_implINS_10basic_jsonISt3mapSt6vectorNSt7__cxx1112basic_stringIcSt11char_traitsIcESaIcEEEblmdSaNS_14adl_serializerEEEEdeEv
FNDA:0,_ZNK8nlohmann6detail9iter_implINS_10basic_jsonISt3mapSt6vectorNSt7__cxx1112basic_stringIcSt11char_traitsIcESaIcEEEblmdSaNS_14adl_serializerEEEEptEv
FNDA:664,_ZN8nlohmann6detail9iter_implINS_10basic_jsonISt3mapSt6vectorNSt7__cxx1112basic_stringIcSt11char_traitsIcESaIcEEEblmdSaNS_14adl_serializerEEEEppEv
FNDA:3984,_ZNK8nlohmann6detail9iter_implIKNS_10basic_jsonISt3mapSt6vectorNSt7__cxx1112basic_stringIcSt11char_traitsIcESaIcEEEblmdSaNS_14adl_serializerEEEEeqERKSE_
FNDA:665,_ZNK8nlohmann6detail9iter_implINS_10basic_jsonISt3mapSt6vectorNSt7__cxx1112basic_stringIcSt11char_traitsIcESaIcEEEblmdSaNS_14adl_serializerEEEEeqERKSD_
FNDA:3984,_ZNK8nlohmann6detail9iter_implIKNS_10basic_jsonISt3mapSt6vectorNSt7__cxx1112basic_stringIcSt11char_traitsIcESaIcEEEblmdSaNS_14adl_serializerEEEEneERKSE_
FNDA:665,_ZNK8nlohmann6detail9iter_implINS_10basic_jsonISt3mapSt6vectorNSt7__cxx1112basic_stringIcSt11char_traitsIcESaIcEEEblmdSaNS_14adl_serializerEEEEneERKSD_
FNDA:1328,_ZN8nlohmann14adl_serializerINSt7__cxx1112basic_stringIcSt11char_traitsIcESaIcEEEvE9from_jsonIRKNS_10basic_jsonISt3mapSt6vectorS6_blmdSaS0_EES6_EEvOT_RT0_
FNDA:2656,_ZN8nlohmann14adl_serializerIfvE9from_jsonIRKNS_10basic_jsonISt3mapSt6vectorNSt7__cxx1112basic_stringIcSt11char_traitsIcESaIcEEEblmdSaS0_EEfEEvOT_RT0_
FNDA:16475,_ZN8nlohmann14adl_serializerIdvE7to_jsonINS_10basic_jsonISt3mapSt6vectorNSt7__cxx1112basic_stringIcSt11char_traitsIcESaIcEEEblmdSaS0_EERdEEvRT_OT0_
FNDA:1380,_ZN8nlohmann14adl_serializerImvE7to_jsonINS_10basic_jsonISt3mapSt6vectorNSt7__cxx1112basic_stringIcSt11char_traitsIcESaIcEEEblmdSaS0_EERmEEvRT_OT0_
FNDA:73,_ZN8nlohmann14adl_serializerIlvE7to_jsonINS_10basic_jsonISt3mapSt6vectorNSt7__cxx1112basic_stringIcSt11char_traitsIcESaIcEEEblmdSaS0_EERlEEvRT_OT0_
FNDA:0,_ZN8nlohmann14adl_serializerIbvE7to_jsonINS_10basic_jsonISt3mapSt6vectorNSt7__cxx1112basic_stringIcSt11char_traitsIcESaIcEEEblmdSaS0_EERbEEvRT_OT0_
FNDA:2656,_ZN8nlohmann14adl_serializerINSt7__cxx1112basic_stringIcSt11char_traitsIcESaIcEEEvE7to_jsonINS_10basic_jsonISt3mapSt6vectorS6_blmdSaS0_EERS6_EEvRT_OT0_
FNDA:0,_ZN8nlohmann10basic_jsonISt3mapSt6vectorNSt7__cxx1112basic_stringIcSt11char_traitsIcESaIcEEEblmdSaNS_14adl_serializerEE6createIS8_JRA1_KcEEEPT_DpOT0_
FNDA:1,_ZN8nlohmann10basic_jsonISt3mapSt6vectorNSt7__cxx1112basic_stringIcSt11char_traitsIcESaIcEEEblmdSaNS_14adl_serializerEE6createIS2_ISA_SaISA_EEJEEEPT_DpOT0_
FNDA:664,_ZN8nlohmann10basic_jsonISt3mapSt6vectorNSt7__cxx1112basic_stringIcSt11char_traitsIcESaIcEEEblmdSaNS_14adl_serializerEE6createIS1_IS8_SA_St4lessIvESaISt4pairIKS8_SA_EEEJEEEPT_DpOT0_
FNDA:5312,_ZN8nlohmann10basic_jsonISt3mapSt6vectorNSt7__cxx1112basic_stringIcSt11char_traitsIcESaIcEEEblmdSaNS_14adl_serializerEE6createIS8_JRKS8_EEEPT_DpOT0_
FNDA:0,_ZN8nlohmann10basic_jsonISt3mapSt6vectorNSt7__cxx1112basic_stringIcSt11char_traitsIcESaIcEEEblmdSaNS_14adl_serializerEE6createIS2_ISA_SaISA_EEJRKSD_EEEPT_DpOT0_
FNDA:664,_ZN8nlohmann10basic_jsonISt3mapSt6vectorNSt7__cxx1112basic_stringIcSt11char_traitsIcESaIcEEEblmdSaNS_14adl_serializerEE6createIS1_IS8_SA_St4lessIvESaISt4pairIKS8_SA_EEEJRKSI_EEEPT_DpOT0_
FNDA:0,_ZZN8nlohmann10basic_jsonISt3mapSt6vectorNSt7__cxx1112basic_stringIcSt11char_traitsIcESaIcEEEblmdSaNS_14adl_serializerEE6createIS8_JRA1_KcEEEPT_DpOT0_ENKUlPS8_E_clESK_
FNDA:0,_ZZN8nlohmann10basic_jsonISt3mapSt6vectorNSt7__cxx1112basic_stringIcSt11char_traitsIcESaIcEEEblmdSaNS_14adl_serializerEE6createIS2_ISA_SaISA_EEJEEEPT_DpOT0_ENKUlPSD_E_clESJ_
FNDA:0,_ZZN8nlohmann10basic_jsonISt3mapSt6vectorNSt7__cxx1112basic_stringIcSt11char_traitsIcESaIcEEEblmdSaNS_14adl_serializerEE6createIS1_IS8_SA_St4lessIvESaISt4pairIKS8_SA_EEEJEEEPT_DpOT0_ENKUlPSI_E_clESO_
FNDA:0,_ZZN8nlohmann10basic_jsonISt3mapSt6vectorNSt7__cxx1112basic_stringIcSt11char_traitsIcESaIcEEEblmdSaNS_14adl_serializerEE6createIS8_JRKS8_EEEPT_DpOT0_ENKUlPS8_E_clESJ_
FNDA:0,_ZZN8nlohmann10basic_jsonISt3mapSt6vectorNSt7__cxx1112basic_stringIcSt11char_traitsIcESaIcEEEblmdSaNS_14adl_serializerEE6createIS2_ISA_SaISA_EEJRKSD_EEEPT_DpOT0_ENKUlPSD_E_clESL_
FNDA:0,_ZZN8nlohmann10basic_jsonISt3mapSt6vectorNSt7__cxx1112basic_stringIcSt11char_traitsIcESaIcEEEblmdSaNS_14adl_serializerEE6createIS1_IS8_SA_St4lessIvESaISt4pairIKS8_SA_EEEJRKSI_EEEPT_DpOT0_ENKUlPSI_E_clESQ_
FNDA:0,_ZN8nlohmann10basic_jsonISt3mapSt6vectorNSt7__cxx1112basic_stringIcSt11char_traitsIcESaIcEEEblmdSaNS_14adl_serializerEE10json_valueC2Eb
FNDA:146,_ZN8nlohmann10basic_jsonISt3mapSt6vectorNSt7__cxx1112basic_stringIcSt11char_traitsIcESaIcEEEblmdSaNS_14adl_serializerEE10json_valueC2El
FNDA:2760,_ZN8nlohmann10basic_jsonISt3mapSt6vectorNSt7__cxx1112basic_stringIcSt11char_traitsIcESaIcEEEblmdSaNS_14adl_serializerEE10json_valueC2Em
FNDA:32950,_ZN8nlohmann10basic_jsonISt3mapSt6vectorNSt7__cxx1112basic_stringIcSt11char_traitsIcESaIcEEEblmdSaNS_14adl_serializerEE10json_valueC2Ed
FNDA:21250,_ZN8nlohmann10basic_jsonISt3mapSt6vectorNSt7__cxx1112basic_stringIcSt11char_traitsIcESaIcEEEblmdSaNS_14adl_serializerEE10json_valueC2ENS_6detail7value_tE
FNDA:5312,_ZN8nlohmann10basic_jsonISt3mapSt6vectorNSt7__cxx1112basic_stringIcSt11char_traitsIcESaIcEEEblmdSaNS_14adl_serializerEE10json_valueC2ERKS8_
FNDA:664,_ZN8nlohmann10basic_jsonISt3mapSt6vectorNSt7__cxx1112basic_stringIcSt11char_traitsIcESaIcEEEblmdSaNS_14adl_serializerEE10json_valueC2ERKS1_IS8_SA_St4lessIvESaISt4pairIKS8_SA_EEE
FNDA:0,_ZN8nlohmann10basic_jsonISt3mapSt6vectorNSt7__cxx1112basic_stringIcSt11char_traitsIcESaIcEEEblmdSaNS_14adl_serializerEE10json_valueC2ERKS2_ISA_SaISA_EE
FNDA:64105,_ZN8nlohmann10basic_jsonISt3mapSt6vectorNSt7__cxx1112basic_stringIcSt11char_traitsIcESaIcEEEblmdSaNS_14adl_serializerEE10json_value7destroyENS_6detail7value_tE
FNDA:232821,_ZNK8nlohmann10basic_jsonISt3mapSt6vectorNSt7__cxx1112basic_stringIcSt11char_traitsIcESaIcEEEblmdSaNS_14adl_serializerEE16assert_invariantEv
FNDA:21250,_ZN8nlohmann10basic_jsonISt3mapSt6vectorNSt7__cxx1112basic_stringIcSt11char_traitsIcESaIcEEEblmdSaNS_14adl_serializerEEC2ENS_6detail7value_tE
FNDA:20585,_ZN8nlohmann10basic_jsonISt3mapSt6vectorNSt7__cxx1112basic_stringIcSt11char_traitsIcESaIcEEEblmdSaNS_14adl_serializerEEC2EDn
FNDA:16475,_ZN8nlohmann10basic_jsonISt3mapSt6vectorNSt7__cxx1112basic_stringIcSt11char_traitsIcESaIcEEEblmdSaNS_14adl_serializerEEC2IRddLi0EEEOT_
FNDA:1380,_ZN8nlohmann10basic_jsonISt3mapSt6vectorNSt7__cxx1112basic_stringIcSt11char_traitsIcESaIcEEEblmdSaNS_14adl_serializerEEC2IRmmLi0EEEOT_
FNDA:73,_ZN8nlohmann10basic_jsonISt3mapSt6vectorNSt7__cxx1112basic_stringIcSt11char_traitsIcESaIcEEEblmdSaNS_14adl_serializerEEC2IRllLi0EEEOT_
FNDA:0,_ZN8nlohmann10basic_jsonISt3mapSt6vectorNSt7__cxx1112basic_stringIcSt11char_traitsIcESaIcEEEblmdSaNS_14adl_serializerEEC2IRbbLi0EEEOT_
FNDA:2656,_ZN8nlohmann10basic_jsonISt3mapSt6vectorNSt7__cxx1112basic_stringIcSt11char_traitsIcESaIcEEEblmdSaNS_14adl_serializerEEC2IRS8_S8_Li0EEEOT_
FNDA:21248,_ZN8nlohmann10basic_jsonISt3mapSt6vectorNSt7__cxx1112basic_stringIcSt11char_traitsIcESaIcEEEblmdSaNS_14adl_serializerEEC2ERKSA_
FNDA:1023,_ZN8nlohmann10basic_jsonISt3mapSt6vectorNSt7__cxx1112basic_stringIcSt11char_traitsIcESaIcEEEblmdSaNS_14adl_serializerEEC2EOSA_
FNDA:20585,_ZN8nlohmann10basic_jsonISt3mapSt6vectorNSt7__cxx1112basic_stringIcSt11char_traitsIcESaIcEEEblmdSaNS_14adl_serializerEEaSESA_
FNDA:64105,_ZN8nlohmann10basic_jsonISt3mapSt6vectorNSt7__cxx1112basic_stringIcSt11char_traitsIcESaIcEEEblmdSaNS_14adl_serializerEED2Ev
FNDA:0,_ZNK8nlohmann10basic_jsonISt3mapSt6vectorNSt7__cxx1112basic_stringIcSt11char_traitsIcESaIcEEEblmdSaNS_14adl_serializerEE10is_booleanEv
FNDA:1,_ZNK8nlohmann10basic_jsonISt3mapSt6vectorNSt7__cxx1112basic_stringIcSt11char_traitsIcESaIcEEEblmdSaNS_14adl_serializerEE17is_number_integerEv
FNDA:0,_ZNK8nlohmann10basic_jsonISt3mapSt6vectorNSt7__cxx1112basic_stringIcSt11char_traitsIcESaIcEEEblmdSaNS_14adl_serializerEE18is_number_unsignedEv
FNDA:2655,_ZNK8nlohmann10basic_jsonISt3mapSt6vectorNSt7__cxx1112basic_stringIcSt11char_traitsIcESaIcEEEblmdSaNS_14adl_serializerEE15is_number_floatEv
FNDA:28552,_ZNK8nlohmann10basic_jsonISt3mapSt6vectorNSt7__cxx1112basic_stringIcSt11char_traitsIcESaIcEEEblmdSaNS_14adl_serializerEE9is_objectEv
FNDA:42496,_ZNK8nlohmann10basic_jsonISt3mapSt6vectorNSt7__cxx1112basic_stringIcSt11char_traitsIcESaIcEEEblmdSaNS_14adl_serializerEE8is_arrayEv
FNDA:2656,_ZNK8nlohmann10basic_jsonISt3mapSt6vectorNSt7__cxx1112basic_stringIcSt11char_traitsIcESaIcEEEblmdSaNS_14adl_serializerEE9is_stringEv
FNDA:0,_ZNK8nlohmann10basic_jsonISt3mapSt6vectorNSt7__cxx1112basic_stringIcSt11char_traitsIcESaIcEEEblmdSaNS_14adl_serializerEE12is_discardedEv
FNDA:2656,_ZNK8nlohmann10basic_jsonISt3mapSt6vectorNSt7__cxx1112basic_stringIcSt11char_traitsIcESaIcEEEblmdSaNS_14adl_serializerEEcvNS_6detail7value_tEEv
FNDA:1328,_ZNK8nlohmann10basic_jsonISt3mapSt6vectorNSt7__cxx1112basic_stringIcSt11char_traitsIcESaIcEEEblmdSaNS_14adl_serializerEE12get_impl_ptrEPKS8_
FNDA:0,_ZNK8nlohmann10basic_jsonISt3mapSt6vectorNSt7__cxx1112basic_stringIcSt11char_traitsIcESaIcEEEblmdSaNS_14adl_serializerEE12get_impl_ptrEPKb
FNDA:1,_ZNK8nlohmann10basic_jsonISt3mapSt6vectorNSt7__cxx1112basic_stringIcSt11char_traitsIcESaIcEEEblmdSaNS_14adl_serializerEE12get_impl_ptrEPKl
FNDA:0,_ZNK8nlohmann10basic_jsonISt3mapSt6vectorNSt7__cxx1112basic_stringIcSt11char_traitsIcESaIcEEEblmdSaNS_14adl_serializerEE12get_impl_ptrEPKm
FNDA:2655,_ZNK8nlohmann10basic_jsonISt3mapSt6vectorNSt7__cxx1112basic_stringIcSt11char_traitsIcESaIcEEEblmdSaNS_14adl_serializerEE12get_impl_ptrEPKd
FNDA:1328,_ZNK8nlohmann10basic_jsonISt3mapSt6vectorNSt7__cxx1112basic_stringIcSt11char_traitsIcESaIcEEEblmdSaNS_14adl_serializerEE3getIS8_S8_Li0EEET0_v
FNDA:2656,_ZNK8nlohmann10basic_jsonISt3mapSt6vectorNSt7__cxx1112basic_stringIcSt11char_traitsIcESaIcEEEblmdSaNS_14adl_serializerEE3getIffLi0EEET0_v
FNDA:1328,_ZNK8nlohmann10basic_jsonISt3mapSt6vectorNSt7__cxx1112basic_stringIcSt11char_traitsIcESaIcEEEblmdSaNS_14adl_serializerEE7get_ptrIPKS8_Li0EEEKT_v
FNDA:0,_ZNK8nlohmann10basic_jsonISt3mapSt6vectorNSt7__cxx1112basic_stringIcSt11char_traitsIcESaIcEEEblmdSaNS_14adl_serializerEE7get_ptrIPKbLi0EEEKT_v
FNDA:2655,_ZNK8nlohmann10basic_jsonISt3mapSt6vectorNSt7__cxx1112basic_stringIcSt11char_traitsIcESaIcEEEblmdSaNS_14adl_serializerEE7get_ptrIPKdLi0EEEKT_v
FNDA:1,_ZNK8nlohmann10basic_jsonISt3mapSt6vectorNSt7__cxx1112basic_stringIcSt11char_traitsIcESaIcEEEblmdSaNS_14adl_serializerEE7get_ptrIPKlLi0EEEKT_v
FNDA:0,_ZNK8nlohmann10basic_jsonISt3mapSt6vectorNSt7__cxx1112basic_stringIcSt11char_traitsIcESaIcEEEblmdSaNS_14adl_serializerEE7get_ptrIPKmLi0EEEKT_v
FNDA:1328,_ZNK8nlohmann10basic_jsonISt3mapSt6vectorNSt7__cxx1112basic_stringIcSt11char_traitsIcESaIcEEEblmdSaNS_14adl_serializerEEcvT_IS8_Li0EEEv
FNDA:2656,_ZNK8nlohmann10basic_jsonISt3mapSt6vectorNSt7__cxx1112basic_stringIcSt11char_traitsIcESaIcEEEblmdSaNS_14adl_serializerEEcvT_IfLi0EEEv
FNDA:1328,_ZNK8nlohmann10basic_jsonISt3mapSt6vectorNSt7__cxx1112basic_stringIcSt11char_traitsIcESaIcEEEblmdSaNS_14adl_serializerEE5valueIS8_Li0EEET_RKS8_RKSC_
FNDA:2656,_ZNK8nlohmann10basic_jsonISt3mapSt6vectorNSt7__cxx1112basic_stringIcSt11char_traitsIcESaIcEEEblmdSaNS_14adl_serializerEE5valueIfLi0EEET_RKS8_RKSC_
FNDA:1328,_ZNK8nlohmann10basic_jsonISt3mapSt6vectorNSt7__cxx1112basic_stringIcSt11char_traitsIcESaIcEEEblmdSaNS_14adl_serializerEE5valueERKS8_PKc
FNDA:0,_ZN8nlohmann10basic_jsonISt3mapSt6vectorNSt7__cxx1112basic_stringIcSt11char_traitsIcESaIcEEEblmdSaNS_14adl_serializerEE5eraseINS_6detail9iter_implISA_EELi0EEET_SF_
FNDA:3984,_ZNK8nlohmann10basic_jsonISt3mapSt6vectorNSt7__cxx1112basic_stringIcSt11char_traitsIcESaIcEEEblmdSaNS_14adl_serializerEE4findIRKS8_EENS_6detail9iter_implIKSA_EEOT_
FNDA:1,_ZN8nlohmann10basic_jsonISt3mapSt6vectorNSt7__cxx1112basic_stringIcSt11char_traitsIcESaIcEEEblmdSaNS_14adl_serializerEE5beginEv
FNDA:1,_ZN8nlohmann10basic_jsonISt3mapSt6vectorNSt7__cxx1112basic_stringIcSt11char_traitsIcESaIcEEEblmdSaNS_14adl_serializerEE3endEv
FNDA:3984,_ZNK8nlohmann10basic_jsonISt3mapSt6vectorNSt7__cxx1112basic_stringIcSt11char_traitsIcESaIcEEEblmdSaNS_14adl_serializerEE3endEv
FNDA:7968,_ZNK8nlohmann10basic_jsonISt3mapSt6vectorNSt7__cxx1112basic_stringIcSt11char_traitsIcESaIcEEEblmdSaNS_14adl_serializerEE4cendEv
FNDA:0,_ZNK8nlohmann10basic_jsonISt3mapSt6vectorNSt7__cxx1112basic_stringIcSt11char_traitsIcESaIcEEEblmdSaNS_14adl_serializerEE4sizeEv
FNDA:0,_ZNK8nlohmann10basic_jsonISt3mapSt6vectorNSt7__cxx1112basic_stringIcSt11char_traitsIcESaIcEEEblmdSaNS_14adl_serializerEE8max_sizeEv
FNDA:1,_ZN8nlohmann10basic_jsonISt3mapSt6vectorNSt7__cxx1112basic_stringIcSt11char_traitsIcESaIcEEEblmdSaNS_14adl_serializerEE5parseEONS_6detail13input_adapterESt8functionIFbiNSB_6parserISA_E13parse_event_tERSA_EEb
FNDA:0,_ZNK8nlohmann10basic_jsonISt3mapSt6vectorNSt7__cxx1112basic_stringIcSt11char_traitsIcESaIcEEEblmdSaNS_14adl_serializerEE9type_nameEv
FNF:242
FNH:138
DA:566,0
DA:570,0
DA:572,0
DA:579,0
DA:581,0
DA:583,0
DA:634,0
DA:645,0
DA:647,0
DA:648,0
DA:649,0
DA:650,0
DA:665,0
DA:666,0
DA:706,0
DA:709,0
DA:711,0
DA:712,0
DA:716,0
DA:717,0
DA:758,0
DA:761,0
DA:763,0
DA:764,0
DA:768,0
DA:803,0
DA:806,0
DA:808,0
DA:809,0
DA:813,0
DA:840,0
DA:843,0
DA:845,0
DA:846,0
DA:850,0
DA:1013,1328
DA:1015,1328
DA:1017,0
DA:1019,1328
DA:1020,1328
DA:1198,2656
DA:1200,2656
DA:1202,0
DA:1204,0
DA:1205,0
DA:1207,1
DA:1209,1
DA:1210,1
DA:1212,2655
DA:1214,2655
DA:1215,2655
DA:1217,0
DA:1219,0
DA:1220,0
DA:1223,0
DA:1224,0
DA:1226,2656
DA:1288,3984
DA:1292,3984
DA:1310,3984
DA:1313,3984
DA:1488,0
DA:1490,0
DA:1491,0
DA:1492,0
DA:1493,0
DA:1500,2656
DA:1502,2656
DA:1503,2656
DA:1504,2656
DA:1505,2656
DA:1530,16475
DA:1532,16475
DA:1533,16475
DA:1534,16475
DA:1535,16475
DA:1542,1380
DA:1544,1380
DA:1545,1380
DA:1546,1380
DA:1547,1380
DA:1554,73
DA:1556,73
DA:1557,73
DA:1558,73
DA:1559,73
DA:1656,0
DA:1658,0
DA:1659,0
DA:1663,2656
DA:1665,2656
DA:1666,2656
DA:1676,16475
DA:1678,16475
DA:1679,16475
DA:1683,1380
DA:1685,1380
DA:1686,1380
DA:1690,73
DA:1692,73
DA:1693,73
DA:1781,20584
DA:1784,20584
DA:1803,20584
DA:1806,20584
DA:1857,1
DA:1861,1
DA:1879,1
DA:1880,2
DA:1883,1
DA:1884,1
DA:1886,1
DA:1887,1
DA:1888,1
DA:1897,802298
DA:1899,802298
DA:2090,1
DA:2096,1
DA:2097,1
DA:2183,1
DA:2185,1
DA:2225,1
DA:2256,0
DA:2258,0
DA:2260,0
DA:2261,0
DA:2262,0
DA:2263,0
DA:2264,0
DA:2265,0
DA:2266,0
DA:2267,0
DA:2268,0
DA:2269,0
DA:2270,0
DA:2273,0
DA:2274,0
DA:2275,0
DA:2276,0
DA:2277,0
DA:2278,0
DA:2279,0
DA:2280,0
DA:2281,0
DA:2282,0
DA:2283,0
DA:2284,0
DA:2285,0
DA:2286,0
DA:2287,0
DA:2288,0
DA:2289,0
DA:2290,0
DA:2291,0
DA:2292,0
DA:2297,1
DA:2298,2
DA:2310,1
DA:2312,1
DA:2313,1
DA:2314,1
DA:2336,0
DA:2339,0
DA:2340,0
DA:2342,0
DA:2343,0
DA:2345,0
DA:2347,0
DA:2349,0
DA:2351,0
DA:2353,0
DA:2355,0
DA:2357,0
DA:2361,0
DA:2365,0
DA:2366,0
DA:2384,10624
DA:2386,10624
DA:2387,10624
DA:2389,21248
DA:2391,10624
DA:2392,10624
DA:2394,10624
DA:2398,0
DA:2399,0
DA:2403,10624
DA:2421,23240
DA:2424,23240
DA:2427,23240
DA:2429,449528
DA:2432,472768
DA:2435,0
DA:2437,0
DA:2438,0
DA:2442,23240
DA:2444,23240
DA:2448,0
DA:2450,0
DA:2453,0
DA:2454,0
DA:2455,0
DA:2457,0
DA:2458,0
DA:2459,0
DA:2461,0
DA:2462,0
DA:2463,0
DA:2465,0
DA:2466,0
DA:2467,0
DA:2469,0
DA:2470,0
DA:2471,0
DA:2473,0
DA:2474,0
DA:2475,0
DA:2477,0
DA:2478,0
DA:2479,0
DA:2481,0
DA:2482,0
DA:2483,0
DA:2486,0
DA:2488,0
DA:2489,0
DA:2491,0
DA:2493,0
DA:2494,0
DA:2498,0
DA:2501,0
DA:2503,0
DA:2505,0
DA:2507,0
DA:2508,0
DA:2512,0
DA:2515,0
DA:2517,0
DA:2519,0
DA:2527,0
DA:2528,0
DA:2533,0
DA:2534,0
DA:2535,0
DA:2539,0
DA:2541,0
DA:2542,0
DA:2547,0
DA:2550,0
DA:2553,0
DA:2555,0
DA:2558,0
DA:2559,0
DA:2561,0
DA:2564,0
DA:2565,0
DA:2566,0
DA:2571,0
DA:2572,0
DA:2573,0
DA:2574,0
DA:2577,0
DA:2581,0
DA:2582,0
DA:2583,0
DA:2586,0
DA:2590,0
DA:2623,0
DA:2624,0
DA:2628,438904
DA:2723,438904
DA:2724,438904
DA:2728,10624
DA:2759,10624
DA:2761,0
DA:2763,10624
DA:2767,0
DA:2769,0
DA:2771,0
DA:2773,0
DA:2778,0
DA:2793,0
DA:2795,0
DA:2797,0
DA:2801,0
DA:2803,0
DA:2805,0
DA:2807,0
DA:2811,0
DA:2813,0
DA:2815,0
DA:2817,0
DA:2821,0
DA:2825,0
DA:2827,0
DA:2829,0
DA:2833,0
DA:2835,0
DA:2837,0
DA:2839,0
DA:2843,0
DA:2845,0
DA:2846,0
DA:2857,16475
DA:2859,16475
DA:2860,16475
DA:2907,17928
DA:2910,17928
DA:2914,17928
DA:2917,17928
DA:2919,5976
DA:2921,5976
DA:2922,5976
DA:2925,746
DA:2927,746
DA:2928,746
DA:2931,11206
DA:2941,11206
DA:2942,11206
DA:2945,0
DA:2952,5976
DA:2954,5976
DA:2955,5976
DA:2957,734
DA:2959,734
DA:2960,734
DA:2963,5242
DA:2973,5242
DA:2974,5242
DA:2977,0
DA:2979,0
DA:2980,0
DA:2984,1480
DA:2986,1480
DA:2988,1478
DA:2990,1478
DA:2991,1478
DA:2994,0
DA:2997,0
DA:2998,0
DA:3001,2
DA:3002,2
DA:3005,16448
DA:3007,32075
DA:3009,15627
DA:3020,15627
DA:3021,15627
DA:3024,14997
DA:3026,14997
DA:3027,14997
DA:3030,0
DA:3033,0
DA:3034,0
DA:3037,1451
DA:3038,1451
DA:3041,16475
DA:3043,16475
DA:3044,16475
DA:3046,16475
DA:3057,16475
DA:3058,16475
DA:3061,0
DA:3063,0
DA:3064,0
DA:3068,69673
DA:3070,69673
DA:3072,53198
DA:3083,53198
DA:3084,53198
DA:3087,0
DA:3090,0
DA:3091,0
DA:3094,16475
DA:3095,16475
DA:3098,0
DA:3100,0
DA:3101,0
DA:3103,0
DA:3106,0
DA:3107,0
DA:3110,0
DA:3121,0
DA:3122,0
DA:3125,0
DA:3127,0
DA:3129,0
DA:3133,0
DA:3135,0
DA:3137,0
DA:3148,0
DA:3149,0
DA:3152,0
DA:3154,0
DA:3155,0
DA:3159,0
DA:3161,0
DA:3163,0
DA:3174,0
DA:3175,0
DA:3178,0
DA:3179,0
DA:3182,17928
DA:3185,17928
DA:3187,17928
DA:3188,17928
DA:3191,17928
DA:3193,1380
DA:3196,1380
DA:3198,1380
DA:3200,1380
DA:3201,1380
DA:3203,1380
DA:3207,16548
DA:3209,73
DA:3212,73
DA:3214,73
DA:3216,73
DA:3217,73
DA:3219,73
DA:3226,16475
DA:3229,16475
DA:3231,16475
DA:3239,0
DA:3242,0
DA:3243,0
DA:3245,0
DA:3247,0
DA:3248,0
DA:3251,0
DA:3259,41168
DA:3261,41168
DA:3262,41168
DA:3263,41168
DA:3264,41168
DA:3276,820227
DA:3278,820227
DA:3279,820227
DA:3282,17929
DA:3286,802298
DA:3289,820227
DA:3291,820226
DA:3293,820227
DA:3304,17929
DA:3306,17929
DA:3307,17929
DA:3308,17929
DA:3310,17929
DA:3311,17929
DA:3313,17929
DA:3316,585831
DA:3318,585831
DA:3319,585831
DA:3327,73
DA:3329,73
DA:3333,1380
DA:3335,1380
DA:3339,16475
DA:3341,16475
DA:3345,39715
DA:3347,39715
DA:3355,0
DA:3357,0
DA:3363,0
DA:3366,0
DA:3367,0
DA:3369,0
DA:3373,0
DA:3374,0
DA:3379,0
DA:3383,0
DA:3387,0
DA:3389,0
DA:3400,1
DA:3402,1
DA:3404,0
DA:3407,0
DA:3412,0
DA:3419,1
DA:3420,1
DA:3424,83666
DA:3427,83666
DA:3429,0
DA:3430,0
DA:3434,127489
DA:3436,211155
DA:3438,211155
DA:3440,83666
DA:3443,1
DA:3444,1
DA:3445,1
DA:3446,1
DA:3447,664
DA:3448,664
DA:3449,664
DA:3450,664
DA:3451,20584
DA:3452,20584
DA:3453,20583
DA:3454,20583
DA:3457,0
DA:3458,0
DA:3459,0
DA:3460,0
DA:3461,0
DA:3462,0
DA:3465,23240
DA:3466,23240
DA:3469,17928
DA:3480,17928
DA:3484,1
DA:3486,1
DA:3489,0
DA:3490,0
DA:3491,0
DA:3500,1
DA:3563,1
DA:3665,1
DA:3685,1
DA:3698,1
DA:3699,1
DA:3700,1
DA:3702,0
DA:3704,0
DA:3705,0
DA:3708,0
DA:3710,0
DA:3711,0
DA:3714,73
DA:3716,73
DA:3717,73
DA:3720,1380
DA:3722,1380
DA:3723,1380
DA:3726,16475
DA:3728,16475
DA:3729,16475
DA:3732,2656
DA:3734,2656
DA:3735,2656
DA:3738,664
DA:3740,664
DA:3742,664
DA:3744,0
DA:3748,664
DA:3751,20584
DA:3754,20584
DA:3755,20584
DA:3758,664
DA:3760,664
DA:3761,664
DA:3764,1
DA:3766,1
DA:3768,1
DA:3770,0
DA:3774,1
DA:3777,1
DA:3779,1
DA:3780,1
DA:3783,0
DA:3786,0
DA:3787,0
DA:3790,0
DA:3792,0
DA:3793,0
DA:3794,0
DA:3796,0
DA:3798,0
DA:3799,0
DA:3800,0
DA:3802,0
DA:3806,0
DA:3809,1
DA:3811,1
DA:3822,21249
DA:3824,21249
DA:3826,1
DA:3827,1
DA:3831,21248
DA:3832,21248
DA:3834,664
DA:3835,664
DA:3839,20584
DA:3840,20584
DA:3841,20584
DA:3859,0
DA:3869,0
DA:3872,0
DA:3874,0
DA:3875,0
DA:3877,0
DA:3879,0
DA:3880,0
DA:3883,0
DA:3885,0
DA:3886,0
DA:3889,0
DA:3891,0
DA:3892,0
DA:3895,0
DA:3897,0
DA:3898,0
DA:3901,0
DA:3903,0
DA:3904,0
DA:3907,0
DA:3909,0
DA:3910,0
DA:3913,0
DA:3916,0
DA:3917,0
DA:3919,0
DA:3920,0
DA:3923,0
DA:3925,0
DA:3927,0
DA:3932,0
DA:3935,0
DA:3937,0
DA:3940,0
DA:3941,0
DA:3944,0
DA:3946,0
DA:3949,0
DA:3952,0
DA:3954,0
DA:3956,0
DA:3959,0
DA:3963,0
DA:3964,0
DA:3965,0
DA:3966,0
DA:3968,0
DA:3971,0
DA:3973,0
DA:3975,0
DA:3977,0
DA:3978,0
DA:3984,0
DA:3987,0
DA:3989,0
DA:3990,0
DA:3992,0
DA:3993,0
DA:3996,0
DA:3998,0
DA:4000,0
DA:4005,0
DA:4008,0
DA:4010,0
DA:4012,0
DA:4014,0
DA:4015,0
DA:4018,0
DA:4022,0
DA:4023,0
DA:4024,0
DA:4025,0
DA:4028,0
DA:4030,0
DA:4032,0
DA:4036,0
DA:4039,0
DA:4042,0
DA:4043,0
DA:4046,0
DA:4048,0
DA:4049,0
DA:4050,0
DA:4052,0
DA:4054,0
DA:4055,0
DA:4056,0
DA:4058,0
DA:4062,0
DA:4065,0
DA:4067,0
DA:4087,0
DA:4089,0
DA:4093,0
DA:4095,0
DA:4099,0
DA:4102,0
DA:4105,0
DA:4107,0
DA:4110,0
DA:4112,0
DA:4113,0
DA:4117,0
DA:4118,0
DA:4120,0
DA:4121,0
DA:4126,0
DA:4127,0
DA:4128,0
DA:4130,0
DA:4132,0
DA:4135,0
DA:4136,0
DA:4137,0
DA:4254,1
DA:4286,1
DA:4289,1
DA:4292,1
DA:4293,1
DA:4305,1
DA:4307,1
DA:4309,0
DA:4310,0
DA:4311,0
DA:4314,0
DA:4316,0
DA:4322,0
DA:4324,0
DA:4325,0
DA:4330,0
DA:4332,0
DA:4337,2
DA:4338,1
DA:4339,1
DA:4342,1
DA:4344,0
DA:4350,1
DA:4352,0
DA:4353,0
DA:4386,1
DA:4390,2
DA:4392,1
DA:4394,21913
DA:4396,21914
DA:4399,21249
DA:4401,664
DA:4403,664
DA:4405,0
DA:4409,664
DA:4411,0
DA:4413,0
DA:4415,0
DA:4419,664
DA:4423,0
DA:4427,664
DA:4429,0
DA:4434,664
DA:4438,0
DA:4442,664
DA:4445,664
DA:4446,664
DA:4449,1
DA:4451,1
DA:4453,0
DA:4457,1
DA:4459,0
DA:4461,0
DA:4463,0
DA:4467,1
DA:4470,1
DA:4473,16475
DA:4475,16475
DA:4477,16475
DA:4481,0
DA:4485,16475
DA:4487,0
DA:4489,16475
DA:4493,0
DA:4495,0
DA:4497,0
DA:4499,0
DA:4502,0
DA:4504,0
DA:4506,0
DA:4508,0
DA:4511,0
DA:4513,0
DA:4515,0
DA:4517,0
DA:4520,73
DA:4522,73
DA:4524,0
DA:4526,73
DA:4529,2656
DA:4531,2656
DA:4533,0
DA:4535,2656
DA:4538,1380
DA:4540,1380
DA:4542,0
DA:4544,1380
DA:4547,0
DA:4552,0
DA:4555,0
DA:4559,0
DA:4560,665
DA:4565,665
DA:4569,21249
DA:4572,1
DA:4576,21248
DA:4579,1327
DA:4582,663
DA:4583,663
DA:4587,2
DA:4589,1
DA:4591,0
DA:4598,1
DA:4599,1
DA:4600,1
DA:4601,1
DA:4607,0
DA:4613,40504
DA:4616,19920
DA:4620,0
DA:4624,19920
DA:4626,0
DA:4631,19920
DA:4635,0
DA:4639,19920
DA:4640,19920
DA:4644,1328
DA:4646,664
DA:4648,0
DA:4655,664
DA:4656,664
DA:4657,664
DA:4658,664
DA:4664,0
DA:4672,83666
DA:4674,83666
DA:4677,0
DA:4679,0
DA:4680,0
DA:4682,0
DA:4687,0
DA:4690,0
DA:4692,0
DA:4695,0
DA:4730,15940
DA:4738,7970
DA:4747,0
DA:4749,0
DA:4750,0
DA:4753,0
DA:4755,0
DA:4756,0
DA:4759,0
DA:4761,0
DA:4770,0
DA:4772,0
DA:4792,0
DA:4794,0
DA:4795,0
DA:4849,7970
DA:4954,7970
DA:4956,7970
DA:4958,7970
DA:4960,7968
DA:4962,7968
DA:4963,7968
DA:4966,2
DA:4968,2
DA:4969,2
DA:4972,0
DA:4974,0
DA:4975,0
DA:4978,7970
DA:4994,0
DA:4995,0
DA:5015,1
DA:5017,1
DA:5019,1
DA:5021,0
DA:5023,0
DA:5024,0
DA:5027,1
DA:5029,1
DA:5030,1
DA:5033,0
DA:5036,0
DA:5037,0
DA:5040,0
DA:5042,0
DA:5043,0
DA:5046,1
DA:5052,7969
DA:5054,7969
DA:5056,7969
DA:5058,7968
DA:5060,7968
DA:5061,7968
DA:5064,1
DA:5066,1
DA:5067,1
DA:5070,0
DA:5072,0
DA:5073,0
DA:5076,7969
DA:5083,4648
DA:5085,4648
DA:5087,4648
DA:5089,3984
DA:5091,3984
DA:5092,3984
DA:5095,664
DA:5097,664
DA:5098,664
DA:5101,0
DA:5102,0
DA:5104,0
DA:5106,0
DA:5108,0
DA:5111,0
DA:5120,0
DA:5122,0
DA:5124,0
DA:5126,0
DA:5128,0
DA:5129,0
DA:5132,0
DA:5134,0
DA:5135,0
DA:5138,0
DA:5140,0
DA:5142,0
DA:5145,0
DA:5165,664
DA:5167,664
DA:5169,664
DA:5171,0
DA:5173,0
DA:5174,0
DA:5177,664
DA:5179,664
DA:5180,664
DA:5183,0
DA:5185,0
DA:5186,0
DA:5190,664
DA:5240,4649
DA:5243,4649
DA:5245,0
DA:5248,4649
DA:5250,4649
DA:5252,3984
DA:5253,3984
DA:5255,665
DA:5256,665
DA:5258,0
DA:5259,0
DA:5267,4649
DA:5269,4649
DA:10899,3984
DA:10902,3984
DA:10903,3984
DA:10915,20584
DA:10918,20584
DA:10919,20584
DA:11671,6641
DA:11673,13282
DA:11676,6641
DA:11678,0
DA:11679,0
DA:11680,13282
DA:11681,6641
DA:11682,6641
DA:11683,13282
DA:11734,0
DA:11736,146
DA:11738,2760
DA:11740,32950
DA:11742,21250
DA:11744,21250
DA:11746,664
DA:11748,664
DA:11749,664
DA:11752,1
DA:11754,1
DA:11755,1
DA:11758,0
DA:11760,0
DA:11761,0
DA:11764,0
DA:11766,0
DA:11767,0
DA:11770,0
DA:11772,0
DA:11773,0
DA:11776,0
DA:11778,0
DA:11779,0
DA:11782,0
DA:11784,0
DA:11785,0
DA:11788,20585
DA:11790,20585
DA:11791,20585
DA:11794,0
DA:11796,0
DA:11797,0
DA:11801,0
DA:11804,21250
DA:11807,5312
DA:11809,5312
DA:11810,5312
DA:11819,664
DA:11821,664
DA:11822,664
DA:11831,0
DA:11833,0
DA:11834,0
DA:11842,64105
DA:11844,64105
DA:11846,1328
DA:11848,2656
DA:11849,1328
DA:11850,1328
DA:11851,1328
DA:11854,1
DA:11856,2
DA:11857,1
DA:11858,1
DA:11859,1
DA:11862,5312
DA:11864,10624
DA:11865,5312
DA:11866,5312
DA:11867,5312
DA:11870,57464
DA:11872,57464
DA:11875,64105
DA:11887,232821
DA:11889,232821
DA:11890,232821
DA:11891,232821
DA:11892,232821
DA:12007,21250
DA:12008,21250
DA:12010,21250
DA:12011,21250
DA:12031,20585
DA:12032,20585
DA:12034,20585
DA:12035,20585
DA:12098,20584
DA:12101,20584
DA:12102,20584
DA:12103,20584
DA:12104,20584
DA:12600,21248
DA:12601,21248
DA:12604,21248
DA:12606,21248
DA:12608,664
DA:12610,664
DA:12611,664
DA:12614,0
DA:12616,0
DA:12617,0
DA:12620,2656
DA:12622,2656
DA:12623,2656
DA:12626,0
DA:12628,0
DA:12629,0
DA:12632,73
DA:12634,73
DA:12635,73
DA:12638,1380
DA:12640,1380
DA:12641,1380
DA:12644,16475
DA:12646,16475
DA:12647,16475
DA:12650,0
DA:12651,0
DA:12654,21248
DA:12655,21248
DA:12683,1023
DA:12684,1023
DA:12685,1023
DA:12688,1023
DA:12691,1023
DA:12692,1023
DA:12694,1023
DA:12695,1023
DA:12720,20585
DA:12728,20585
DA:12731,20585
DA:12732,20585
DA:12734,20585
DA:12735,20585
DA:12753,64105
DA:12755,64105
DA:12756,64105
DA:12757,64105
DA:12957,0
DA:12959,0
DA:13016,1
DA:13018,1
DA:13044,0
DA:13046,0
DA:13072,2655
DA:13074,2655
DA:13094,28552
DA:13096,28552
DA:13116,42496
DA:13118,42496
DA:13138,2656
DA:13140,2656
DA:13165,0
DA:13167,0
DA:13191,2656
DA:13193,2656
DA:13245,1328
DA:13247,1328
DA:13257,0
DA:13259,0
DA:13269,1
DA:13271,1
DA:13281,0
DA:13283,0
DA:13293,2655
DA:13295,2655
DA:13418,3984
DA:13429,1328
DA:13430,3984
DA:13431,3984
DA:13580,3984
DA:13598,3984
DA:13689,3984
DA:13692,3984
DA:14212,3984
DA:14215,3984
DA:14218,3984
DA:14219,3984
DA:14221,3984
DA:14224,0
DA:14227,0
DA:14234,1328
DA:14236,1328
DA:14446,0
DA:14449,0
DA:14451,0
DA:14454,0
DA:14456,0
DA:14458,0
DA:14464,0
DA:14466,0
DA:14469,0
DA:14471,0
DA:14472,0
DA:14473,0
DA:14474,0
DA:14477,0
DA:14478,0
DA:14479,0
DA:14482,0
DA:14484,0
DA:14485,0
DA:14488,0
DA:14490,0
DA:14491,0
DA:14494,0
DA:14495,0
DA:14498,0
DA:14741,3984
DA:14743,3984
DA:14745,3984
DA:14747,3984
DA:14750,3984
DA:14815,1
DA:14817,1
DA:14818,1
DA:14819,1
DA:14886,1
DA:14888,1
DA:14889,1
DA:14890,1
DA:14896,3984
DA:14898,3984
DA:14926,7968
DA:14928,7968
DA:14929,7968
DA:14930,7968
DA:15325,0
DA:15327,0
DA:15329,0
DA:15332,0
DA:15335,0
DA:15338,0
DA:15341,0
DA:15344,0
DA:15347,0
DA:15350,0
DA:15395,0
DA:15397,0
DA:15399,0
DA:15402,0
DA:15405,0
DA:15408,0
DA:15411,0
DA:15414,0
DA:16854,1
DA:16858,1
DA:16859,1
DA:16860,1
DA:17041,0
DA:17044,0
DA:17046,0
DA:17047,0
DA:17048,0
DA:17049,0
DA:17050,0
DA:17051,0
DA:17052,0
DA:17053,0
DA:17054,0
DA:17055,0
DA:17056,0
DA:17057,0
DA:17058,0
DA:17059,0
LF:1217
LH:578
end_of_record
SF:/home/kpit/c_workspace/project1/main.cpp
FN:7,main
FN:63,_Z41__static_initialization_and_destruction_0ii
FN:63,_GLOBAL__sub_I_main
FNDA:1,main
FNDA:1,_GLOBAL__sub_I_main
FNDA:1,_Z41__static_initialization_and_destruction_0ii
FNF:3
FNH:3
DA:7,1
DA:10,2
DA:12,2
DA:14,2
DA:15,2
DA:16,2
DA:17,2
DA:18,2
DA:20,665
DA:21,2656
DA:22,1328
DA:23,1328
DA:24,1328
DA:25,1992
DA:26,664
DA:27,2656
DA:28,1328
DA:31,665
DA:32,664
DA:33,664
DA:39,1
DA:40,665
DA:41,664
DA:42,664
DA:43,664
DA:44,664
DA:48,1
DA:49,1
DA:50,1
DA:51,1
DA:52,1
DA:53,1
DA:54,1
DA:55,1
DA:56,1
DA:59,1
DA:61,665
DA:62,664
DA:63,4
LF:39
LH:39
end_of_record
TN:
SF:/usr/include/c++/7/bits/alloc_traits.h
FN:435,_ZNSt16allocator_traitsISaIiEE8allocateERS0_m
FN:435,_ZNSt16allocator_traitsISaISt13_Rb_tree_nodeISt4pairIKiNSt7__cxx1112basic_stringIcSt11char_traitsIcESaIcEEEEEEE8allocateERSB_m
FN:461,_ZNSt16allocator_traitsISaIiEE10deallocateERS0_Pim
FN:461,_ZNSt16allocator_traitsISaISt13_Rb_tree_nodeISt4pairIKiNSt7__cxx1112basic_stringIcSt11char_traitsIcESaIcEEEEEEE10deallocateERSB_PSA_m
FN:474,_ZNSt16allocator_traitsISaISt13_Rb_tree_nodeISt4pairIKiNSt7__cxx1112basic_stringIcSt11char_traitsIcESaIcEEEEEEE9constructIS9_JRKSt21piecewise_construct_tSt5tupleIJOiEESH_IJEEEEEvRSB_PT_DpOT0_
FN:474,_ZNSt16allocator_traitsISaISt13_Rb_tree_nodeISt4pairIKiNSt7__cxx1112basic_stringIcSt11char_traitsIcESaIcEEEEEEE9constructIS9_JRKSt21piecewise_construct_tSt5tupleIJRS2_EESH_IJEEEEEvRSB_PT_DpOT0_
FN:486,_ZNSt16allocator_traitsISaISt13_Rb_tree_nodeISt4pairIKiNSt7__cxx1112basic_stringIcSt11char_traitsIcESaIcEEEEEEE7destroyIS9_EEvRSB_PT_
FNDA:1,_ZNSt16allocator_traitsISaIiEE8allocateERS0_m
FNDA:6,_ZNSt16allocator_traitsISaISt13_Rb_tree_nodeISt4pairIKiNSt7__cxx1112basic_stringIcSt11char_traitsIcESaIcEEEEEEE8allocateERSB_m
FNDA:6,_ZNSt16allocator_traitsISaISt13_Rb_tree_nodeISt4pairIKiNSt7__cxx1112basic_stringIcSt11char_traitsIcESaIcEEEEEEE10deallocateERSB_PSA_m
FNDA:1,_ZNSt16allocator_traitsISaIiEE10deallocateERS0_Pim
FNDA:0,_ZNSt16allocator_traitsISaISt13_Rb_tree_nodeISt4pairIKiNSt7__cxx1112basic_stringIcSt11char_traitsIcESaIcEEEEEEE9constructIS9_JRKSt21piecewise_construct_tSt5tupleIJRS2_EESH_IJEEEEEvRSB_PT_DpOT0_
FNDA:6,_ZNSt16allocator_traitsISaISt13_Rb_tree_nodeISt4pairIKiNSt7__cxx1112basic_stringIcSt11char_traitsIcESaIcEEEEEEE9constructIS9_JRKSt21piecewise_construct_tSt5tupleIJOiEESH_IJEEEEEvRSB_PT_DpOT0_
FNDA:6,_ZNSt16allocator_traitsISaISt13_Rb_tree_nodeISt4pairIKiNSt7__cxx1112basic_stringIcSt11char_traitsIcESaIcEEEEEEE7destroyIS9_EEvRSB_PT_
FNF:7
FNH:6
DA:435,7
DA:436,7
DA:461,7
DA:462,7
DA:474,6
DA:475,6
DA:486,6
DA:487,6
LF:8
LH:8
end_of_record
SF:/usr/include/c++/7/bits/allocator.h
FN:131,_ZNSaISt13_Rb_tree_nodeISt4pairIKiNSt7__cxx1112basic_stringIcSt11char_traitsIcESaIcEEEEEEC2Ev
FN:131,_ZNSaIiEC2Ev
FN:133,_ZNSaIiEC2ERKS_
FN:139,_ZNSaIiED2Ev
FN:139,_ZNSaISt13_Rb_tree_nodeISt4pairIKiNSt7__cxx1112basic_stringIcSt11char_traitsIcESaIcEEEEEED2Ev
FNDA:1,_ZNSaIiEC2Ev
FNDA:1,_ZNSaISt13_Rb_tree_nodeISt4pairIKiNSt7__cxx1112basic_stringIcSt11char_traitsIcESaIcEEEEEEC2Ev
FNDA:1,_ZNSaIiEC2ERKS_
FNDA:2,_ZNSaIiED2Ev
FNDA:1,_ZNSaISt13_Rb_tree_nodeISt4pairIKiNSt7__cxx1112basic_stringIcSt11char_traitsIcESaIcEEEEEED2Ev
FNF:5
FNH:5
DA:131,2
DA:133,1
DA:134,1
DA:139,3
LF:4
LH:4
end_of_record
SF:/usr/include/c++/7/bits/move.h
FN:73,_ZSt7forwardISt5tupleIJRKiEEEOT_RNSt16remove_referenceIS4_E4typeE
FN:73,_ZSt7forwardISt5tupleIJOiEEEOT_RNSt16remove_referenceIS3_E4typeE
FN:73,_ZSt7forwardIRPSt18_Rb_tree_node_baseEOT_RNSt16remove_referenceIS3_E4typeE
FN:73,_ZSt7forwardISt5tupleIJEEEOT_RNSt16remove_referenceIS2_E4typeE
FN:73,_ZSt7forwardIRKSt21piecewise_construct_tEOT_RNSt16remove_referenceIS3_E4typeE
FN:73,_ZSt7forwardIRPSt13_Rb_tree_nodeISt4pairIKiNSt7__cxx1112basic_stringIcSt11char_traitsIcESaIcEEEEEEOT_RNSt16remove_referenceISD_E4typeE
FN:73,_ZSt7forwardIRKiEOT_RNSt16remove_referenceIS2_E4typeE
FN:73,_ZSt7forwardIiEOT_RNSt16remove_referenceIS0_E4typeE
FN:73,_ZSt7forwardIOiEOT_RNSt16remove_referenceIS1_E4typeE
FN:98,_ZSt4moveIRiEONSt16remove_referenceIT_E4typeEOS2_
FNDA:0,_ZSt7forwardIRKiEOT_RNSt16remove_referenceIS2_E4typeE
FNDA:1,_ZSt7forwardIRPSt13_Rb_tree_nodeISt4pairIKiNSt7__cxx1112basic_stringIcSt11char_traitsIcESaIcEEEEEEOT_RNSt16remove_referenceISD_E4typeE
FNDA:0,_ZSt7forwardIRPSt18_Rb_tree_node_baseEOT_RNSt16remove_referenceIS3_E4typeE
FNDA:0,_ZSt7forwardISt5tupleIJRKiEEEOT_RNSt16remove_referenceIS4_E4typeE
FNDA:0,_ZSt7forwardISt5tupleIJEEEOT_RNSt16remove_referenceIS2_E4typeE
FNDA:30,_ZSt7forwardISt5tupleIJOiEEEOT_RNSt16remove_referenceIS3_E4typeE
FNDA:0,_ZSt7forwardIRKSt21piecewise_construct_tEOT_RNSt16remove_referenceIS3_E4typeE
FNDA:12,_ZSt7forwardIOiEOT_RNSt16remove_referenceIS1_E4typeE
FNDA:0,_ZSt7forwardIiEOT_RNSt16remove_referenceIS0_E4typeE
FNDA:6,_ZSt4moveIRiEONSt16remove_referenceIT_E4typeEOS2_
FNF:10
FNH:4
DA:73,43
DA:74,43
DA:98,6
DA:99,6
LF:4
LH:4
end_of_record
SF:/usr/include/c++/7/bits/predefined_ops.h
FN:42,_ZNK9__gnu_cxx5__ops15_Iter_less_iterclINS_17__normal_iteratorIPiSt6vectorIiSaIiEEEES8_EEbT_T0_
FN:48,_ZN9__gnu_cxx5__ops16__iter_less_iterEv
FNDA:5,_ZNK9__gnu_cxx5__ops15_Iter_less_iterclINS_17__normal_iteratorIPiSt6vectorIiSaIiEEEES8_EEbT_T0_
FNDA:1,_ZN9__gnu_cxx5__ops16__iter_less_iterEv
FNF:2
FNH:2
DA:42,5
DA:43,5
DA:48,1
DA:49,1
LF:4
LH:4
end_of_record
SF:/usr/include/c++/7/bits/stl_algo.h
FN:5647,_ZSt13__max_elementIN9__gnu_cxx17__normal_iteratorIPiSt6vectorIiSaIiEEEENS0_5__ops15_Iter_less_iterEET_S9_S9_T0_
FN:5668,_ZSt11max_elementIN9__gnu_cxx17__normal_iteratorIPiSt6vectorIiSaIiEEEEET_S7_S7_
FNDA:1,_ZSt13__max_elementIN9__gnu_cxx17__normal_iteratorIPiSt6vectorIiSaIiEEEENS0_5__ops15_Iter_less_iterEET_S9_S9_T0_
FNDA:1,_ZSt11max_elementIN9__gnu_cxx17__normal_iteratorIPiSt6vectorIiSaIiEEEEET_S7_S7_
FNF:2
FNH:2
DA:5647,1
DA:5650,1
DA:5651,1
DA:5652,11
DA:5653,5
DA:5654,3
DA:5655,1
DA:5668,1
DA:5678,1
LF:9
LH:9
end_of_record
SF:/usr/include/c++/7/bits/stl_algobase.h
FN:277,_ZSt12__niter_baseIPiET_S1_
FN:749,_ZSt10__fill_n_aIPimiEN9__gnu_cxx11__enable_ifIXsrSt11__is_scalarIT1_E7__valueET_E6__typeES6_T0_RKS4_
FN:784,_ZSt6fill_nIPimiET_S1_T0_RKT1_
FNDA:1,_ZSt12__niter_baseIPiET_S1_
FNDA:1,_ZSt10__fill_n_aIPimiEN9__gnu_cxx11__enable_ifIXsrSt11__is_scalarIT1_E7__valueET_E6__typeES6_T0_RKS4_
FNDA:1,_ZSt6fill_nIPimiET_S1_T0_RKT1_
FNF:3
FNH:3
DA:277,1
DA:278,1
DA:749,1
DA:751,1
DA:752,7
DA:753,7
DA:754,6
DA:755,1
DA:784,1
DA:789,1
LF:10
LH:10
end_of_record
SF:/usr/include/c++/7/bits/stl_construct.h
FN:117,_ZNSt12_Destroy_auxILb1EE9__destroyIPiEEvT_S3_
FN:127,_ZSt8_DestroyIPiEvT_S1_
FN:203,_ZSt8_DestroyIPiiEvT_S1_RSaIT0_E
FNDA:1,_ZNSt12_Destroy_auxILb1EE9__destroyIPiEEvT_S3_
FNDA:1,_ZSt8_DestroyIPiEvT_S1_
FNDA:1,_ZSt8_DestroyIPiiEvT_S1_RSaIT0_E
FNF:3
FNH:3
DA:117,1
DA:127,1
DA:137,1
DA:138,1
DA:203,1
DA:206,1
DA:207,1
LF:7
LH:7
end_of_record
SF:/usr/include/c++/7/bits/stl_function.h
FN:385,_ZNKSt4lessIiEclERKiS2_
FN:890,_ZNKSt10_Select1stISt4pairIKiNSt7__cxx1112basic_stringIcSt11char_traitsIcESaIcEEEEEclERKS8_
FNDA:25,_ZNKSt4lessIiEclERKiS2_
FNDA:35,_ZNKSt10_Select1stISt4pairIKiNSt7__cxx1112basic_stringIcSt11char_traitsIcESaIcEEEEEclERKS8_
FNF:2
FNH:2
DA:385,25
DA:386,25
DA:890,35
DA:891,35
LF:4
LH:4
end_of_record
SF:/usr/include/c++/7/bits/stl_iterator.h
FN:779,_ZN9__gnu_cxx17__normal_iteratorIPiSt6vectorIiSaIiEEEC2ERKS1_
FN:779,_ZN9__gnu_cxx17__normal_iteratorIPdSt6vectorIdSaIdEEEC2ERKS1_
FN:779,_ZN9__gnu_cxx17__normal_iteratorIPKdSt6vectorIdSaIdEEEC2ERKS2_
FN:792,_ZNK9__gnu_cxx17__normal_iteratorIPiSt6vectorIiSaIiEEEdeEv
FN:792,_ZNK9__gnu_cxx17__normal_iteratorIPdSt6vectorIdSaIdEEEdeEv
FN:792,_ZNK9__gnu_cxx17__normal_iteratorIPKdSt6vectorIdSaIdEEEdeEv
FN:800,_ZN9__gnu_cxx17__normal_iteratorIPdSt6vectorIdSaIdEEEppEv
FN:800,_ZN9__gnu_cxx17__normal_iteratorIPiSt6vectorIiSaIiEEEppEv
FN:800,_ZN9__gnu_cxx17__normal_iteratorIPKdSt6vectorIdSaIdEEEppEv
FN:844,_ZNK9__gnu_cxx17__normal_iteratorIPiSt6vectorIiSaIiEEE4baseEv
FN:844,_ZNK9__gnu_cxx17__normal_iteratorIPKdSt6vectorIdSaIdEEE4baseEv
FN:844,_ZNK9__gnu_cxx17__normal_iteratorIPdSt6vectorIdSaIdEEE4baseEv
FN:866,_ZN9__gnu_cxxeqIPiSt6vectorIiSaIiEEEEbRKNS_17__normal_iteratorIT_T0_EESA_
FN:880,_ZN9__gnu_cxxneIPiSt6vectorIiSaIiEEEEbRKNS_17__normal_iteratorIT_T0_EESA_
FN:880,_ZN9__gnu_cxxneIPKdSt6vectorIdSaIdEEEEbRKNS_17__normal_iteratorIT_T0_EESB_
FN:880,_ZN9__gnu_cxxneIPdSt6vectorIdSaIdEEEEbRKNS_17__normal_iteratorIT_T0_EESA_
FN:962,_ZN9__gnu_cxxmiIPiSt6vectorIiSaIiEEEENS_17__normal_iteratorIT_T0_E15difference_typeERKS8_SB_
FNDA:3,_ZN9__gnu_cxx17__normal_iteratorIPiSt6vectorIiSaIiEEEC2ERKS1_
FNDA:0,_ZN9__gnu_cxx17__normal_iteratorIPdSt6vectorIdSaIdEEEC2ERKS1_
FNDA:7,_ZN9__gnu_cxx17__normal_iteratorIPKdSt6vectorIdSaIdEEEC2ERKS2_
FNDA:10,_ZNK9__gnu_cxx17__normal_iteratorIPiSt6vectorIiSaIiEEEdeEv
FNDA:664,_ZNK9__gnu_cxx17__normal_iteratorIPdSt6vectorIdSaIdEEEdeEv
FNDA:2656,_ZNK9__gnu_cxx17__normal_iteratorIPKdSt6vectorIdSaIdEEEdeEv
FNDA:6,_ZN9__gnu_cxx17__normal_iteratorIPiSt6vectorIiSaIiEEEppEv
FNDA:664,_ZN9__gnu_cxx17__normal_iteratorIPdSt6vectorIdSaIdEEEppEv
FNDA:2656,_ZN9__gnu_cxx17__normal_iteratorIPKdSt6vectorIdSaIdEEEppEv
FNDA:16,_ZNK9__gnu_cxx17__normal_iteratorIPiSt6vectorIiSaIiEEE4baseEv
FNDA:0,_ZNK9__gnu_cxx17__normal_iteratorIPdSt6vectorIdSaIdEEE4baseEv
FNDA:3990,_ZNK9__gnu_cxx17__normal_iteratorIPKdSt6vectorIdSaIdEEE4baseEv
FNDA:1,_ZN9__gnu_cxxeqIPiSt6vectorIiSaIiEEEEbRKNS_17__normal_iteratorIT_T0_EESA_
FNDA:6,_ZN9__gnu_cxxneIPiSt6vectorIiSaIiEEEEbRKNS_17__normal_iteratorIT_T0_EESA_
FNDA:665,_ZN9__gnu_cxxneIPdSt6vectorIdSaIdEEEEbRKNS_17__normal_iteratorIT_T0_EESA_
FNDA:1995,_ZN9__gnu_cxxneIPKdSt6vectorIdSaIdEEEEbRKNS_17__normal_iteratorIT_T0_EESB_
FNDA:1,_ZN9__gnu_cxxmiIPiSt6vectorIiSaIiEEEENS_17__normal_iteratorIT_T0_E15difference_typeERKS8_SB_
FNF:17
FNH:15
DA:779,10
DA:780,10
DA:792,3330
DA:793,3330
DA:800,3326
DA:802,3326
DA:803,3326
DA:844,4006
DA:845,4006
DA:866,1
DA:869,1
DA:880,2666
DA:883,2666
DA:962,1
DA:965,1
LF:15
LH:15
end_of_record
SF:/usr/include/c++/7/bits/stl_iterator_base_funcs.h
FN:98,_ZSt10__distanceIN9__gnu_cxx17__normal_iteratorIPiSt6vectorIiSaIiEEEEENSt15iterator_traitsIT_E15difference_typeES8_S8_St26random_access_iterator_tag
FN:138,_ZSt8distanceIN9__gnu_cxx17__normal_iteratorIPiSt6vectorIiSaIiEEEEENSt15iterator_traitsIT_E15difference_typeES8_S8_
FNDA:1,_ZSt10__distanceIN9__gnu_cxx17__normal_iteratorIPiSt6vectorIiSaIiEEEEENSt15iterator_traitsIT_E15difference_typeES8_S8_St26random_access_iterator_tag
FNDA:1,_ZSt8distanceIN9__gnu_cxx17__normal_iteratorIPiSt6vectorIiSaIiEEEEENSt15iterator_traitsIT_E15difference_typeES8_S8_
FNF:2
FNH:2
DA:98,1
DA:104,1
DA:138,1
DA:142,1
LF:4
LH:4
end_of_record
SF:/usr/include/c++/7/bits/stl_iterator_base_types.h
FN:205,_ZSt19__iterator_categoryIN9__gnu_cxx17__normal_iteratorIPiSt6vectorIiSaIiEEEEENSt15iterator_traitsIT_E17iterator_categoryERKS8_
FNDA:1,_ZSt19__iterator_categoryIN9__gnu_cxx17__normal_iteratorIPiSt6vectorIiSaIiEEEEENSt15iterator_traitsIT_E17iterator_categoryERKS8_
FNF:1
FNH:1
DA:205,1
DA:206,1
LF:2
LH:2
end_of_record
SF:/usr/include/c++/7/bits/stl_map.h
FN:177,_ZNSt3mapIiNSt7__cxx1112basic_stringIcSt11char_traitsIcESaIcEEESt4lessIiESaISt4pairIKiS5_EEEC2Ev
FN:294,_ZNSt3mapIiNSt7__cxx1112basic_stringIcSt11char_traitsIcESaIcEEESt4lessIiESaISt4pairIKiS5_EEED2Ev
FN:366,_ZNSt3mapIiNSt7__cxx1112basic_stringIcSt11char_traitsIcESaIcEEESt4lessIiESaISt4pairIKiS5_EEE3endEv
FN:484,_ZNSt3mapIiNSt7__cxx1112basic_stringIcSt11char_traitsIcESaIcEEESt4lessIiESaISt4pairIKiS5_EEEixERS9_
FN:504,_ZNSt3mapIiNSt7__cxx1112basic_stringIcSt11char_traitsIcESaIcEEESt4lessIiESaISt4pairIKiS5_EEEixEOi
FN:1136,_ZNKSt3mapIiNSt7__cxx1112basic_stringIcSt11char_traitsIcESaIcEEESt4lessIiESaISt4pairIKiS5_EEE8key_compEv
FN:1233,_ZNSt3mapIiNSt7__cxx1112basic_stringIcSt11char_traitsIcESaIcEEESt4lessIiESaISt4pairIKiS5_EEE11lower_boundERS9_
FNDA:1,_ZNSt3mapIiNSt7__cxx1112basic_stringIcSt11char_traitsIcESaIcEEESt4lessIiESaISt4pairIKiS5_EEEC2Ev
FNDA:1,_ZNSt3mapIiNSt7__cxx1112basic_stringIcSt11char_traitsIcESaIcEEESt4lessIiESaISt4pairIKiS5_EEED2Ev
FNDA:7,_ZNSt3mapIiNSt7__cxx1112basic_stringIcSt11char_traitsIcESaIcEEESt4lessIiESaISt4pairIKiS5_EEE3endEv
FNDA:1,_ZNSt3mapIiNSt7__cxx1112basic_stringIcSt11char_traitsIcESaIcEEESt4lessIiESaISt4pairIKiS5_EEEixERS9_
FNDA:6,_ZNSt3mapIiNSt7__cxx1112basic_stringIcSt11char_traitsIcESaIcEEESt4lessIiESaISt4pairIKiS5_EEEixEOi
FNDA:1,_ZNKSt3mapIiNSt7__cxx1112basic_stringIcSt11char_traitsIcESaIcEEESt4lessIiESaISt4pairIKiS5_EEE8key_compEv
FNDA:7,_ZNSt3mapIiNSt7__cxx1112basic_stringIcSt11char_traitsIcESaIcEEESt4lessIiESaISt4pairIKiS5_EEE11lower_boundERS9_
FNF:7
FNH:7
DA:177,1
DA:294,1
DA:366,7
DA:367,7
DA:484,1
DA:489,1
DA:491,1
DA:493,0
DA:499,1
DA:504,6
DA:509,6
DA:511,6
DA:512,12
DA:513,6
DA:515,6
DA:1136,1
DA:1137,1
DA:1233,7
DA:1234,7
LF:19
LH:18
end_of_record
SF:/usr/include/c++/7/bits/stl_numeric.h
FN:120,_ZSt10accumulateIN9__gnu_cxx17__normal_iteratorIPKdSt6vectorIdSaIdEEEEdET0_T_S9_S8_
FN:174,_ZSt13inner_productIN9__gnu_cxx17__normal_iteratorIPKdSt6vectorIdSaIdEEEES7_dET1_T_S9_T0_S8_
FNDA:1,_ZSt10accumulateIN9__gnu_cxx17__normal_iteratorIPKdSt6vectorIdSaIdEEEEdET0_T_S9_S8_
FNDA:1,_ZSt13inner_productIN9__gnu_cxx17__normal_iteratorIPKdSt6vectorIdSaIdEEEES7_dET1_T_S9_T0_S8_
FNF:2
FNH:2
DA:120,665
DA:126,1329
DA:127,664
DA:128,1
DA:174,665
DA:182,1329
DA:183,664
DA:184,1
LF:8
LH:8
end_of_record
SF:/usr/include/c++/7/bits/stl_pair.h
FN:198,_ZNSt4pairIKiNSt7__cxx1112basic_stringIcSt11char_traitsIcESaIcEEEED2Ev
FN:300,_ZNSt4pairIPSt18_Rb_tree_node_baseS1_EC2IRS1_Lb1EEEOT_RKS1_
FN:314,_ZNSt4pairIPSt18_Rb_tree_node_baseS1_EC2IRS1_Lb1EEERKS1_OT_
FN:330,_ZNSt4pairIPSt18_Rb_tree_node_baseS1_EC2IRPSt13_Rb_tree_nodeIS_IKiNSt7__cxx1112basic_stringIcSt11char_traitsIcESaIcEEEEERS1_Lb1EEEOT_OT0_
FN:330,_ZNSt4pairIPSt18_Rb_tree_node_baseS1_EC2IRS1_S4_Lb1EEEOT_OT0_
FNDA:6,_ZNSt4pairIKiNSt7__cxx1112basic_stringIcSt11char_traitsIcESaIcEEEED2Ev
FNDA:0,_ZNSt4pairIPSt18_Rb_tree_node_baseS1_EC2IRS1_Lb1EEEOT_RKS1_
FNDA:0,_ZNSt4pairIPSt18_Rb_tree_node_baseS1_EC2IRS1_Lb1EEERKS1_OT_
FNDA:1,_ZNSt4pairIPSt18_Rb_tree_node_baseS1_EC2IRPSt13_Rb_tree_nodeIS_IKiNSt7__cxx1112basic_stringIcSt11char_traitsIcESaIcEEEEERS1_Lb1EEEOT_OT0_
FNDA:0,_ZNSt4pairIPSt18_Rb_tree_node_baseS1_EC2IRS1_S4_Lb1EEEOT_OT0_
FNF:5
FNH:2
DA:198,6
DA:300,0
DA:301,0
DA:314,0
DA:315,0
DA:330,1
DA:331,1
LF:7
LH:3
end_of_record
SF:/usr/include/c++/7/bits/stl_tree.h
FN:146,_ZNSt20_Rb_tree_key_compareISt4lessIiEEC2Ev
FN:173,_ZNSt15_Rb_tree_headerC2Ev
FN:206,_ZNSt15_Rb_tree_header8_M_resetEv
FN:234,_ZNSt13_Rb_tree_nodeISt4pairIKiNSt7__cxx1112basic_stringIcSt11char_traitsIcESaIcEEEEE9_M_valptrEv
FN:238,_ZNKSt13_Rb_tree_nodeISt4pairIKiNSt7__cxx1112basic_stringIcSt11char_traitsIcESaIcEEEEE9_M_valptrEv
FN:273,_ZNSt17_Rb_tree_iteratorISt4pairIKiNSt7__cxx1112basic_stringIcSt11char_traitsIcESaIcEEEEEC2EPSt18_Rb_tree_node_base
FN:277,_ZNKSt17_Rb_tree_iteratorISt4pairIKiNSt7__cxx1112basic_stringIcSt11char_traitsIcESaIcEEEEEdeEv
FN:285,_ZNSt17_Rb_tree_iteratorISt4pairIKiNSt7__cxx1112basic_stringIcSt11char_traitsIcESaIcEEEEEppEv
FN:300,_ZNSt17_Rb_tree_iteratorISt4pairIKiNSt7__cxx1112basic_stringIcSt11char_traitsIcESaIcEEEEEmmEv
FN:315,_ZNKSt17_Rb_tree_iteratorISt4pairIKiNSt7__cxx1112basic_stringIcSt11char_traitsIcESaIcEEEEEeqERKS9_
FN:348,_ZNSt23_Rb_tree_const_iteratorISt4pairIKiNSt7__cxx1112basic_stringIcSt11char_traitsIcESaIcEEEEEC2ERKSt17_Rb_tree_iteratorIS8_E
FN:352,_ZNKSt23_Rb_tree_const_iteratorISt4pairIKiNSt7__cxx1112basic_stringIcSt11char_traitsIcESaIcEEEEE13_M_const_castEv
FN:574,_ZNSt8_Rb_treeIiSt4pairIKiNSt7__cxx1112basic_stringIcSt11char_traitsIcESaIcEEEESt10_Select1stIS8_ESt4lessIiESaIS8_EE21_M_get_Node_allocatorEv
FN:587,_ZNSt8_Rb_treeIiSt4pairIKiNSt7__cxx1112basic_stringIcSt11char_traitsIcESaIcEEEESt10_Select1stIS8_ESt4lessIiESaIS8_EE11_M_get_nodeEv
FN:591,_ZNSt8_Rb_treeIiSt4pairIKiNSt7__cxx1112basic_stringIcSt11char_traitsIcESaIcEEEESt10_Select1stIS8_ESt4lessIiESaIS8_EE11_M_put_nodeEPSt13_Rb_tree_nodeIS8_E
FN:621,_ZNSt8_Rb_treeIiSt4pairIKiNSt7__cxx1112basic_stringIcSt11char_traitsIcESaIcEEEESt10_Select1stIS8_ESt4lessIiESaIS8_EE17_M_construct_nodeIJRKSt21piecewise_construct_tSt5tupleIJRS1_EESJ_IJEEEEEvPSt13_Rb_tree_nodeIS8_EDpOT_
FN:621,_ZNSt8_Rb_treeIiSt4pairIKiNSt7__cxx1112basic_stringIcSt11char_traitsIcESaIcEEEESt10_Select1stIS8_ESt4lessIiESaIS8_EE17_M_construct_nodeIJRKSt21piecewise_construct_tSt5tupleIJOiEESJ_IJEEEEEvPSt13_Rb_tree_nodeIS8_EDpOT_
FN:640,_ZNSt8_Rb_treeIiSt4pairIKiNSt7__cxx1112basic_stringIcSt11char_traitsIcESaIcEEEESt10_Select1stIS8_ESt4lessIiESaIS8_EE14_M_create_nodeIJRKSt21piecewise_construct_tSt5tupleIJRS1_EESJ_IJEEEEEPSt13_Rb_tree_nodeIS8_EDpOT_
FN:640,_ZNSt8_Rb_treeIiSt4pairIKiNSt7__cxx1112basic_stringIcSt11char_traitsIcESaIcEEEESt10_Select1stIS8_ESt4lessIiESaIS8_EE14_M_create_nodeIJRKSt21piecewise_construct_tSt5tupleIJOiEESJ_IJEEEEEPSt13_Rb_tree_nodeIS8_EDpOT_
FN:648,_ZNSt8_Rb_treeIiSt4pairIKiNSt7__cxx1112basic_stringIcSt11char_traitsIcESaIcEEEESt10_Select1stIS8_ESt4lessIiESaIS8_EE15_M_destroy_nodeEPSt13_Rb_tree_nodeIS8_E
FN:656,_ZNSt8_Rb_treeIiSt4pairIKiNSt7__cxx1112basic_stringIcSt11char_traitsIcESaIcEEEESt10_Select1stIS8_ESt4lessIiESaIS8_EE12_M_drop_nodeEPSt13_Rb_tree_nodeIS8_E
FN:677,_ZNSt8_Rb_treeIiSt4pairIKiNSt7__cxx1112basic_stringIcSt11char_traitsIcESaIcEEEESt10_Select1stIS8_ESt4lessIiESaIS8_EE13_Rb_tree_implISC_Lb1EED2Ev
FN:688,_ZNSt8_Rb_treeIiSt4pairIKiNSt7__cxx1112basic_stringIcSt11char_traitsIcESaIcEEEESt10_Select1stIS8_ESt4lessIiESaIS8_EE13_Rb_tree_implISC_Lb1EEC2Ev
FN:720,_ZNSt8_Rb_treeIiSt4pairIKiNSt7__cxx1112basic_stringIcSt11char_traitsIcESaIcEEEESt10_Select1stIS8_ESt4lessIiESaIS8_EE11_M_leftmostEv
FN:728,_ZNSt8_Rb_treeIiSt4pairIKiNSt7__cxx1112basic_stringIcSt11char_traitsIcESaIcEEEESt10_Select1stIS8_ESt4lessIiESaIS8_EE12_M_rightmostEv
FN:736,_ZNSt8_Rb_treeIiSt4pairIKiNSt7__cxx1112basic_stringIcSt11char_traitsIcESaIcEEEESt10_Select1stIS8_ESt4lessIiESaIS8_EE8_M_beginEv
FN:747,_ZNSt8_Rb_treeIiSt4pairIKiNSt7__cxx1112basic_stringIcSt11char_traitsIcESaIcEEEESt10_Select1stIS8_ESt4lessIiESaIS8_EE6_M_endEv
FN:755,_ZNSt8_Rb_treeIiSt4pairIKiNSt7__cxx1112basic_stringIcSt11char_traitsIcESaIcEEEESt10_Select1stIS8_ESt4lessIiESaIS8_EE8_S_valueEPKSt13_Rb_tree_nodeIS8_E
FN:759,_ZNSt8_Rb_treeIiSt4pairIKiNSt7__cxx1112basic_stringIcSt11char_traitsIcESaIcEEEESt10_Select1stIS8_ESt4lessIiESaIS8_EE6_S_keyEPKSt13_Rb_tree_nodeIS8_E
FN:763,_ZNSt8_Rb_treeIiSt4pairIKiNSt7__cxx1112basic_stringIcSt11char_traitsIcESaIcEEEESt10_Select1stIS8_ESt4lessIiESaIS8_EE7_S_leftEPSt18_Rb_tree_node_base
FN:771,_ZNSt8_Rb_treeIiSt4pairIKiNSt7__cxx1112basic_stringIcSt11char_traitsIcESaIcEEEESt10_Select1stIS8_ESt4lessIiESaIS8_EE8_S_rightEPSt18_Rb_tree_node_base
FN:779,_ZNSt8_Rb_treeIiSt4pairIKiNSt7__cxx1112basic_stringIcSt11char_traitsIcESaIcEEEESt10_Select1stIS8_ESt4lessIiESaIS8_EE8_S_valueEPKSt18_Rb_tree_node_base
FN:783,_ZNSt8_Rb_treeIiSt4pairIKiNSt7__cxx1112basic_stringIcSt11char_traitsIcESaIcEEEESt10_Select1stIS8_ESt4lessIiESaIS8_EE6_S_keyEPKSt18_Rb_tree_node_base
FN:913,_ZNSt8_Rb_treeIiSt4pairIKiNSt7__cxx1112basic_stringIcSt11char_traitsIcESaIcEEEESt10_Select1stIS8_ESt4lessIiESaIS8_EEC2Ev
FN:948,_ZNSt8_Rb_treeIiSt4pairIKiNSt7__cxx1112basic_stringIcSt11char_traitsIcESaIcEEEESt10_Select1stIS8_ESt4lessIiESaIS8_EED2Ev
FN:956,_ZNKSt8_Rb_treeIiSt4pairIKiNSt7__cxx1112basic_stringIcSt11char_traitsIcESaIcEEEESt10_Select1stIS8_ESt4lessIiESaIS8_EE8key_compEv
FN:960,_ZNSt8_Rb_treeIiSt4pairIKiNSt7__cxx1112basic_stringIcSt11char_traitsIcESaIcEEEESt10_Select1stIS8_ESt4lessIiESaIS8_EE5beginEv
FN:968,_ZNSt8_Rb_treeIiSt4pairIKiNSt7__cxx1112basic_stringIcSt11char_traitsIcESaIcEEEESt10_Select1stIS8_ESt4lessIiESaIS8_EE3endEv
FN:996,_ZNKSt8_Rb_treeIiSt4pairIKiNSt7__cxx1112basic_stringIcSt11char_traitsIcESaIcEEEESt10_Select1stIS8_ESt4lessIiESaIS8_EE4sizeEv
FN:1186,_ZNSt8_Rb_treeIiSt4pairIKiNSt7__cxx1112basic_stringIcSt11char_traitsIcESaIcEEEESt10_Select1stIS8_ESt4lessIiESaIS8_EE11lower_boundERS1_
FN:1850,_ZNSt8_Rb_treeIiSt4pairIKiNSt7__cxx1112basic_stringIcSt11char_traitsIcESaIcEEEESt10_Select1stIS8_ESt4lessIiESaIS8_EE8_M_eraseEPSt13_Rb_tree_nodeIS8_E
FN:1867,_ZNSt8_Rb_treeIiSt4pairIKiNSt7__cxx1112basic_stringIcSt11char_traitsIcESaIcEEEESt10_Select1stIS8_ESt4lessIiESaIS8_EE14_M_lower_boundEPSt13_Rb_tree_nodeIS8_EPSt18_Rb_tree_node_baseRS1_
FN:2028,_ZNSt8_Rb_treeIiSt4pairIKiNSt7__cxx1112basic_stringIcSt11char_traitsIcESaIcEEEESt10_Select1stIS8_ESt4lessIiESaIS8_EE24_M_get_insert_unique_posERS1_
FN:2130,_ZNSt8_Rb_treeIiSt4pairIKiNSt7__cxx1112basic_stringIcSt11char_traitsIcESaIcEEEESt10_Select1stIS8_ESt4lessIiESaIS8_EE29_M_get_insert_hint_unique_posESt23_Rb_tree_const_iteratorIS8_ERS1_
FN:2297,_ZNSt8_Rb_treeIiSt4pairIKiNSt7__cxx1112basic_stringIcSt11char_traitsIcESaIcEEEESt10_Select1stIS8_ESt4lessIiESaIS8_EE14_M_insert_nodeEPSt18_Rb_tree_node_baseSG_PSt13_Rb_tree_nodeIS8_E
FN:2395,_ZNSt8_Rb_treeIiSt4pairIKiNSt7__cxx1112basic_stringIcSt11char_traitsIcESaIcEEEESt10_Select1stIS8_ESt4lessIiESaIS8_EE22_M_emplace_hint_uniqueIJRKSt21piecewise_construct_tSt5tupleIJOiEESJ_IJEEEEESt17_Rb_tree_iteratorIS8_ESt23_Rb_tree_const_iteratorIS8_EDpOT_
FN:2395,_ZNSt8_Rb_treeIiSt4pairIKiNSt7__cxx1112basic_stringIcSt11char_traitsIcESaIcEEEESt10_Select1stIS8_ESt4lessIiESaIS8_EE22_M_emplace_hint_uniqueIJRKSt21piecewise_construct_tSt5tupleIJRS1_EESJ_IJEEEEESt17_Rb_tree_iteratorIS8_ESt23_Rb_tree_const_iteratorIS8_EDpOT_
FNDA:1,_ZNSt20_Rb_tree_key_compareISt4lessIiEEC2Ev
FNDA:0,_ZNSt15_Rb_tree_headerC2Ev
FNDA:0,_ZNSt15_Rb_tree_header8_M_resetEv
FNDA:20,_ZNSt13_Rb_tree_nodeISt4pairIKiNSt7__cxx1112basic_stringIcSt11char_traitsIcESaIcEEEEE9_M_valptrEv
FNDA:35,_ZNKSt13_Rb_tree_nodeISt4pairIKiNSt7__cxx1112basic_stringIcSt11char_traitsIcESaIcEEEEE9_M_valptrEv
FNDA:28,_ZNSt17_Rb_tree_iteratorISt4pairIKiNSt7__cxx1112basic_stringIcSt11char_traitsIcESaIcEEEEEC2EPSt18_Rb_tree_node_base
FNDA:8,_ZNKSt17_Rb_tree_iteratorISt4pairIKiNSt7__cxx1112basic_stringIcSt11char_traitsIcESaIcEEEEEdeEv
FNDA:0,_ZNSt17_Rb_tree_iteratorISt4pairIKiNSt7__cxx1112basic_stringIcSt11char_traitsIcESaIcEEEEEppEv
FNDA:0,_ZNSt17_Rb_tree_iteratorISt4pairIKiNSt7__cxx1112basic_stringIcSt11char_traitsIcESaIcEEEEEmmEv
FNDA:8,_ZNKSt17_Rb_tree_iteratorISt4pairIKiNSt7__cxx1112basic_stringIcSt11char_traitsIcESaIcEEEEEeqERKS9_
FNDA:6,_ZNSt23_Rb_tree_const_iteratorISt4pairIKiNSt7__cxx1112basic_stringIcSt11char_traitsIcESaIcEEEEEC2ERKSt17_Rb_tree_iteratorIS8_E
FNDA:6,_ZNKSt23_Rb_tree_const_iteratorISt4pairIKiNSt7__cxx1112basic_stringIcSt11char_traitsIcESaIcEEEEE13_M_const_castEv
FNDA:24,_ZNSt8_Rb_treeIiSt4pairIKiNSt7__cxx1112basic_stringIcSt11char_traitsIcESaIcEEEESt10_Select1stIS8_ESt4lessIiESaIS8_EE21_M_get_Node_allocatorEv
FNDA:6,_ZNSt8_Rb_treeIiSt4pairIKiNSt7__cxx1112basic_stringIcSt11char_traitsIcESaIcEEEESt10_Select1stIS8_ESt4lessIiESaIS8_EE11_M_get_nodeEv
FNDA:6,_ZNSt8_Rb_treeIiSt4pairIKiNSt7__cxx1112basic_stringIcSt11char_traitsIcESaIcEEEESt10_Select1stIS8_ESt4lessIiESaIS8_EE11_M_put_nodeEPSt13_Rb_tree_nodeIS8_E
FNDA:0,_ZNSt8_Rb_treeIiSt4pairIKiNSt7__cxx1112basic_stringIcSt11char_traitsIcESaIcEEEESt10_Select1stIS8_ESt4lessIiESaIS8_EE17_M_construct_nodeIJRKSt21piecewise_construct_tSt5tupleIJRS1_EESJ_IJEEEEEvPSt13_Rb_tree_nodeIS8_EDpOT_
FNDA:6,_ZNSt8_Rb_treeIiSt4pairIKiNSt7__cxx1112basic_stringIcSt11char_traitsIcESaIcEEEESt10_Select1stIS8_ESt4lessIiESaIS8_EE17_M_construct_nodeIJRKSt21piecewise_construct_tSt5tupleIJOiEESJ_IJEEEEEvPSt13_Rb_tree_nodeIS8_EDpOT_
FNDA:0,_ZNSt8_Rb_treeIiSt4pairIKiNSt7__cxx1112basic_stringIcSt11char_traitsIcESaIcEEEESt10_Select1stIS8_ESt4lessIiESaIS8_EE14_M_create_nodeIJRKSt21piecewise_construct_tSt5tupleIJRS1_EESJ_IJEEEEEPSt13_Rb_tree_nodeIS8_EDpOT_
FNDA:6,_ZNSt8_Rb_treeIiSt4pairIKiNSt7__cxx1112basic_stringIcSt11char_traitsIcESaIcEEEESt10_Select1stIS8_ESt4lessIiESaIS8_EE14_M_create_nodeIJRKSt21piecewise_construct_tSt5tupleIJOiEESJ_IJEEEEEPSt13_Rb_tree_nodeIS8_EDpOT_
FNDA:6,_ZNSt8_Rb_treeIiSt4pairIKiNSt7__cxx1112basic_stringIcSt11char_traitsIcESaIcEEEESt10_Select1stIS8_ESt4lessIiESaIS8_EE15_M_destroy_nodeEPSt13_Rb_tree_nodeIS8_E
FNDA:6,_ZNSt8_Rb_treeIiSt4pairIKiNSt7__cxx1112basic_stringIcSt11char_traitsIcESaIcEEEESt10_Select1stIS8_ESt4lessIiESaIS8_EE12_M_drop_nodeEPSt13_Rb_tree_nodeIS8_E
FNDA:1,_ZNSt8_Rb_treeIiSt4pairIKiNSt7__cxx1112basic_stringIcSt11char_traitsIcESaIcEEEESt10_Select1stIS8_ESt4lessIiESaIS8_EE13_Rb_tree_implISC_Lb1EED2Ev
FNDA:1,_ZNSt8_Rb_treeIiSt4pairIKiNSt7__cxx1112basic_stringIcSt11char_traitsIcESaIcEEEESt10_Select1stIS8_ESt4lessIiESaIS8_EE13_Rb_tree_implISC_Lb1EEC2Ev
FNDA:0,_ZNSt8_Rb_treeIiSt4pairIKiNSt7__cxx1112basic_stringIcSt11char_traitsIcESaIcEEEESt10_Select1stIS8_ESt4lessIiESaIS8_EE11_M_leftmostEv
FNDA:10,_ZNSt8_Rb_treeIiSt4pairIKiNSt7__cxx1112basic_stringIcSt11char_traitsIcESaIcEEEESt10_Select1stIS8_ESt4lessIiESaIS8_EE12_M_rightmostEv
FNDA:9,_ZNSt8_Rb_treeIiSt4pairIKiNSt7__cxx1112basic_stringIcSt11char_traitsIcESaIcEEEESt10_Select1stIS8_ESt4lessIiESaIS8_EE8_M_beginEv
FNDA:20,_ZNSt8_Rb_treeIiSt4pairIKiNSt7__cxx1112basic_stringIcSt11char_traitsIcESaIcEEEESt10_Select1stIS8_ESt4lessIiESaIS8_EE6_M_endEv
FNDA:25,_ZNSt8_Rb_treeIiSt4pairIKiNSt7__cxx1112basic_stringIcSt11char_traitsIcESaIcEEEESt10_Select1stIS8_ESt4lessIiESaIS8_EE8_S_valueEPKSt13_Rb_tree_nodeIS8_E
FNDA:25,_ZNSt8_Rb_treeIiSt4pairIKiNSt7__cxx1112basic_stringIcSt11char_traitsIcESaIcEEEESt10_Select1stIS8_ESt4lessIiESaIS8_EE6_S_keyEPKSt13_Rb_tree_nodeIS8_E
FNDA:7,_ZNSt8_Rb_treeIiSt4pairIKiNSt7__cxx1112basic_stringIcSt11char_traitsIcESaIcEEEESt10_Select1stIS8_ESt4lessIiESaIS8_EE7_S_leftEPSt18_Rb_tree_node_base
FNDA:19,_ZNSt8_Rb_treeIiSt4pairIKiNSt7__cxx1112basic_stringIcSt11char_traitsIcESaIcEEEESt10_Select1stIS8_ESt4lessIiESaIS8_EE8_S_rightEPSt18_Rb_tree_node_base
FNDA:10,_ZNSt8_Rb_treeIiSt4pairIKiNSt7__cxx1112basic_stringIcSt11char_traitsIcESaIcEEEESt10_Select1stIS8_ESt4lessIiESaIS8_EE8_S_valueEPKSt18_Rb_tree_node_base
FNDA:10,_ZNSt8_Rb_treeIiSt4pairIKiNSt7__cxx1112basic_stringIcSt11char_traitsIcESaIcEEEESt10_Select1stIS8_ESt4lessIiESaIS8_EE6_S_keyEPKSt18_Rb_tree_node_base
FNDA:1,_ZNSt8_Rb_treeIiSt4pairIKiNSt7__cxx1112basic_stringIcSt11char_traitsIcESaIcEEEESt10_Select1stIS8_ESt4lessIiESaIS8_EEC2Ev
FNDA:1,_ZNSt8_Rb_treeIiSt4pairIKiNSt7__cxx1112basic_stringIcSt11char_traitsIcESaIcEEEESt10_Select1stIS8_ESt4lessIiESaIS8_EED2Ev
FNDA:1,_ZNKSt8_Rb_treeIiSt4pairIKiNSt7__cxx1112basic_stringIcSt11char_traitsIcESaIcEEEESt10_Select1stIS8_ESt4lessIiESaIS8_EE8key_compEv
FNDA:1,_ZNSt8_Rb_treeIiSt4pairIKiNSt7__cxx1112basic_stringIcSt11char_traitsIcESaIcEEEESt10_Select1stIS8_ESt4lessIiESaIS8_EE5beginEv
FNDA:7,_ZNSt8_Rb_treeIiSt4pairIKiNSt7__cxx1112basic_stringIcSt11char_traitsIcESaIcEEEESt10_Select1stIS8_ESt4lessIiESaIS8_EE3endEv
FNDA:6,_ZNKSt8_Rb_treeIiSt4pairIKiNSt7__cxx1112basic_stringIcSt11char_traitsIcESaIcEEEESt10_Select1stIS8_ESt4lessIiESaIS8_EE4sizeEv
FNDA:7,_ZNSt8_Rb_treeIiSt4pairIKiNSt7__cxx1112basic_stringIcSt11char_traitsIcESaIcEEEESt10_Select1stIS8_ESt4lessIiESaIS8_EE11lower_boundERS1_
FNDA:7,_ZNSt8_Rb_treeIiSt4pairIKiNSt7__cxx1112basic_stringIcSt11char_traitsIcESaIcEEEESt10_Select1stIS8_ESt4lessIiESaIS8_EE8_M_eraseEPSt13_Rb_tree_nodeIS8_E
FNDA:7,_ZNSt8_Rb_treeIiSt4pairIKiNSt7__cxx1112basic_stringIcSt11char_traitsIcESaIcEEEESt10_Select1stIS8_ESt4lessIiESaIS8_EE14_M_lower_boundEPSt13_Rb_tree_nodeIS8_EPSt18_Rb_tree_node_baseRS1_
FNDA:1,_ZNSt8_Rb_treeIiSt4pairIKiNSt7__cxx1112basic_stringIcSt11char_traitsIcESaIcEEEESt10_Select1stIS8_ESt4lessIiESaIS8_EE24_M_get_insert_unique_posERS1_
FNDA:6,_ZNSt8_Rb_treeIiSt4pairIKiNSt7__cxx1112basic_stringIcSt11char_traitsIcESaIcEEEESt10_Select1stIS8_ESt4lessIiESaIS8_EE29_M_get_insert_hint_unique_posESt23_Rb_tree_const_iteratorIS8_ERS1_
FNDA:6,_ZNSt8_Rb_treeIiSt4pairIKiNSt7__cxx1112basic_stringIcSt11char_traitsIcESaIcEEEESt10_Select1stIS8_ESt4lessIiESaIS8_EE14_M_insert_nodeEPSt18_Rb_tree_node_baseSG_PSt13_Rb_tree_nodeIS8_E
FNDA:0,_ZNSt8_Rb_treeIiSt4pairIKiNSt7__cxx1112basic_stringIcSt11char_traitsIcESaIcEEEESt10_Select1stIS8_ESt4lessIiESaIS8_EE22_M_emplace_hint_uniqueIJRKSt21piecewise_construct_tSt5tupleIJRS1_EESJ_IJEEEEESt17_Rb_tree_iteratorIS8_ESt23_Rb_tree_const_iteratorIS8_EDpOT_
FNDA:6,_ZNSt8_Rb_treeIiSt4pairIKiNSt7__cxx1112basic_stringIcSt11char_traitsIcESaIcEEEESt10_Select1stIS8_ESt4lessIiESaIS8_EE22_M_emplace_hint_uniqueIJRKSt21piecewise_construct_tSt5tupleIJOiEESJ_IJEEEEESt17_Rb_tree_iteratorIS8_ESt23_Rb_tree_const_iteratorIS8_EDpOT_
FNF:47
FNH:39
DA:146,1
DA:150,1
DA:173,0
DA:174,0
DA:175,0
DA:176,0
DA:177,0
DA:206,0
DA:208,0
DA:209,0
DA:210,0
DA:211,0
DA:212,0
DA:234,20
DA:235,20
DA:238,35
DA:239,35
DA:273,28
DA:274,28
DA:277,8
DA:278,8
DA:285,0
DA:287,0
DA:288,0
DA:300,0
DA:302,0
DA:303,0
DA:315,8
DA:316,8
DA:348,6
DA:349,6
DA:352,6
DA:353,6
DA:574,24
DA:575,24
DA:587,6
DA:588,6
DA:591,6
DA:592,6
DA:621,6
DA:625,6
DA:626,6
DA:630,0
DA:633,0
DA:634,0
DA:636,6
DA:640,6
DA:642,6
DA:643,6
DA:644,6
DA:648,6
DA:650,6
DA:652,6
DA:656,6
DA:658,6
DA:659,6
DA:660,6
DA:677,1
DA:688,1
DA:720,0
DA:721,0
DA:728,10
DA:729,10
DA:736,9
DA:737,9
DA:747,20
DA:748,20
DA:755,25
DA:756,25
DA:759,25
DA:760,25
DA:763,7
DA:764,7
DA:771,19
DA:772,19
DA:779,10
DA:780,10
DA:783,10
DA:784,10
DA:913,1
DA:948,1
DA:949,1
DA:956,1
DA:957,1
DA:960,1
DA:961,1
DA:968,7
DA:969,7
DA:996,6
DA:997,6
DA:1186,7
DA:1187,7
DA:1850,13
DA:1854,19
DA:1856,6
DA:1857,6
DA:1858,6
DA:1859,6
DA:1861,7
DA:1867,21
DA:1871,35
DA:1872,14
DA:1873,1
DA:1875,13
DA:1876,7
DA:2028,1
DA:2032,1
DA:2033,1
DA:2034,1
DA:2035,1
DA:2037,0
DA:2038,0
DA:2039,0
DA:2041,1
DA:2042,1
DA:2044,1
DA:2045,1
DA:2047,0
DA:2049,0
DA:2050,0
DA:2051,0
DA:2130,6
DA:2134,6
DA:2138,6
DA:2140,12
DA:2141,6
DA:2142,5
DA:2144,1
DA:2146,0
DA:2149,0
DA:2150,0
DA:2151,0
DA:2152,0
DA:2154,0
DA:2155,0
DA:2157,0
DA:2160,0
DA:2162,0
DA:2165,0
DA:2166,0
DA:2167,0
DA:2168,0
DA:2170,0
DA:2171,0
DA:2173,0
DA:2176,0
DA:2180,0
DA:2297,6
DA:2300,12
DA:2301,11
DA:2304,6
DA:2306,6
DA:2307,6
DA:2395,6
DA:2398,6
DA:2402,6
DA:2404,6
DA:2405,6
DA:2407,0
DA:2408,0
DA:2410,0
DA:2412,0
DA:2413,0
LF:163
LH:110
end_of_record
SF:/usr/include/c++/7/bits/stl_uninitialized.h
FN:226,_ZNSt22__uninitialized_fill_nILb1EE15__uninit_fill_nIPimiEET_S3_T0_RKT1_
FN:244,_ZSt20uninitialized_fill_nIPimiET_S1_T0_RKT1_
FN:364,_ZSt24__uninitialized_fill_n_aIPimiiET_S1_T0_RKT1_RSaIT2_E
FNDA:1,_ZNSt22__uninitialized_fill_nILb1EE15__uninit_fill_nIPimiEET_S3_T0_RKT1_
FNDA:1,_ZSt20uninitialized_fill_nIPimiET_S1_T0_RKT1_
FNDA:1,_ZSt24__uninitialized_fill_n_aIPimiiET_S1_T0_RKT1_RSaIT2_E
FNF:3
FNH:3
DA:226,1
DA:228,1
DA:244,1
DA:252,1
DA:255,1
DA:364,1
DA:366,1
LF:7
LH:7
end_of_record
SF:/usr/include/c++/7/bits/stl_vector.h
FN:81,_ZNSt12_Vector_baseIiSaIiEE12_Vector_implD2Ev
FN:92,_ZNSt12_Vector_baseIiSaIiEE12_Vector_implC2ERKS0_
FN:115,_ZNSt12_Vector_baseIiSaIiEE19_M_get_Tp_allocatorEv
FN:136,_ZNSt12_Vector_baseIiSaIiEEC2EmRKS0_
FN:161,_ZNSt12_Vector_baseIiSaIiEED2Ev
FN:169,_ZNSt12_Vector_baseIiSaIiEE11_M_allocateEm
FN:176,_ZNSt12_Vector_baseIiSaIiEE13_M_deallocateEPim
FN:185,_ZNSt12_Vector_baseIiSaIiEE17_M_create_storageEm
FN:295,_ZNSt6vectorIiSaIiEEC2EmRKiRKS0_
FN:433,_ZNSt6vectorIiSaIiEED2Ev
FN:563,_ZNSt6vectorIdSaIdEE5beginEv
FN:563,_ZNSt6vectorIiSaIiEE5beginEv
FN:572,_ZNKSt6vectorIdSaIdEE5beginEv
FN:581,_ZNSt6vectorIiSaIiEE3endEv
FN:581,_ZNSt6vectorIdSaIdEE3endEv
FN:590,_ZNKSt6vectorIdSaIdEE3endEv
FN:670,_ZNKSt6vectorIdSaIdEE4sizeEv
FN:795,_ZNSt6vectorIiSaIiEEixEm
FN:1334,_ZNSt6vectorIiSaIiEE18_M_fill_initializeEmRKi
FNDA:1,_ZNSt12_Vector_baseIiSaIiEE12_Vector_implD2Ev
FNDA:1,_ZNSt12_Vector_baseIiSaIiEE12_Vector_implC2ERKS0_
FNDA:2,_ZNSt12_Vector_baseIiSaIiEE19_M_get_Tp_allocatorEv
FNDA:1,_ZNSt12_Vector_baseIiSaIiEEC2EmRKS0_
FNDA:1,_ZNSt12_Vector_baseIiSaIiEED2Ev
FNDA:1,_ZNSt12_Vector_baseIiSaIiEE11_M_allocateEm
FNDA:1,_ZNSt12_Vector_baseIiSaIiEE13_M_deallocateEPim
FNDA:1,_ZNSt12_Vector_baseIiSaIiEE17_M_create_storageEm
FNDA:1,_ZNSt6vectorIiSaIiEEC2EmRKiRKS0_
FNDA:1,_ZNSt6vectorIiSaIiEED2Ev
FNDA:2,_ZNSt6vectorIiSaIiEE5beginEv
FNDA:0,_ZNSt6vectorIdSaIdEE5beginEv
FNDA:4,_ZNKSt6vectorIdSaIdEE5beginEv
FNDA:1,_ZNSt6vectorIiSaIiEE3endEv
FNDA:0,_ZNSt6vectorIdSaIdEE3endEv
FNDA:3,_ZNKSt6vectorIdSaIdEE3endEv
FNDA:0,_ZNKSt6vectorIdSaIdEE4sizeEv
FNDA:664,_ZNSt6vectorIiSaIiEEixEm
FNDA:1,_ZNSt6vectorIiSaIiEE18_M_fill_initializeEmRKi
FNF:19
FNH:16
DA:81,1
DA:92,1
DA:93,1
DA:94,1
DA:115,2
DA:116,2
DA:136,1
DA:137,1
DA:138,1
DA:161,1
DA:162,2
DA:163,2
DA:169,1
DA:172,1
DA:176,1
DA:179,1
DA:180,1
DA:181,1
DA:185,1
DA:187,1
DA:188,1
DA:189,1
DA:190,1
DA:295,1
DA:297,1
DA:298,1
DA:433,1
DA:434,1
DA:435,2
DA:563,2
DA:564,2
DA:572,4
DA:573,4
DA:581,1
DA:582,1
DA:590,3
DA:591,3
DA:670,0
DA:671,0
DA:795,664
DA:798,664
DA:1334,1
DA:1336,1
DA:1337,1
DA:1338,1
DA:1339,1
LF:46
LH:44
end_of_record
SF:/usr/include/c++/7/ext/aligned_buffer.h
FN:62,_ZN9__gnu_cxx16__aligned_membufISt4pairIKiNSt7__cxx1112basic_stringIcSt11char_traitsIcESaIcEEEEE7_M_addrEv
FN:66,_ZNK9__gnu_cxx16__aligned_membufISt4pairIKiNSt7__cxx1112basic_stringIcSt11char_traitsIcESaIcEEEEE7_M_addrEv
FN:70,_ZN9__gnu_cxx16__aligned_membufISt4pairIKiNSt7__cxx1112basic_stringIcSt11char_traitsIcESaIcEEEEE6_M_ptrEv
FN:74,_ZNK9__gnu_cxx16__aligned_membufISt4pairIKiNSt7__cxx1112basic_stringIcSt11char_traitsIcESaIcEEEEE6_M_ptrEv
FNDA:20,_ZN9__gnu_cxx16__aligned_membufISt4pairIKiNSt7__cxx1112basic_stringIcSt11char_traitsIcESaIcEEEEE7_M_addrEv
FNDA:35,_ZNK9__gnu_cxx16__aligned_membufISt4pairIKiNSt7__cxx1112basic_stringIcSt11char_traitsIcESaIcEEEEE7_M_addrEv
FNDA:20,_ZN9__gnu_cxx16__aligned_membufISt4pairIKiNSt7__cxx1112basic_stringIcSt11char_traitsIcESaIcEEEEE6_M_ptrEv
FNDA:35,_ZNK9__gnu_cxx16__aligned_membufISt4pairIKiNSt7__cxx1112basic_stringIcSt11char_traitsIcESaIcEEEEE6_M_ptrEv
FNF:4
FNH:4
DA:62,20
DA:63,20
DA:66,35
DA:67,35
DA:70,20
DA:71,20
DA:74,35
DA:75,35
LF:8
LH:8
end_of_record
SF:/usr/include/c++/7/ext/new_allocator.h
FN:79,_ZN9__gnu_cxx13new_allocatorIiEC2Ev
FN:79,_ZN9__gnu_cxx13new_allocatorISt13_Rb_tree_nodeISt4pairIKiNSt7__cxx1112basic_stringIcSt11char_traitsIcESaIcEEEEEEC2Ev
FN:81,_ZN9__gnu_cxx13new_allocatorIiEC2ERKS1_
FN:86,_ZN9__gnu_cxx13new_allocatorIiED2Ev
FN:86,_ZN9__gnu_cxx13new_allocatorISt13_Rb_tree_nodeISt4pairIKiNSt7__cxx1112basic_stringIcSt11char_traitsIcESaIcEEEEEED2Ev
FN:99,_ZN9__gnu_cxx13new_allocatorIiE8allocateEmPKv
FN:99,_ZN9__gnu_cxx13new_allocatorISt13_Rb_tree_nodeISt4pairIKiNSt7__cxx1112basic_stringIcSt11char_traitsIcESaIcEEEEEE8allocateEmPKv
FN:116,_ZN9__gnu_cxx13new_allocatorISt13_Rb_tree_nodeISt4pairIKiNSt7__cxx1112basic_stringIcSt11char_traitsIcESaIcEEEEEE10deallocateEPSB_m
FN:116,_ZN9__gnu_cxx13new_allocatorIiE10deallocateEPim
FN:129,_ZNK9__gnu_cxx13new_allocatorISt13_Rb_tree_nodeISt4pairIKiNSt7__cxx1112basic_stringIcSt11char_traitsIcESaIcEEEEEE8max_sizeEv
FN:129,_ZNK9__gnu_cxx13new_allocatorIiE8max_sizeEv
FN:135,_ZN9__gnu_cxx13new_allocatorISt13_Rb_tree_nodeISt4pairIKiNSt7__cxx1112basic_stringIcSt11char_traitsIcESaIcEEEEEE9constructISA_JRKSt21piecewise_construct_tSt5tupleIJOiEESH_IJEEEEEvPT_DpOT0_
FN:135,_ZN9__gnu_cxx13new_allocatorISt13_Rb_tree_nodeISt4pairIKiNSt7__cxx1112basic_stringIcSt11char_traitsIcESaIcEEEEEE9constructISA_JRKSt21piecewise_construct_tSt5tupleIJRS3_EESH_IJEEEEEvPT_DpOT0_
FN:140,_ZN9__gnu_cxx13new_allocatorISt13_Rb_tree_nodeISt4pairIKiNSt7__cxx1112basic_stringIcSt11char_traitsIcESaIcEEEEEE7destroyISA_EEvPT_
FNDA:1,_ZN9__gnu_cxx13new_allocatorIiEC2Ev
FNDA:1,_ZN9__gnu_cxx13new_allocatorISt13_Rb_tree_nodeISt4pairIKiNSt7__cxx1112basic_stringIcSt11char_traitsIcESaIcEEEEEEC2Ev
FNDA:1,_ZN9__gnu_cxx13new_allocatorIiEC2ERKS1_
FNDA:2,_ZN9__gnu_cxx13new_allocatorIiED2Ev
FNDA:1,_ZN9__gnu_cxx13new_allocatorISt13_Rb_tree_nodeISt4pairIKiNSt7__cxx1112basic_stringIcSt11char_traitsIcESaIcEEEEEED2Ev
FNDA:1,_ZN9__gnu_cxx13new_allocatorIiE8allocateEmPKv
FNDA:6,_ZN9__gnu_cxx13new_allocatorISt13_Rb_tree_nodeISt4pairIKiNSt7__cxx1112basic_stringIcSt11char_traitsIcESaIcEEEEEE8allocateEmPKv
FNDA:6,_ZN9__gnu_cxx13new_allocatorISt13_Rb_tree_nodeISt4pairIKiNSt7__cxx1112basic_stringIcSt11char_traitsIcESaIcEEEEEE10deallocateEPSB_m
FNDA:1,_ZN9__gnu_cxx13new_allocatorIiE10deallocateEPim
FNDA:1,_ZNK9__gnu_cxx13new_allocatorIiE8max_sizeEv
FNDA:6,_ZNK9__gnu_cxx13new_allocatorISt13_Rb_tree_nodeISt4pairIKiNSt7__cxx1112basic_stringIcSt11char_traitsIcESaIcEEEEEE8max_sizeEv
FNDA:0,_ZN9__gnu_cxx13new_allocatorISt13_Rb_tree_nodeISt4pairIKiNSt7__cxx1112basic_stringIcSt11char_traitsIcESaIcEEEEEE9constructISA_JRKSt21piecewise_construct_tSt5tupleIJRS3_EESH_IJEEEEEvPT_DpOT0_
FNDA:6,_ZN9__gnu_cxx13new_allocatorISt13_Rb_tree_nodeISt4pairIKiNSt7__cxx1112basic_stringIcSt11char_traitsIcESaIcEEEEEE9constructISA_JRKSt21piecewise_construct_tSt5tupleIJOiEESH_IJEEEEEvPT_DpOT0_
FNDA:6,_ZN9__gnu_cxx13new_allocatorISt13_Rb_tree_nodeISt4pairIKiNSt7__cxx1112basic_stringIcSt11char_traitsIcESaIcEEEEEE7destroyISA_EEvPT_
FNF:14
FNH:13
DA:79,2
DA:81,1
DA:86,3
DA:99,7
DA:101,7
DA:102,0
DA:111,7
DA:116,7
DA:125,7
DA:126,7
DA:129,7
DA:130,7
DA:135,6
DA:136,6
DA:140,6
LF:15
LH:14
end_of_record
SF:/usr/include/c++/7/iostream
DA:74,1
LF:1
LH:1
end_of_record
SF:/usr/include/c++/7/new
FN:168,_ZnwmPv
FN:174,_ZdlPvS_
FNDA:0,_ZnwmPv
FNDA:0,_ZdlPvS_
FNF:2
FNH:0
DA:168,0
DA:169,0
DA:174,0
LF:3
LH:0
end_of_record
SF:/usr/include/c++/7/tuple
FN:125,_ZNSt10_Head_baseILm0ERKiLb0EEC2ES1_
FN:132,_ZNSt10_Head_baseILm0EOiLb0EEC2IiEEOT_
FN:160,_ZNSt10_Head_baseILm0EOiLb0EE7_M_headERS1_
FN:160,_ZNSt10_Head_baseILm0ERKiLb0EE7_M_headERS2_
FN:351,_ZNSt11_Tuple_implILm0EJOiEE7_M_headERS1_
FN:351,_ZNSt11_Tuple_implILm0EJRKiEE7_M_headERS2_
FN:360,_ZNSt11_Tuple_implILm0EJRKiEEC2ES1_
FN:365,_ZNSt11_Tuple_implILm0EJOiEEC2IiEEOT_
FN:371,_ZNSt11_Tuple_implILm0EJOiEEC2EOS1_
FN:371,_ZNSt11_Tuple_implILm0EJRKiEEC2EOS2_
FN:608,_ZNSt5tupleIJRKiEEC2IvLb1EEES1_
FN:646,_ZNSt5tupleIJOiEEC2IJiELb1EEEDpOT_
FN:662,_ZNSt5tupleIJOiEEC2EOS1_
FN:662,_ZNSt5tupleIJRKiEEC2EOS2_
FN:1303,_ZSt12__get_helperILm0EOiJEERT0_RSt11_Tuple_implIXT_EJS1_DpT1_EE
FN:1303,_ZSt12__get_helperILm0ERKiJEERT0_RSt11_Tuple_implIXT_EJS2_DpT1_EE
FN:1314,_ZSt3getILm0EJRKiEERNSt13tuple_elementIXT_ESt5tupleIJDpT0_EEE4typeERS6_
FN:1314,_ZSt3getILm0EJOiEERNSt13tuple_elementIXT_ESt5tupleIJDpT0_EEE4typeERS5_
FN:1459,_ZSt16forward_as_tupleIJiEESt5tupleIJDpOT_EES3_
FN:1636,_ZNSt4pairIKiNSt7__cxx1112basic_stringIcSt11char_traitsIcESaIcEEEEC2IJOiEJEEESt21piecewise_construct_tSt5tupleIJDpT_EESB_IJDpT0_EE
FN:1636,_ZNSt4pairIKiNSt7__cxx1112basic_stringIcSt11char_traitsIcESaIcEEEEC2IJRS0_EJEEESt21piecewise_construct_tSt5tupleIJDpT_EESB_IJDpT0_EE
FN:1648,_ZNSt4pairIKiNSt7__cxx1112basic_stringIcSt11char_traitsIcESaIcEEEEC2IJOiEJLm0EEJEJEEERSt5tupleIJDpT_EERSA_IJDpT1_EESt12_Index_tupleIJXspT0_EEESJ_IJXspT2_EEE
FN:1648,_ZNSt4pairIKiNSt7__cxx1112basic_stringIcSt11char_traitsIcESaIcEEEEC2IJRS0_EJLm0EEJEJEEERSt5tupleIJDpT_EERSA_IJDpT1_EESt12_Index_tupleIJXspT0_EEESJ_IJXspT2_EEE
FNDA:0,_ZNSt10_Head_baseILm0ERKiLb0EEC2ES1_
FNDA:12,_ZNSt10_Head_baseILm0EOiLb0EEC2IiEEOT_
FNDA:0,_ZNSt10_Head_baseILm0ERKiLb0EE7_M_headERS2_
FNDA:12,_ZNSt10_Head_baseILm0EOiLb0EE7_M_headERS1_
FNDA:0,_ZNSt11_Tuple_implILm0EJRKiEE7_M_headERS2_
FNDA:12,_ZNSt11_Tuple_implILm0EJOiEE7_M_headERS1_
FNDA:0,_ZNSt11_Tuple_implILm0EJRKiEEC2ES1_
FNDA:6,_ZNSt11_Tuple_implILm0EJOiEEC2IiEEOT_
FNDA:0,_ZNSt11_Tuple_implILm0EJRKiEEC2EOS2_
FNDA:6,_ZNSt11_Tuple_implILm0EJOiEEC2EOS1_
FNDA:0,_ZNSt5tupleIJRKiEEC2IvLb1EEES1_
FNDA:6,_ZNSt5tupleIJOiEEC2IJiELb1EEEDpOT_
FNDA:0,_ZNSt5tupleIJRKiEEC2EOS2_
FNDA:6,_ZNSt5tupleIJOiEEC2EOS1_
FNDA:0,_ZSt12__get_helperILm0ERKiJEERT0_RSt11_Tuple_implIXT_EJS2_DpT1_EE
FNDA:6,_ZSt12__get_helperILm0EOiJEERT0_RSt11_Tuple_implIXT_EJS1_DpT1_EE
FNDA:0,_ZSt3getILm0EJRKiEERNSt13tuple_elementIXT_ESt5tupleIJDpT0_EEE4typeERS6_
FNDA:6,_ZSt3getILm0EJOiEERNSt13tuple_elementIXT_ESt5tupleIJDpT0_EEE4typeERS5_
FNDA:6,_ZSt16forward_as_tupleIJiEESt5tupleIJDpOT_EES3_
FNDA:0,_ZNSt4pairIKiNSt7__cxx1112basic_stringIcSt11char_traitsIcESaIcEEEEC2IJRS0_EJEEESt21piecewise_construct_tSt5tupleIJDpT_EESB_IJDpT0_EE
FNDA:6,_ZNSt4pairIKiNSt7__cxx1112basic_stringIcSt11char_traitsIcESaIcEEEEC2IJOiEJEEESt21piecewise_construct_tSt5tupleIJDpT_EESB_IJDpT0_EE
FNDA:0,_ZNSt4pairIKiNSt7__cxx1112basic_stringIcSt11char_traitsIcESaIcEEEEC2IJRS0_EJLm0EEJEJEEERSt5tupleIJDpT_EERSA_IJDpT1_EESt12_Index_tupleIJXspT0_EEESJ_IJXspT2_EEE
FNDA:6,_ZNSt4pairIKiNSt7__cxx1112basic_stringIcSt11char_traitsIcESaIcEEEEC2IJOiEJLm0EEJEJEEERSt5tupleIJDpT_EERSA_IJDpT1_EESt12_Index_tupleIJXspT0_EEESJ_IJXspT2_EEE
FNF:23
FNH:12
DA:125,0
DA:126,0
DA:132,12
DA:133,12
DA:160,12
DA:351,12
DA:360,0
DA:361,0
DA:365,6
DA:366,6
DA:371,6
DA:373,6
DA:608,0
DA:609,0
DA:646,6
DA:647,6
DA:662,6
DA:1303,6
DA:1304,6
DA:1314,6
DA:1315,6
DA:1459,6
DA:1460,6
DA:1636,6
DA:1641,6
DA:1642,6
DA:1648,6
DA:1651,6
DA:1652,6
DA:1653,6
LF:30
LH:24
end_of_record
SF:/home/kpit/c_workspace/project1/function.cpp
FN:6,_Z6SpikesRKSt6vectorIdSaIdEE
FN:32,_Z13SoundCatagoryRSt6vectorIdSaIdEE
FN:62,_Z41__static_initialization_and_destruction_0ii
FN:62,_GLOBAL__sub_I__Z6SpikesRKSt6vectorIdSaIdEE
FNDA:1,_Z6SpikesRKSt6vectorIdSaIdEE
FNDA:1,_Z13SoundCatagoryRSt6vectorIdSaIdEE
FNDA:1,_GLOBAL__sub_I__Z6SpikesRKSt6vectorIdSaIdEE
FNDA:1,_Z41__static_initialization_and_destruction_0ii
FNF:4
FNH:4
DA:6,1
DA:7,1
DA:8,1
DA:9,1
DA:10,1
DA:12,1
DA:13,1
DA:15,1
DA:16,1
DA:18,1
DA:21,665
DA:22,664
DA:24,70
DA:25,664
DA:26,664
DA:27,664
DA:29,1
DA:32,1
DA:33,2
DA:34,1
DA:35,1
DA:36,1
DA:37,1
DA:38,1
DA:39,1
DA:41,2
DA:43,665
DA:44,664
DA:45,0
DA:46,664
DA:47,10
DA:48,654
DA:49,184
DA:50,470
DA:51,439
DA:52,31
DA:53,31
DA:55,0
DA:59,1
DA:60,1
DA:62,4
LF:41
LH:39
end_of_record
TN:
SF:/usr/include/c++/7/iostream
DA:74,1
LF:1
LH:1
end_of_record
SF:/home/kpit/c_workspace/project1/header.cpp
FN:24,_ZN13Accelerometer7Abs_accEv
FN:29,_ZN5Sound12MaxIntensityEv
FN:34,_ZN5Sound8GetValueEv
FN:36,_ZN13Accelerometer8GetValueEv
FN:38,_ZN5Sound9SetMaxIntEP6Sensor
FN:46,_ZN6SensormiERNSt7__cxx1112basic_stringIcSt11char_traitsIcESaIcEEE
FN:46,_Z41__static_initialization_and_destruction_0ii
FN:46,_GLOBAL__sub_I__ZN13Accelerometer7Abs_accEv
FNDA:664,_ZN13Accelerometer7Abs_accEv
FNDA:1980,_ZN5Sound12MaxIntensityEv
FNDA:664,_ZN5Sound8GetValueEv
FNDA:664,_ZN13Accelerometer8GetValueEv
FNDA:664,_ZN5Sound9SetMaxIntEP6Sensor
FNDA:1,_GLOBAL__sub_I__ZN13Accelerometer7Abs_accEv
FNDA:1,_Z41__static_initialization_and_destruction_0ii
FNDA:0,_ZN6SensormiERNSt7__cxx1112basic_stringIcSt11char_traitsIcESaIcEEE
FNF:8
FNH:7
DA:24,664
DA:25,664
DA:26,664
DA:29,1980
DA:31,1980
DA:34,664
DA:36,664
DA:38,664
DA:40,664
DA:41,652
DA:43,12
DA:44,664
DA:46,3
LF:13
LH:13
end_of_record
SF:/home/kpit/c_workspace/project1/header.h
FN:24,_ZN6SensorD2Ev
FN:24,_ZN6SensorD0Ev
FN:26,_ZN6Sensor12MaxIntensityEv
FN:28,_ZN6Sensor7Abs_accEv
FN:30,_ZN6Sensor8GetValueEv
FN:31,_ZN6Sensor9SetMaxIntEPS_
FN:47,_ZN13AccelerometerD0Ev
FN:47,_ZN13AccelerometerD2Ev
FN:62,_ZN5SoundD2Ev
FN:62,_ZN5SoundD0Ev
FNDA:0,_ZN6SensorD0Ev
FNDA:0,_ZN6SensorD2Ev
FNDA:0,_ZN6Sensor12MaxIntensityEv
FNDA:0,_ZN6Sensor7Abs_accEv
FNDA:0,_ZN6Sensor8GetValueEv
FNDA:0,_ZN6Sensor9SetMaxIntEPS_
FNDA:664,_ZN13AccelerometerD0Ev
FNDA:664,_ZN13AccelerometerD2Ev
FNDA:664,_ZN5SoundD0Ev
FNDA:664,_ZN5SoundD2Ev
FNF:10
FNH:4
DA:24,0
DA:26,0
DA:28,0
DA:30,0
DA:31,0
DA:47,1328
DA:62,1328
LF:7
LH:2
end_of_record
